
user1.elf:     file format elf32-xtensa-le
user1.elf
architecture: xtensa, flags 0x00000112:
EXEC_P, HAS_SYMS, D_PAGED
start address 0x40100004

Xtensa header:

Machine     = Base
Insn tables = true
Literal tables = true

Program Header:
    LOAD off    0x000000d4 vaddr 0x00000000 paddr 0x00000000 align 2**0
         filesz 0x00000000 memsz 0x00000000 flags ---
    LOAD off    0x000000e0 vaddr 0x3ffe8000 paddr 0x3ffe8000 align 2**0
         filesz 0x000015d4 memsz 0x000015d4 flags rw-
    LOAD off    0x000016b8 vaddr 0x3ffe95d8 paddr 0x3ffe95d8 align 2**0
         filesz 0x00000000 memsz 0x0000b4e0 flags rw-
    LOAD off    0x000016b4 vaddr 0x40100000 paddr 0x40100000 align 2**0
         filesz 0x000074f4 memsz 0x000074f4 flags r-x
    LOAD off    0x00008bb0 vaddr 0x40201010 paddr 0x40201010 align 2**0
         filesz 0x00034184 memsz 0x00034184 flags r-x

Sections:
Idx Name          Size      VMA       LMA       File off  Algn
  0 .data         00000630  3ffe8000  3ffe8000  000000e0  2**4
                  CONTENTS, ALLOC, LOAD, DATA
  1 .rodata       00000fa4  3ffe8630  3ffe8630  00000710  2**4
                  CONTENTS, ALLOC, LOAD, DATA
  2 .bss          0000b4e0  3ffe95d8  3ffe95d8  000016b8  2**4
                  ALLOC
  3 .irom0.text   00034184  40201010  40201010  00008bb0  2**4
                  CONTENTS, ALLOC, LOAD, READONLY, CODE
  4 .text         000074f4  40100000  40100000  000016b4  2**2
                  CONTENTS, ALLOC, LOAD, READONLY, CODE
  5 .xtensa.info  00000038  00000000  00000000  0003cd34  2**0
                  CONTENTS, READONLY
  6 .xt.prop      0002b8a8  00000000  00000000  0003cd6c  2**0
                  CONTENTS, READONLY
  7 .xt.lit       000015e0  00000000  00000000  00068614  2**0
                  CONTENTS, READONLY
  8 .comment      0000165a  00000000  00000000  00069bf4  2**0
                  CONTENTS, READONLY
  9 .xt.prop._ZTV6Stream 0000000c  00000000  00000000  0006b24e  2**0
                  CONTENTS, READONLY
 10 .xt.prop._ZTV14HardwareSerial 0000000c  00000000  00000000  0006b25a  2**0
                  CONTENTS, READONLY
 11 .xt.prop._ZTV5Print 0000000c  00000000  00000000  0006b266  2**0
                  CONTENTS, READONLY
 12 .xt.prop._ZTV7TwoWire 0000000c  00000000  00000000  0006b272  2**0
                  CONTENTS, READONLY
 13 .debug_line   00003b6b  00000000  00000000  0006b27e  2**0
                  CONTENTS, READONLY, DEBUGGING
 14 .debug_info   00002560  00000000  00000000  0006ede9  2**0
                  CONTENTS, READONLY, DEBUGGING
 15 .debug_abbrev 00000707  00000000  00000000  00071349  2**0
                  CONTENTS, READONLY, DEBUGGING
 16 .debug_aranges 00000378  00000000  00000000  00071a50  2**3
                  CONTENTS, READONLY, DEBUGGING
 17 .debug_frame  000000d0  00000000  00000000  00071dc8  2**2
                  CONTENTS, READONLY, DEBUGGING
 18 .debug_loc    00001693  00000000  00000000  00071e98  2**0
                  CONTENTS, READONLY, DEBUGGING
 19 .debug_str    000002ce  00000000  00000000  0007352b  2**0
                  CONTENTS, READONLY, DEBUGGING
 20 .debug_ranges 000000f8  00000000  00000000  000737f9  2**0
                  CONTENTS, READONLY, DEBUGGING
SYMBOL TABLE:
3ffe8000 l    d  .data	00000000 .data
3ffe8630 l    d  .rodata	00000000 .rodata
3ffe95d8 l    d  .bss	00000000 .bss
40201010 l    d  .irom0.text	00000000 .irom0.text
40100000 l    d  .text	00000000 .text
00000000 l    d  .xtensa.info	00000000 .xtensa.info
00000000 l    d  .xt.prop	00000000 .xt.prop
00000000 l    d  .xt.lit	00000000 .xt.lit
00000000 l    d  .comment	00000000 .comment
00000000 l    d  .xt.prop._ZTV6Stream	00000000 .xt.prop._ZTV6Stream
00000000 l    d  .xt.prop._ZTV14HardwareSerial	00000000 .xt.prop._ZTV14HardwareSerial
00000000 l    d  .xt.prop._ZTV5Print	00000000 .xt.prop._ZTV5Print
00000000 l    d  .xt.prop._ZTV7TwoWire	00000000 .xt.prop._ZTV7TwoWire
00000000 l    d  .debug_line	00000000 .debug_line
00000000 l    d  .debug_info	00000000 .debug_info
00000000 l    d  .debug_abbrev	00000000 .debug_abbrev
00000000 l    d  .debug_aranges	00000000 .debug_aranges
00000000 l    d  .debug_frame	00000000 .debug_frame
00000000 l    d  .debug_loc	00000000 .debug_loc
00000000 l    d  .debug_str	00000000 .debug_str
00000000 l    d  .debug_ranges	00000000 .debug_ranges
00000000 l    df *ABS*	00000000 libc_replacements.c
3ffe9950 l     O .bss	00000004 ret$3404
3ffe994c l     O .bss	00000004 ret$3418
3ffe9954 l     O .bss	00000004 errno_var
00000000 l    df *ABS*	00000000 user_main.cpp
00000000 l    df *ABS*	00000000 core_esp8266_main.cpp
3ffe995c l     O .bss	00000004 _ZL22g_micros_at_task_start
3ffe9968 l     O .bss	00002020 _ZL6g_cont
3ffe9958 l     O .bss	00000001 _ZZ12loop_wrappervE10setup_done
3ffe9960 l     O .bss	00000008 _ZL12g_loop_queue
00000000 l    df *ABS*	00000000 Demo.cpp
3ffeba18 l     O .bss	00000004 _ZL3cnt
3ffeba08 l     O .bss	00000010 _ZL2q1
00000000 l    df *ABS*	00000000 cont_util.c
00000000 l    df *ABS*	00000000 core_esp8266_wiring.c
3ffeba20 l     O .bss	00000004 micros_at_last_overflow_tick
3ffeba1c l     O .bss	00000004 micros_overflow_count
3ffeba38 l     O .bss	00000014 delay_timer
3ffeba24 l     O .bss	00000014 micros_overflow_timer
00000000 l    df *ABS*	00000000 core_esp8266_wiring_digital.c
3ffe8640 l     O .rodata	00000010 esp8266_gpioToFn
3ffeba50 l     O .bss	00000004 interrupt_reg
3ffeba54 l     O .bss	00000080 interrupt_handlers
00000000 l    df *ABS*	00000000 core_esp8266_timer.c
00000000 l    df *ABS*	00000000 cont.o
40101305 l       .text	00000000 cont_continue
40101350 l       .text	00000000 cont_ret
40101340 l       .text	00000000 cont_resume
4010134c l       .text	00000000 cont_norm
00000000 l    df *ABS*	00000000 network.cpp
40202474 l     F .irom0.text	00000106 _ZL20user_devicefind_recvPvPct
3ffebb75 l     O .bss	00000001 _ZL9get_hello
4020258c l     F .irom0.text	00000043 _ZL13confirm_helloPv
3ffebb76 l     O .bss	00000001 _ZL19main_conn_retry_cnt
40202a00 l     F .irom0.text	0000004c _ZL23main_connection_recv_cbPvPct
40202690 l     F .irom0.text	00000050 _ZL23main_connection_sent_cbPv
3ffebae0 l     O .bss	00000014 _ZL19timer_confirm_hello
3ffebb74 l     O .bss	00000001 _ZL23confirm_hello_retry_cnt
3ffe8010 l     O .data	00000001 _ZZ28network_check_timer_callbackvE21last_main_conn_status
3ffebaf4 l     O .bss	00000014 _ZL19timer_network_check
3ffebb3c l     O .bss	0000001c _ZL9main_conn
3ffebb1c l     O .bss	00000020 _ZL8user_tcp
3ffebb08 l     O .bss	00000014 _ZL15timer_main_conn
3ffebb77 l     O .bss	00000001 _ZL18smartconfig_status
4020297c l     F .irom0.text	00000077 _ZL25smartconfig_done_callback9sc_statusPv
3ffebb58 l     O .bss	0000001c _ZL8udp_conn
00000000 l    df *ABS*	00000000 rpc_server.cpp
3ffebc2c l     O .bss	00000004 _ZL11parse_stage
3ffebb88 l     O .bss	00000010 _ZL5event
3ffebc04 l     O .bss	00000021 _ZL4buff
3ffebc28 l     O .bss	00000004 _ZL8req_type
3ffebbb0 l     O .bss	00000001 _ZL2ch
3ffebb98 l     O .bss	00000004 _ZL10p_resource
3ffebc00 l     O .bss	00000004 _ZL6offset
3ffebbd8 l     O .bss	00000021 _ZL10grove_name
3ffebbb4 l     O .bss	00000021 _ZL11method_name
3ffebbfc l     O .bss	00000004 _ZL9arg_index
3ffebb9c l     O .bss	00000004 _ZL10arg_offset
3ffebba0 l     O .bss	00000010 _ZL8arg_buff
00000000 l    df *ABS*	00000000 rpc_stream.cpp
00000000 l    df *ABS*	00000000 Esp.cpp
3ffe8734 l     O .rodata	00000020 CSWTCH$39
3ffe86f4 l     O .rodata	00000040 CSWTCH$41
00000000 l    df *ABS*	00000000 HardwareSerial.cpp
40203be8 l     F .irom0.text	00000026 _Z21uart_wait_for_tx_fifoP5uart_j$part$3
40203c10 l     F .irom0.text	00000023 _Z21uart_get_tx_fifo_roomP5uart_$part$4
40203d88 l     F .irom0.text	0000001d _Z14uart_set_debugi$part$7
3ffebc7c l     O .bss	00000004 _ZL15s_uart_debug_nr
402047e4 l     F .irom0.text	00000034 _GLOBAL__sub_I_Serial
00000000 l    df *ABS*	00000000 Print.cpp
00000000 l    df *ABS*	00000000 abi.cpp
00000000 l    df *ABS*	00000000 rpc_server_registration.cpp
00000000 l    df *ABS*	00000000 circular_buffer.cpp
00000000 l    df *ABS*	00000000 grove_example_class.cpp
00000000 l    df *ABS*	00000000 core_esp8266_noniso.c
00000000 l    df *ABS*	00000000 grove_example_gen.cpp
00000000 l    df *ABS*	00000000 grove_example.cpp
00000000 l    df *ABS*	00000000 suli2.cpp
00000000 l    df *ABS*	00000000 WString.cpp
3ffebc88 l     O .bss	00000001 _ZZN6StringixEjE19dummy_writable_char
00000000 l    df *ABS*	00000000 Wire.cpp
3ffe801c l     O .data	00000004 _ZL15default_sda_pin
3ffe8018 l     O .data	00000004 _ZL15default_scl_pin
00000000 l    df *ABS*	00000000 pgmspace.cpp
00000000 l    df *ABS*	00000000 core_esp8266_si2c.c
3ffebcdc l     O .bss	00000001 twi_scl
3ffebcdd l     O .bss	00000001 twi_sda
40201e64 l     F .irom0.text	00000077 twi_write_start
40201edc l     F .irom0.text	0000008d twi_write_stop
40201f6c l     F .irom0.text	00000088 twi_write_bit
40201ff4 l     F .irom0.text	00000080 twi_read_bit
40202074 l     F .irom0.text	00000038 twi_write_byte
00000000 l    df *ABS*	00000000 s_fpclassify.c
00000000 l    df *ABS*	00000000 w_atan2.c
00000000 l    df *ABS*	00000000 w_cosh.c
00000000 l    df *ABS*	00000000 w_exp.c
3ffe8760 l     O .rodata	00000008 o_threshold
3ffe8768 l     O .rodata	00000008 u_threshold
00000000 l    df *ABS*	00000000 w_hypot.c
00000000 l    df *ABS*	00000000 w_log.c
00000000 l    df *ABS*	00000000 w_log10.c
00000000 l    df *ABS*	00000000 w_sinh.c
00000000 l    df *ABS*	00000000 w_sqrt.c
00000000 l    df *ABS*	00000000 wf_atan2.c
00000000 l    df *ABS*	00000000 wf_cosh.c
00000000 l    df *ABS*	00000000 wf_exp.c
3ffe87a8 l     O .rodata	00000004 o_threshold
3ffe87ac l     O .rodata	00000004 u_threshold
00000000 l    df *ABS*	00000000 wf_hypot.c
00000000 l    df *ABS*	00000000 wf_log.c
00000000 l    df *ABS*	00000000 wf_log10.c
00000000 l    df *ABS*	00000000 wf_sinh.c
00000000 l    df *ABS*	00000000 wf_sqrt.c
00000000 l    df *ABS*	00000000 s_fabs.c
00000000 l    df *ABS*	00000000 s_finite.c
00000000 l    df *ABS*	00000000 s_lib_ver.c
00000000 l    df *ABS*	00000000 s_matherr.c
00000000 l    df *ABS*	00000000 s_nan.c
00000000 l    df *ABS*	00000000 sf_fabs.c
00000000 l    df *ABS*	00000000 sf_finite.c
00000000 l    df *ABS*	00000000 sf_fpclassify.c
00000000 l    df *ABS*	00000000 _addsubdf3.o
40101498 l       .text	00000000 __adddf3_aux
401015e4 l       .text	00000000 __subdf3_aux
00000000 l    df *ABS*	00000000 _muldf3.o
40101790 l       .text	00000000 __muldf3_aux
00000000 l    df *ABS*	00000000 _divdf3.o
40101a2c l       .text	00000000 __divdf3_aux
00000000 l    df *ABS*	00000000 libgcc2.c
00000000 l    df *ABS*	00000000 int_asm--set_intclear.o
00000000 l       *ABS*	00000000 .callsz
00000000 l       *ABS*	00000000 .locsz
00000000 l    df *ABS*	00000000 _addsubsf3.o
40106620 l       .text	00000000 __addsf3_aux
40106704 l       .text	00000000 __subsf3_aux
00000000 l    df *ABS*	00000000 _mulsf3.o
40106820 l       .text	00000000 __mulsf3_aux
00000000 l    df *ABS*	00000000 _divsf3.o
40106980 l       .text	00000000 __divsf3_aux
00000000 l    df *ABS*	00000000 libgcc2.c
00000000 l    df *ABS*	00000000 libgcc2.c
00000000 l    df *ABS*	00000000 libgcc2.c
00000000 l    df *ABS*	00000000 libgcc2.c
00000000 l    df *ABS*	00000000 
3ffe97a4 g     O .bss	00000024 info
40204fd4 g     F .irom0.text	0000002d _Z13suli_i2c_initPP7TwoWireii
40203a8c g     F .irom0.text	00000027 _ZN8EspClass16getFlashChipModeEv
3fff4274 g     O .bss	00000004 current_iphdr_src
4021df38 g     F .irom0.text	0000002e chm_check_same_channel
4022e600 g     F .irom0.text	00000025 aes_encrypt_deinit
4021173c g     F .irom0.text	000000d7 cal_rf_ana_gain
40207c1c g     F .irom0.text	00000008 system_init_done_cb
40234218 g     F .irom0.text	00000017 inet_chksum
40205354 g     F .irom0.text	0000001a _ZN7TwoWire11requestFromEhh
40225fac g     F .irom0.text	0000000f raw_bind
3ffebcb8 g     O .bss	00000001 _ZN7TwoWire9txAddressE
402134b0 g     F .irom0.text	00000002 chip_v6_get_sense
40216090 g     F .irom0.text	0000001d pm_force_scan_unlock
4020b020 g     F .irom0.text	0000003f _ZN6StringC1Efh
4022988c g     F .irom0.text	00000091 wpa_get_ntp_timestamp
40204f8c g     F .irom0.text	0000001d _Z31grove_example_write_multi_valuePP7TwoWireifa
40225a48 g     F .irom0.text	00000048 pbuf_realloc
4020388c g     F .irom0.text	0000000e _Zli5_GBity
3ffe800a g     O .data	00000001 dhcps_flag
402232c4 g     F .irom0.text	00000012 espconn_mdns_server_register
40100860 g     F .text	00000028 pvPortCalloc
40205054 g     F .irom0.text	0000004c _Z13suli_i2c_readPP7TwoWirehPhi
402045a4 g     F .irom0.text	0000000b _ZNK14HardwareSerialcvbEv
401010bc g     F .text	00000013 strcpy
40208038 g     F .irom0.text	00000098 wifi_param_save_protect
4020af60 g     F .irom0.text	0000002e _ZN6StringC1Eih
3ffe89a1 g     O .rodata	00000001 DATA_RSSI_BEAR
402076bc g     F .irom0.text	00000100 system_upgrade_reboot
40227ba8 g     F .irom0.text	00000010 tcp_next_iss
4020b78c g     F .irom0.text	00000012 _ZN6String9setCharAtEjc
4022e700 g     F .irom0.text	00000085 system_upgrade_init
3fff4a8c g     O .bss	00000004 p_SmartTail
4021bfec g     F .irom0.text	00000031 ieee80211_phy_init
40202d08 g     F .irom0.text	00000039 _Z15rpc_server_initv
40231ea4 g     F .irom0.text	00000359 get_sequ_data_ht40
40211fcc g     F .irom0.text	000001b6 rc_cal
4021749c g     F .irom0.text	0000003f rc_get_sta_trc
4020a708 g     F .irom0.text	00000037 _ZN5Print7printlnERK6String
40223c90 g     F .irom0.text	0000002e igmp_report_groups
40227440 g     F .irom0.text	00000042 tcp_update_rcv_ann_wnd
4020e5e4 g     F .irom0.text	000001bd tx_cap_init
3fff3240 g     O .bss	00000001 auth_type
40217674 g     F .irom0.text	00000017 wDev_Enable_Beacon_Tsf
4020489c g     F .irom0.text	00000019 _Znaj
4020b0e0 g     F .irom0.text	00000017 _ZN6StringC2EPK19__FlashStringHelper
40201030 g     F .irom0.text	00000041 _Z9loop_taskP11ETSEventTag
402063e8 g     F .irom0.text	0000003e fabs
40105448 g     F .text	0000003f wDev_EnableTransmit
40201134  w    F .irom0.text	00000021 yield
4000ba48 g       *ABS*	00000000 sha1_prf
3ffebcf8 g     O .bss	00000001 rxdc_init_flag
402058cc g     F .irom0.text	00000111 log
4020b98c g     F .irom0.text	00000017 _ZNK6String11lastIndexOfERKS_
40206e7c g     F .irom0.text	00000007 xPortGetFreeHeapSize
3fff46b4 g     O .bss	00000004 netif_list
40205c08 g     F .irom0.text	000000da sqrt
4021fa40 g     F .irom0.text	00000020 dhcp_cleanup
402181d8 g     F .irom0.text	00000044 ieee80211_ifattach
402207d8 g     F .irom0.text	00000022 node_remove_from_list
4022d75c g     F .irom0.text	00000034 rsn_pmkid
40229e1c g     F .irom0.text	0000003e wpa_auth_sta_init
402055cc g     F .irom0.text	000000d6 cosh
40003158 g       *ABS*	00000000 ets_wdt_restore
4020a9c0 g     F .irom0.text	0000002b _ZN5Print7printlnEji
40101c38 g     F .text	00000000 .hidden __eqdf2
4022868c g     F .irom0.text	00000145 tcp_rst
4010548c g     F .text	0000001e wDev_DisableTransmit
40221f64 g     F .irom0.text	0000006e espconn_get_keepalive
40203610 g     F .irom0.text	00000002 _Z11stream_initv
40225e7c g     F .irom0.text	0000004f pbuf_memfind
40106b70 g     F .text	000003eb .hidden __divdi3
402087c4 g     F .irom0.text	000000a0 wifi_station_disconnect
40204c5c g     F .irom0.text	00000017 _ZN12GroveExample17write_multi_valueEifa
4021f05c g     F .irom0.text	0000005f cnx_node_alloc
4020b6e0 g     F .irom0.text	0000003b _ZNK6String10startsWithERKS_j
40100efc g     F .text	00000056 system_rtc_mem_read
4020a424 g     F .irom0.text	0000004d _Z13at_upDate_rspPv
3fff4a60 g     O .bss	00000004 p_mac_filt_head
4020a7c0 g     F .irom0.text	00000035 _ZN5Print7printlnERK9Printable
40204464 g     F .irom0.text	0000000a _ZN14HardwareSerial11isTxEnabledEv
4000a2cc g       *ABS*	00000000 hmac_md5
4020a31c g     F .irom0.text	0000000f __ieee754_sinh
40230f30 g     F .irom0.text	0000003c clear_init_ht40
402020bc g     F .irom0.text	0000004a twi_setClock
40215290 g     F .irom0.text	00000002 pm_idle_sleep
40217294 g     F .irom0.text	00000048 rcAttach
3ffe95d4 g       *ABS*	00000000 _bss_table_end
40209fa4 g     F .irom0.text	0000009d strtok_r
40221848 g     F .irom0.text	0000001c espconn_pbuf_create
3ffec09f g     O .bss	00000001 loop_pwctrl_correct_atten_high_power
40223b3c g     F .irom0.text	00000021 etharp_request
40211aa0 g     F .irom0.text	0000009c txiq_get_mis_pwr
3ffeba4c g     O .bss	00000004 interruptsState
402053ac g     F .irom0.text	0000001e _ZN7TwoWire17beginTransmissionEh
40100fb8 g     F .text	00000030 printf
4021fa64 g     F .irom0.text	000000af dhcp_start
40216500 g     F .irom0.text	00000033 reset_noise_timer
4020e584 g     F .irom0.text	0000002c stop_dig_rx
4021a1a8 g     F .irom0.text	000002fe ieee80211_parse_beacon
4020f13c g     F .irom0.text	0000004f target_power_backoff
4020b668 g     F .irom0.text	00000017 _ZNK6StringgeERKS_
40208f00 g     F .irom0.text	000000b7 wifi_softap_deauth
40227ae4 g     F .irom0.text	00000005 tcp_err
4022f90c g     F .irom0.text	0000005d smartconfig_get_status
3ffe889c g     O .rodata	00000004 ip_addr_any
40208208 g     F .irom0.text	000000b6 wifi_station_get_ap_info
40234068 g     F .irom0.text	000000c9 inet_chksum_pseudo
fffff00f g       *ABS*	00000000 _memmap_cacheattr_unused_mask
4021fbbc g     F .irom0.text	00000046 dhcp_network_changed
4020a6f0 g     F .irom0.text	00000018 _ZN5Print7printlnEv
4020a8f0 g     F .irom0.text	0000002b _ZN5Print7printlnEii
40100698 g     F .text	000000b7 ets_timer_arm_new
40229248 g     F .irom0.text	00000033 udp_remove
4020b2cc g     F .irom0.text	00000034 _ZN6String6concatEd
4020a32c g     F .irom0.text	0000000f __ieee754_hypot
4020debc g     F .irom0.text	0000013e gen_rx_gain_table
4022f434 g     F .irom0.text	00000096 sc_channel_timer_cb
40203670 g     F .irom0.text	00000020 _Z16stream_availablev
40210390 g     F .irom0.text	00000053 tx_cont_dis
4021a884 g     F .irom0.text	00000004 ieee80211_setup_rateset
402045e8 g     F .irom0.text	000000d5 _ZN14HardwareSerial13_tx_empty_irqEv
402248e0 g     F .irom0.text	00000019 ip_output_if
4020ada0 g     F .irom0.text	0000004b _ZN6String4copyEPK19__FlashStringHelperj
3ffe8054 g     O .data	00000001 tx_pwctrl_atten_init_en
40203ed8 g     F .irom0.text	0000005e _Z10uart_flushP5uart_
40214330 g     F .irom0.text	00000102 sleep_reset_analog_rtcreg_8266
40208fc4 g     F .irom0.text	000000a5 wifi_set_phy_mode
402081e8 g     F .irom0.text	00000011 wifi_station_get_config_default
3ffec39e g     O .bss	00000001 dbg_stop_hw_wdt
40221b88 g     F .irom0.text	00000034 espconn_tcp_set_max_con_allow
40210c5c g     F .irom0.text	00000062 reduce_current_init
402116a4 g     F .irom0.text	0000008b get_sar_dout
401074f4 g       *ABS*	00000000 _lit4_end
4022e05c g     F .irom0.text	00000039 wpa_sm_alloc_eapol
3ffe8600 g     O .data	00000018 tkip
40225afc g     F .irom0.text	00000078 pbuf_free
40227ad4 g     F .irom0.text	00000005 tcp_recv
401069fc g     F .text	00000000 .hidden __divsf3
40231778 g     F .irom0.text	0000050b get_prefix_control_info_ht40
3ffe80a0 g     O .data	00000004 tcb
00000110 g       *ABS*	00000000 _memmap_cacheattr_wt_base
40230fd4 g     F .irom0.text	000003ca find_channel_csc_ht40
40225b98 g     F .irom0.text	00000029 pbuf_cat
4020bc3c g     F .irom0.text	0000007b _ZN6String4trimEv
4022e0b4 g     F .irom0.text	00000004 wpa_sm_mlme_setprotection
3ffebf88 g     O .bss	00000008 noise_array
402048e8 g     F .irom0.text	00000008 __cxa_deleted_virtual
402182d8 g     F .irom0.text	00000028 ieee80211_find_channel
4021c318 g     F .irom0.text	00000034 ieee80211_iserp_rateset
4020b9a8 g     F .irom0.text	0000005f _ZNK6String9substringEjj
40203e38 g     F .irom0.text	00000024 _Z18uart_transmit_charP5uart_c
40204420 g     F .irom0.text	00000013 _ZN14HardwareSerial4swapEv
4000e04c g       *ABS*	00000000 memmove
40224ae0 g     F .irom0.text	00000039 ip_output
4022356c g     F .irom0.text	0000003c etharp_cleanup_netif
40206a9c g     F .irom0.text	00000054 user_uart_wait_tx_fifo_empty
401074f4 g       *ABS*	00000000 _text_end
40100930 g     F .text	00000057 spi_flash_get_id
4022ec68 g     F .irom0.text	000000bd system_upgrade_start
4022dc04 g     F .irom0.text	00000127 ppInstallKey
40208d58 g     F .irom0.text	00000011 wifi_softap_set_config_current
40228fb0 g     F .irom0.text	0000004f udp_sendto
4020cb44 g     F .irom0.text	000000c5 ram_rfpll_set_freq
3ffe97c8 g     O .bss	00000014 check_timeouts_timer
40221b1c g     F .irom0.text	0000001c espconn_tcp_set_wnd
4022d8dc g     F .irom0.text	00000025 wpa_parse_wpa_ie
40203b9c g     F .irom0.text	0000001c _ZN14HardwareSerial4peekEv
3ffe98f8 g     O .bss	00000001 cpu_overclock
40101020 g     F .text	0000002c snprintf
401001c8 g     F .text	00000052 NMI_Handler
40221a10 g     F .irom0.text	00000047 espconn_create
40203614 g     F .irom0.text	00000041 _Z11stream_readv
4020cab8 g     F .irom0.text	00000058 wait_rfpll_cal_end
40224264 g     F .irom0.text	0000001c ipaddr_addr
40106ab8 g     F .text	00000000 .hidden __fixsfsi
402019a4 g     F .irom0.text	0000001a reverse
4021e388 g     F .irom0.text	00000011 cnx_start_handoff_cb
40203fb0 g     F .irom0.text	00000056 _Z22uart_interrupt_disableP5uart_
40228914 g     F .irom0.text	00000077 tcp_keepalive
40103b18 g     F .text	00000024 ppRollBackTxQ
40201304 g     F .irom0.text	000002c2 __pinMode
3ffebf5b g     O .bss	00000001 pwctrl_debug
4022334c g     F .irom0.text	00000057 etharp_tmr
4020a7f8 g     F .irom0.text	00000088 _ZN5Print11printNumberEmh
40221db0 g     F .irom0.text	0000008f espconn_get_packet_info
40205234 g     F .irom0.text	00000010 _ZN7TwoWireC2Ev
40204eb8 g     F .irom0.text	00000008 _Z23grove_example_read_tempPP7TwoWirePi
402110bc g     F .irom0.text	0000002c set_rf_gain_stage10
40214444 g     F .irom0.text	0000000f ic_set_opmode
400018a4 g       *ABS*	00000000 ets_memset
401074f4 g       *ABS*	00000000 _lit4_start
4020b7a4 g     F .irom0.text	00000016 _ZN6StringixEj
402279e4 g     F .irom0.text	000000d8 tcp_alloc
4021c298 g     F .irom0.text	00000036 ieee80211_node_pwrsave
40204a88 g     F .irom0.text	00000083 _ZN14CircularBuffer5writeEPKcj
4021caa8 g     F .irom0.text	0000000a scan_set_desChan
40205234 g     F .irom0.text	00000010 _ZN7TwoWireC1Ev
4021c0e4 g     F .irom0.text	00000027 ieee80211_dot11Rate_rix
4020a59c g     F .irom0.text	00000043 _ZN5Print5writeEPKhj
40101c68 g     F .text	00000000 .hidden __gtdf2
4020197c g     F .irom0.text	00000013 atol
4020a2fc g     F .irom0.text	00000020 __errno
40221190 g     F .irom0.text	00000043 wifi_softap_set_dhcps_offer_option
4020abfc g     F .irom0.text	00000013 _ZN5Print5printEdi
40000dc0 g       *ABS*	00000000 ets_set_idle_cb
40103b3c g     F .text	0000000f ppRecordBarRRC
40229000 g     F .irom0.text	0000014a udp_sendto_if
4020b020 g     F .irom0.text	0000003f _ZN6StringC2Efh
4020ed10 g     F .irom0.text	00000052 ram_set_noise_floor
4022dbd0 g     F .irom0.text	00000031 wpa_gen_wpa_ie
4020ece0 g     F .irom0.text	0000002e get_noisefloor_sat
4020d200 g     F .irom0.text	00000060 chip_v6_set_chan_wakeup
3ffe800c g     O .data	00000001 reconnect_internal
4020ffa0 g     F .irom0.text	0000033b phy_gpio_cfg
402039fc g     F .irom0.text	0000001e _ZN8EspClass20getFlashChipRealSizeEv
4020386c g     F .irom0.text	0000000e _Zli5_kBity
40227ad0 g     F .irom0.text	00000004 tcp_arg
40202838 g     F .irom0.text	000000ab _Z20main_connection_initv
40228b50 g     F .irom0.text	0000005b sys_timeouts_init
40204c74 g     F .irom0.text	00000014 _ZN12GroveExample20attach_event_handlerEPFvPcjE
402093d8 g     F .irom0.text	0000005e wifi_get_macaddr
40009410 g       *ABS*	00000000 aes_unwrap
3ffebc34 g     O .bss	00000024 Serial1
402147cc g     F .irom0.text	00000025 ic_get_rssi
4020a6a8 g     F .irom0.text	0000002b _ZN5Print7printlnEPK19__FlashStringHelper
3fff46fc g     O .bss	00000004 tcp_active_pcbs
40204bb8 g     F .irom0.text	00000014 _ZN12GroveExample9read_tempEPi
402010f4 g     F .irom0.text	00000007 esp_micros_at_task_start
4020ae7c g     F .irom0.text	00000017 _ZN6StringC1ERKS_
40216188 g     F .irom0.text	00000016 pm_assoc_parse
4022ba08 g     F .irom0.text	0000006c wpa_add_kde
40208af8 g     F .irom0.text	00000011 wifi_softap_get_config_default
40205ffc g     F .irom0.text	0000010b logf
40216584 g     F .irom0.text	00000033 pp_try_enable_idle_timer
3ffecb80 g     O .bss	00000040 wDevCtrl
3fff4720 g     O .bss	00000004 udp_pcbs
4022d9d0 g     F .irom0.text	0000009a wpa_supplicant_parse_ies
40215394 g     F .irom0.text	000002aa pm_onBcnRx
4020b874 g     F .irom0.text	00000030 _ZNK6String7indexOfERKS_j
402112e4 g     F .irom0.text	0000001d phy_set_most_tpw
4020c314 g     F .irom0.text	00000064 ram_pbus_xpd_tx_on
40203a24 g     F .irom0.text	00000031 _ZN8EspClass16getFlashChipSizeEv
402271f4 g     F .irom0.text	00000059 tcp_shutdown
40216374 g     F .irom0.text	00000002 pp_soft_wdt_restart
40223b60 g     F .irom0.text	00000077 ethernet_input
4021cb48 g     F .irom0.text	000001b9 scan_profile_check
401074f4 g       .text	00000000 _etext
40203964 g     F .irom0.text	0000000f _ZN8EspClass7restartEv
40201710 g     F .irom0.text	0000005a __attachInterrupt
40101290 g     F .text	00000010 isblank
402036cc g     F .irom0.text	000000ef _Z12writer_print6type_tPKvb
4021ed04 g     F .irom0.text	000001ab cnx_update_bss_more
4020b1a4 g     F .irom0.text	0000002d _ZN6String6concatEh
402220d4 g     F .irom0.text	00000069 espconn_kill_oldest_pcb
401009c0 g     F .text	0000002d spi_flash_write_status
40106170 g     F .text	00000017 mdns_set_name
4020e540 g     F .irom0.text	0000003e start_dig_rx
402078d8 g     F .irom0.text	00000015 system_get_cpu_freq
40002ae8 g       *ABS*	00000000 ets_bzero
4022d830 g     F .irom0.text	00000060 rsn_cipher_put_suites
4020ecc4 g     F .irom0.text	0000001c ram_get_noisefloor
4021c030 g     F .irom0.text	00000032 ieee80211_setup_ratetable
40203690 g     F .irom0.text	00000011 _Z19stream_write_stringPci
4021ebb4 g     F .irom0.text	00000088 cnx_rc_update_rssi
40225b8c g     F .irom0.text	0000000c pbuf_ref
3ffec0a9 g     O .bss	00000001 SDIO_slp_reject
4020b188 g     F .irom0.text	0000001b _ZN6String6concatEc
3ffec0aa g     O .bss	00000001 hardware_reject
40221bc8 g     F .irom0.text	00000015 espconn_regist_write_finish
402134b4 g     F .irom0.text	00000004 chip_v6_unset_chanfreq
401054ac g     F .text	00000045 Tx_Copy2Queue
40204e04 g     F .irom0.text	0000003f _Z33__grove_example_write_multi_valuePvS_
4020af30 g     F .irom0.text	0000002d _ZN6StringC1Ehh
40225820 g     F .irom0.text	0000000d netif_set_netmask
40227930 g     F .irom0.text	00000031 tcp_recv_null
3fff4278 g     O .bss	00000004 current_netif
402086f8 g     F .irom0.text	00000036 wifi_station_set_auto_connect
4021ab08 g     F .irom0.text	00000133 ieee80211_send_setup
40203bb8 g     F .irom0.text	0000002a _ZN14HardwareSerial9availableEv
40223f7c g     F .irom0.text	000000a6 igmp_leavegroup
40106724 g     F .text	00000000 .hidden __subsf3
4022f730 g     F .irom0.text	0000004c sc_system_init_done
3ffebf74 g     O .bss	00000001 periodic_cal_flag
40228210 g     F .irom0.text	000000e3 tcp_enqueue_flags
401028c0 g     F .text	0000000b GetAccess
40201638  w    F .irom0.text	00000034 digitalRead
4021756c g     F .irom0.text	0000002d rc_only_sta_trc
402050d4 g     F .irom0.text	0000003d _Z21suli_uart_write_bytesPP6StreamPhi
40202440 g     F .irom0.text	00000014 loop
40204bf4 g     F .irom0.text	00000014 _ZN12GroveExample8read_accEPfS0_S0_
3ffe8500 g     O .data	00000002 memp_sizes_test
402152a0 g     F .irom0.text	000000d9 pm_open
40201840 g     F .irom0.text	00000040 timer1_isr_handler
3ffebb7c g     O .bss	00000004 p_event_queue_head
402037fc g     F .irom0.text	00000017 _Z18response_msg_closev
4021bfc8 g     F .irom0.text	00000005 ieee80211_get_11g_ratetable
40101fa8 g     F .text	00000007 register_get_phy_addr
40204068 g     F .irom0.text	00000037 _Z17uart_set_baudrateP5uart_i
40201078  w    F .irom0.text	00000002 initVariant
402271d0 g     F .irom0.text	00000024 tcp_close
40229764 g     F .irom0.text	00000052 hostapd_get_psk
40227484 g     F .irom0.text	0000005a tcp_recved
40206310 g     F .irom0.text	000000d7 sqrtf
4021a88c g     F .irom0.text	0000027a ieee80211_output_pbuf
40214554 g     F .irom0.text	0000000d ic_set_gtk_alg
3ffe8a8c g     O .rodata	00000100 .hidden __popcount_tab
40204f2c g     F .irom0.text	0000001d _Z28grove_example_write_acc_modePP7TwoWireh
40204b8c g     F .irom0.text	0000002a _ZN12GroveExampleC1Eii
40100180 g     F .text	00000032 Cache_Read_Enable_New
40227af8 g     F .irom0.text	00000048 tcp_pcb_purge
4021ca34 g     F .irom0.text	00000022 scan_clear_channles
3ffe89a0 g     O .rodata	00000001 RSSI_BEAR
40208530 g     F .irom0.text	00000011 wifi_station_set_config
4020ef40 g     F .irom0.text	000001f9 noise_init
4021445c g     F .irom0.text	0000004f ic_enable_interface
4020966c g     F .irom0.text	00000005 system_get_sdk_version
4022a000 g     F .irom0.text	000003d2 wpa_receive
4020e4d0 g     F .irom0.text	0000006f do_noisefloor
40203c98 g     F .irom0.text	000000e7 _ZN14HardwareSerial5writeEh
402037c4 g     F .irom0.text	00000031 _Z17response_msg_openPc
402073d0 g     F .irom0.text	0000000b system_get_boot_version
402244ac g     F .irom0.text	00000014 ipaddr_ntoa
40207c74 g     F .irom0.text	00000041 wifi_softap_dhcps_stop
4022553c g     F .irom0.text	00000031 mdns_reg
40208864 g     F .irom0.text	0000002d wifi_station_get_connect_status
40221d78 g     F .irom0.text	0000002d espconn_disconnect
40214508 g     F .irom0.text	0000001c ic_is_pure_sta
402053ec g     F .irom0.text	00000036 _ZN7TwoWire15endTransmissionEh
40002d40 g       *ABS*	00000000 ets_timer_disarm
4020b7bc g     F .irom0.text	00000015 _ZNK6StringixEj
40213a00 g     F .irom0.text	00000074 pm_sdio_nidle
3ffe88e0 g     O .rodata	00000007 tcp_persist_backoff
4020f190 g     F .irom0.text	00000077 sdt_on_noise_start
40209580 g     F .irom0.text	0000003d system_os_task
3ffebd00 g     O .bss	000001e4 chip6_sleep_params
40205004 g     F .irom0.text	0000004e _Z14suli_i2c_writePP7TwoWirehPhi
40203e5c g     F .irom0.text	00000078 _Z13uart_transmitP5uart_PKcj
3fff49f8 g     O .bss	00000014 channel_timer
4020da48 g     F .irom0.text	0000002e rtc_mem_backup
40101078 g     F .text	00000013 memcpy
4022d66c g     F .irom0.text	000000e3 wpa_pmk_to_ptk
3fff4710 g     O .bss	00000004 tcp_ticks
4020da78 g     F .irom0.text	00000030 rtc_mem_recovery
3fff470c g     O .bss	00000004 tcp_listen_pcbs
4021c3c0 g     F .irom0.text	00000011 ieee80211_addbasicrates
40004400 g       *ABS*	00000000 SPI_write_status
4010437c g     F .text	0000007b ppCalTxop
4000242c g       *ABS*	00000000 ets_install_putc1
40106190 g     F .text	0000001c mdns_enable
40216168 g     F .irom0.text	0000001d pm_allow_tx
402085a4 g     F .irom0.text	000000ee wifi_station_ap_change
402041ac g     F .irom0.text	0000004b _Z11uart_uninitP5uart_
402287d4 g     F .irom0.text	00000039 tcp_rexmit_rto
3ffebcb9 g     O .bss	00000001 _ZN7TwoWire14rxBufferLengthE
40229f24 g     F .irom0.text	0000002d wpa_auth_sta_deinit
4020af30 g     F .irom0.text	0000002d _ZN6StringC2Ehh
4010577c g     F .text	000000ed wDev_AppendRxAmpduLensBlocks
40206a10 g     F .irom0.text	0000007e wdt_init
402010cc g     F .irom0.text	00000027 _Z15do_global_ctorsv
40218a4c g     F .irom0.text	00000329 hostap_input
4020dffc g     F .irom0.text	0000006e pbus_set_rxbbgain
4010738c g     F .text	00000000 .hidden __floatsidf
4022dfb0 g     F .irom0.text	00000037 wpa_attach
3ffe95d4 g       *ABS*	00000000 _rodata_end
40227abc g     F .irom0.text	00000011 tcp_new
40101d14 g     F .text	00000000 .hidden __ltdf2
40230c38 g     F .irom0.text	00000239 get_touch_data
4020af10 g     F .irom0.text	0000001f _ZN6StringC2Ec
40229228 g     F .irom0.text	00000015 udp_disconnect
40225cc0 g     F .irom0.text	00000086 pbuf_copy_partial
3ffec39d g     O .bss	00000001 dbg_stop_sw_wdt
4020a33c g     F .irom0.text	0000000f __ieee754_hypotf
4022ede8 g     F .irom0.text	0000061b sc_synch_state
40104768 g     F .text	0000005a rcUpdateRxDone
3ffebad4 g     O .bss	00000004 tx_stream_buffer
40223cc0 g     F .irom0.text	00000020 igmp_lookfor_group
4020387c g     F .irom0.text	0000000e _Zli5_MBity
40229840 g     F .irom0.text	00000043 hexstr2bin
40209e34 g     F .irom0.text	0000005c eagle_lwip_if_free
40103274 g     F .text	00000048 lmacProcessCtsTimeout
40228bac g     F .irom0.text	00000075 sys_timeout
40100fa0 g     F .text	00000017 puts
40207f7c g     F .irom0.text	0000002e system_get_checksum
402039a4 g     F .irom0.text	0000000f _ZN8EspClass13getSdkVersionEv
4020a34c g     F .irom0.text	0000000f __ieee754_logf
40100820 g     F .text	0000003a vPortFree
3ffec0a4 g     O .bss	00000001 periodic_cal_sat
401011b4 g     F .text	0000000e islower
4022009c g     F .irom0.text	000000bd dhcp_release
40205504 g     F .irom0.text	0000009d __fpclassifyd
40101270 g     F .text	0000000e tolower
40204c8c g     F .irom0.text	0000002f _Z25__grove_example_read_tempPvS_
40226070 g     F .irom0.text	00000011 raw_send
4021c73c g     F .irom0.text	00000032 scan_cancel
40234230 g     F .irom0.text	00000072 inet_chksum_pbuf
40225d48 g     F .irom0.text	00000064 pbuf_take
3ffec09e g     O .bss	00000001 tx_pwctrl_pk_num
400025e0 g       *ABS*	00000000 rtc_get_reset_reason
402184e4 g     F .irom0.text	0000006b ieee80211_crypto_decap
40100f54 g     F .text	00000019 malloc
3fff4270 g     O .bss	00000004 current_iphdr_dest
40204cec g     F .irom0.text	00000043 _Z24__grove_example_read_accPvS_
40212a48 g     F .irom0.text	00000026 ram_get_bb_atten
401072fc g     F .text	0000004c .hidden __udivsi3
40217d18 g     F .irom0.text	00000045 wDev_Crypto_Conf
40103a60 g     F .text	0000004d ppGetTxQFirstAvail_Locked
402292b4 g     F .irom0.text	000001b3 icmp_input
402139dc g     F .irom0.text	0000001f pm_prepare_to_sleep
40205188 g     F .irom0.text	00000022 _ZN7TwoWire4readEv
402313b8 g     F .irom0.text	00000395 get_magic_control_info_ht40
4020b144 g     F .irom0.text	00000015 _ZN6String6concatERKS_
40002c48 g       *ABS*	00000000 ets_timer_setfn
3ffec39c g     O .bss	00000001 idle_timer_reopen_flag
4021bb70 g     F .irom0.text	0000015d ieee80211_send_proberesp
401042e8 g     F .text	00000020 ppDiscardMPDU
4020af60 g     F .irom0.text	0000002e _ZN6StringC2Eih
4020e7a4 g     F .irom0.text	00000040 target_power_add_backoff
40004a00 g       *ABS*	00000000 SPIEraseSector
40225680 g     F .irom0.text	00000065 netif_add
4020b09c g     F .irom0.text	00000043 _ZN6StringaSEPK19__FlashStringHelper
40100a70 g     F .text	00000026 spi_flash_read
4010104c g     F .text	00000013 vsnprintf
3ffe9900 g     O .bss	00000001 status_led_output_level
401013bc g     F .text	00000000 .hidden __lesf2
402161a0 g     F .irom0.text	0000001d pm_set_addr
4021e008 g     F .irom0.text	000000bb cnx_sta_connect_cmd
3ffe95d8 g       *ABS*	00000000 _bss_start
40216030 g     F .irom0.text	00000014 pm_is_open
40101dec g     F .text	00000000 .hidden __fixunsdfsi
40224600 g     F .irom0.text	00000072 ip_router
40101f88 g     F .text	0000001d register_phy_ops
402278e4 g     F .irom0.text	0000001c tcp_segs_free
401012a8 g     F .text	00000015 cont_init
40223bf4 g     F .irom0.text	0000003c igmp_start
40218490 g     F .irom0.text	00000004 ieee80211_crypto_setkey
402096b4 g     F .irom0.text	00000025 skip_atoi
4020adec g     F .irom0.text	00000051 _ZN6String4moveERS_
40202108 g     F .irom0.text	00000039 twi_init
401046d4 g     F .text	00000094 rcUpdateTxDone
40206518 g     F .irom0.text	00000089 __fpclassifyf
3ffe95cc g       *ABS*	00000000 __XT_EXCEPTION_DESCS__
40204e44 g     F .irom0.text	00000033 _Z30__grove_example_write_acc_modePvS_
4020b774 g     F .irom0.text	00000015 _ZNK6String6charAtEj
40221c20 g     F .irom0.text	000000c9 espconn_get_connection_info
3ffebc80 g     O .bss	00000004 __dso_handle
4020afc0 g     F .irom0.text	0000002e _ZN6StringC1Elh
402019c8 g     F .irom0.text	00000093 itoa
402179e4 g     F .irom0.text	0000001b wDevForceAck6M
4020acf4 g     F .irom0.text	0000002b _ZN6String12changeBufferEj
4020f774 g     F .irom0.text	00000235 phy_dig_spur_prot
4020faa8 g     F .irom0.text	000003ff phy_bb_rx_cfg
402174dc g     F .irom0.text	0000006f rc_get_trc
402257a8 g     F .irom0.text	00000065 netif_set_ipaddr
3ffebad8 g     O .bss	00000004 rx_stream_buffer
40213430 g     F .irom0.text	0000007c dpd_mem_write
22222112 g       *ABS*	00000000 _memmap_cacheattr_wb_allvalid
4020b410 g     F .irom0.text	0000002f _ZplRK15StringSumHelperh
402039c4 g     F .irom0.text	0000000f _ZN8EspClass11getBootModeEv
402052b8 g     F .irom0.text	00000019 _ZN7TwoWire5beginEi
40221b60 g     F .irom0.text	00000028 espconn_tcp_get_max_con_allow
4021848c g     F .irom0.text	00000004 ieee80211_crypto_available
3fff4a4c g     O .bss	00000014 find_guide_timer
40219584 g     F .irom0.text	0000003f ieee80211_ht_node_init
3ffebc8c g     O .bss	00000004 _ZN7TwoWire14user_onReceiveE
4020e5b0 g     F .irom0.text	00000022 chip_v6_set_chanfreq
401011e8 g     F .text	00000038 ispunct
4022de08 g     F .irom0.text	0000001e dhcp_bind_check
3fff4a64 g     O .bss	00000004 p_mac_filt_tail
40208558 g     F .irom0.text	00000012 wifi_station_get_current_ap_id
40213994 g     F .irom0.text	00000046 pm_set_pll_xtal_wait_time
4020acb8 g     F .irom0.text	00000039 _ZN6String7reserveEj
40204e78 g     F .irom0.text	0000002f _Z33__grove_example_write_float_valuePvS_
40202e1c g     F .irom0.text	000000eb _Z13__convert_argPhPPci
40216154 g     F .irom0.text	00000012 pm_scan_unlocked
402064e4 g     F .irom0.text	00000034 finitef
4020cc50 g     F .irom0.text	00000321 ram_set_channel_freq
40202dc0 g     F .irom0.text	00000052 _Z15__find_resourcePcS_i
40002ab8 g       *ABS*	00000000 ets_strncmp
40211508 g     F .irom0.text	00000069 set_txdc_pbus
4020af90 g     F .irom0.text	0000002e _ZN6StringC2Ejh
40102198 g     F .text	00000015 lmacIsIdle
40227ed8 g     F .irom0.text	00000336 tcp_write
402197e8 g     F .irom0.text	000000d1 ieee80211_setup_htrates
402232d8 g     F .irom0.text	00000012 espconn_mdns_server_unregister
4021f528 g     F .irom0.text	00000012 ieee80211_recv_action_unregister
4021b40c g     F .irom0.text	0000004d ieee80211_getcapinfo
40100000 g       *ABS*	00000000 _text_start
4020ac5c g     F .irom0.text	0000001c _ZN6StringC1EO15StringSumHelper
402235a8 g     F .irom0.text	0000003a etharp_find_addr
402254ec g     F .irom0.text	00000045 mdns_server_register
4021b468 g     F .irom0.text	0000054e ieee80211_send_mgmt
4020a788 g     F .irom0.text	00000035 _ZN5Print7printlnEc
4010488c g     F .text	0000005b rcGetRate
402015d4  w    F .irom0.text	0000005a digitalWrite
40002ac8 g       *ABS*	00000000 ets_strlen
402064b8 g     F .irom0.text	0000002a fabsf
40104488 g     F .text	0000000b RC_GetAckRate
40201104 g     F .irom0.text	00000015 esp_yield
4020a35c g     F .irom0.text	0000000f __ieee754_log10
402142d4 g     F .irom0.text	0000001f sleep_opt_8266
40202f64 g     F .irom0.text	0000004f _Z26rpc_server_event_queue_popP7event_s
40214438 g     F .irom0.text	0000000a ic_get_addr
40229574 g     F .irom0.text	0000006b hostapd_config_defaults
40203de0 g     F .irom0.text	00000017 _Z21uart_wait_for_tx_fifoP5uart_j
402196d8 g     F .irom0.text	0000010b ieee80211_ht_updateparams
40101224 g     F .text	0000001e isspace
4021dd40 g     F .irom0.text	00000037 wifi_station_stop
402176b4 g     F .irom0.text	00000029 wDev_Reset_TBTT
4020107c  w    F .irom0.text	00000002 _Z24preloop_update_frequencyv
4021475c g     F .irom0.text	0000005c ic_set_key
4020381c g     F .irom0.text	00000018 _Zli4_kHzy
4020bb80 g     F .irom0.text	00000045 _ZN6String6removeEjj
40217aa0 g     F .irom0.text	00000054 wDev_SetRxPolicy
40100004 g     F .text	00000000 call_user_start
00000110 g       *ABS*	00000000 _memmap_cacheattr_wb_base
402272fc g     F .irom0.text	0000008a tcp_bind
3ffe8084 g     O .data	00000004 chip_version
40204fac g     F .irom0.text	00000009 _Z34grove_example_attach_event_handlerPFvPcjE
402028f0 g     F .irom0.text	0000006d _Z34main_connection_reconnect_callbackPva
402272e4 g     F .irom0.text	00000011 tcp_abort
4010589c g     F .text	00000017 wDevDisableRx
40229a0c g     F .irom0.text	0000003d ets_strdup
402162f8 g     F .irom0.text	00000041 pm_get_idle_wait_time
3ffebf77 g     O .bss	00000001 deep_sleep_en
40201304  w    F .irom0.text	000002c2 pinMode
40204d30 g     F .irom0.text	0000002f _Z32__grove_example_read_uint8_valuePvS_
4020b7d8 g     F .irom0.text	00000053 _ZNK6String8getBytesEPhjj
40107404 g     F .text	00000000 xthal_set_intclear
4020d188 g     F .irom0.text	00000074 chip_v6_set_chan
4020aa28 g     F .irom0.text	000001d3 _ZN5Print10printFloatEdh
402147b8 g     F .irom0.text	00000012 ic_remove_key
40101ee8 g     F .text	00000000 .hidden __extendsfdf2
4020e47c g     F .irom0.text	0000001a check_data_func
4000ba28 g       *ABS*	00000000 hmac_sha1
40202f08 g     F .irom0.text	00000056 _Z23rpc_server_event_reportPcj
40105d54 g     F .text	00000048 esf_rx_buf_alloc
3fff42a8 g     O .bss	00000014 mdns_timer
40221718 g     F .irom0.text	00000057 dns_gethostbyname
4021dd84 g     F .irom0.text	00000065 chm_init
40207b3c g     F .irom0.text	0000000b system_get_rtc_time
402086e4 g     F .irom0.text	00000012 wifi_station_get_auto_connect
4022e0b8 g     F .irom0.text	00000004 wpa_sm_get_beacon_ie
4021c8ac g     F .irom0.text	0000000a scan_remove_bssid
401014b8 g     F .text	00000000 .hidden __adddf3
40220f20 g     F .irom0.text	0000007f dhcps_start
40101374 g     F .text	00000000 .hidden __nesf2
40105da8 g     F .text	00000123 esf_buf_alloc
4021de94 g     F .irom0.text	00000034 chm_end_op
3ffec0a6 g     O .bss	00000002 lslp_mem_opt_8266
4022fc70 g     F .irom0.text	0000035a find_channel_csc_2
402090ec g     F .irom0.text	0000005b wifi_promiscuous_set_mac
40204a70 g     F .irom0.text	00000017 _ZN14CircularBufferD2Ev
4022d644 g     F .irom0.text	00000026 wpa_compare_rsn_ie
402140cc g     F .irom0.text	00000206 pm_wakeup_init
40219d7c g     F .irom0.text	00000031 ieee80211_add_htinfo_vendor
402038cc g     F .irom0.text	00000002 _ZN8EspClassC2Ev
40106f5c g     F .text	0000033a .hidden __umoddi3
40214068 g     F .irom0.text	00000055 pm_unmask_bt
401061ac g     F .text	0000001b mdns_disable
402050a0 g     F .irom0.text	00000033 _Z14suli_uart_initPP6Streamiij
40203f40 g     F .irom0.text	0000006d _Z21uart_interrupt_enableP5uart_
40225fd4 g     F .irom0.text	0000009a raw_sendto
3ffe9330  w    O .rodata	00000010 _ZTV5Print
3ffe8024 g     O .data	00000004 __fdlib_version
fffff22f g       *ABS*	00000000 _memmap_cacheattr_bp_strict
402297b8 g     F .irom0.text	0000001d inc_byte_array
4020a6d4 g     F .irom0.text	00000019 _ZN5Print5printERK9Printable
4010740c g     F .text	00000002 ram_tx_mac_disable
402048b8 g     F .irom0.text	00000013 _ZdlPv
401061e4 g     F .text	00000060 mdns_set_hostname
40214c0c g     F .irom0.text	00000015 pm_rf_is_closed
4020389c g     F .irom0.text	0000000e _Zli3_kBy
40213720 g     F .irom0.text	00000034 pm_usec2rtc
40101320 g     F .text	0000003f cont_run
402296dc g     F .irom0.text	00000069 hostapd_maclist_found
401047e0 g     F .text	000000a6 rcGetSched
401061cc g     F .text	00000011 mdns_get_hostname
4022965c g     F .irom0.text	0000002e hostapd_setup_wpa_psk
40201c6c g     F .irom0.text	000001eb dtostrf
40205170 g     F .irom0.text	00000011 _ZN7TwoWire9availableEv
40202a94 g     F .irom0.text	00000099 _Z12network_putsPci
4020a36c g     F .irom0.text	0000000f __ieee754_exp
3ffebcf4 g     O .bss	00000004 rxiq_compute_num
40223304 g     F .irom0.text	00000012 espconn_mdns_init
402025f0 g     F .irom0.text	00000092 _Z34main_connection_connected_callbackPv
40221bbc g     F .irom0.text	0000000c espconn_regist_sentcb
4020b71c g     F .irom0.text	0000001d _ZNK6String10startsWithERKS_
402088f4 g     F .irom0.text	0000005e wifi_softap_cacl_mac
40207d98 g     F .irom0.text	00000011 wifi_get_opmode
4021c8b8 g     F .irom0.text	00000008 scan_hidden_ssid
40222140 g     F .irom0.text	00000078 espconn_kill_pcb
402065e8 g     F .irom0.text	0000024a deal_with_ht20
4022015c g     F .irom0.text	00000036 dhcp_stop
3fff49e8 g     O .bss	00000001 gPrintFlag
40208d44 g     F .irom0.text	00000011 wifi_softap_set_config
4020f9ac g     F .irom0.text	0000004b chip_v6_rxmax_ext_dig
4022291c g     F .irom0.text	000000c8 espconn_tcp_client
402010fc g     F .irom0.text	00000003 abort
40205330 g     F .irom0.text	00000022 _ZN7TwoWire11requestFromEhhh
40002e68 g       *ABS*	00000000 ets_timer_init
40100e70 g     F .text	00000030 system_os_post
40213e84 g     F .irom0.text	00000113 pm_set_wakeup_btco
40203918 g     F .irom0.text	00000013 _ZN8EspClass7wdtFeedEv
40107384 g     F .text	00000000 .hidden __floatunsidf
402195c4 g     F .irom0.text	00000011 ieee80211_ht_node_cleanup
40204bcc g     F .irom0.text	00000014 _ZN12GroveExample16read_uint8_valueEPh
402164f0 g     F .irom0.text	0000000f pp_noise_test
4021df10 g     F .irom0.text	00000026 chm_freq2index
40225c1c g     F .irom0.text	000000a4 pbuf_copy
40100a20 g     F .text	0000004a spi_flash_write
40228810 g     F .irom0.text	000000aa tcp_rexmit
3ffe8090 g     O .data	00000002 NoiseTimerInterval
4010076c g     F .text	000000b3 pvPortMalloc
4020ba08 g     F .irom0.text	0000001d _ZN6String7replaceEcc
3ffe9904 g     O .bss	00000004 done_cb
2222211f g       *ABS*	00000000 _memmap_cacheattr_wt_trapnull
4022fc04 g     F .irom0.text	0000003c clear_init_ht20
3ffebcf0 g     O .bss	00000004 g_phyFuns
4021932c g     F .irom0.text	000000ed wifi_softap_start
402231fc g     F .irom0.text	0000001d espconn_igmp_leave
401032c0 g     F .text	0000003c lmacProcessAckTimeout
40201710  w    F .irom0.text	0000005a attachInterrupt
3ffe8098 g     O .data	00000002 sleep_start_wait_time
40101fb0 g     F .text	00000018 phy_change_channel
40223ed0 g     F .irom0.text	000000a9 igmp_joingroup
40215d4c g     F .irom0.text	000000f4 pm_attach
40101254 g     F .text	0000001c isxdigit
402044ac g     F .irom0.text	00000078 _Z16uart0_write_charc
40100030 g       .text	00000000 _KernelExceptionVector
4021ad30 g     F .irom0.text	00000002 ieee80211_tx_mgt_cb
4022d7b4 g     F .irom0.text	00000023 wpa_cipher_to_alg
3ffe87f8 g     O .rodata	00000008 ieee80211_opcap
4020a37c g     F .irom0.text	0000000f __ieee754_cosh
4010089c g     F .text	00000038 pvPortRealloc
40223c30 g     F .irom0.text	0000005d igmp_stop
40222d5c g     F .irom0.text	000000a2 espconn_tcp_server
4022ed34 g     F .irom0.text	00000085 sc_synch_touch_data
3fffccf0 g       *ABS*	00000000 Te0
4021eca8 g     F .irom0.text	00000023 cnx_rc_update_age
40225838 g     F .irom0.text	0000003a netif_set_up
4010607c g     F .text	0000002a chm_return_home_channel
4020216c g     F .irom0.text	00000063 twi_writeTo
3ffe9908 g     O .bss	0000001c rst_if
4020a8e0 g     F .irom0.text	0000000f _ZN5Print5printEii
4020a38c g     F .irom0.text	0000000f __ieee754_expf
4020c260 g     F .irom0.text	000000b3 ram_pbus_debugmode
4020ac78 g     F .irom0.text	00000014 _ZN6StringD1Ev
4020b060 g     F .irom0.text	0000003a _ZN6StringC2Edh
40000f98 g       *ABS*	00000000 ets_isr_mask
402134ac g     F .irom0.text	00000002 chip_v6_set_sense
4020a0e4 g     F .irom0.text	000000d6 strtol
3ff00000 g       *ABS*	00000000 _dport0_literal_start
40203e1c g     F .irom0.text	00000019 _Z22uart_wait_for_transmitP5uart_
402018bc g     F .irom0.text	0000002f timer1_detachInterrupt
40102df4 g     F .text	0000005c lmacProcessCollisions
40229920 g     F .irom0.text	000000e8 wpa_config_parse_string
4022f798 g     F .irom0.text	000000df smartconfig_start
3ffebf7c g     O .bss	00000001 phy_set_most_tpw_index
3ffebc95 g     O .bss	00000001 _ZN7TwoWire14txBufferLengthE
40209eb4 g     F .irom0.text	0000002d strnlen
40002f0c g       *ABS*	00000000 ets_get_cpu_frequency
4020a39c g     F .irom0.text	0000000f __ieee754_log10f
4020ae7c g     F .irom0.text	00000017 _ZN6StringC2ERKS_
3ffe88d0 g     O .rodata	00000010 tcp_pcb_lists
4010009c g       .text	00000000 _NMILevelVector
40004a4c g       *ABS*	00000000 SPIWrite
4020be5c g     F .irom0.text	0000007b _Z13strncasecmp_PPKcS0_j
402163a0 g     F .irom0.text	0000001f TxNodeNum
3ffebf79 g     O .bss	00000001 rtc_recovery_en
40221770 g     F .irom0.text	00000090 espconn_copy_partial
3ffe8009 g     O .data	00000001 timer2_ms_flag
3fff4ab8 g       *ABS*	00000000 _bss_end
4021c3d4 g     F .irom0.text	00000002 ieee80211_wme_initparams
4020235c g     F .irom0.text	0000001c _Z9print_cntPv
40209230 g     F .irom0.text	00000008 wifi_set_promiscuous_rx_cb
4020b35c g     F .irom0.text	00000031 _ZplRK15StringSumHelperRK6String
3ffe93e8  w    O .rodata	00000020 _ZTV7TwoWire
40201954 g     F .irom0.text	00000014 timer1_disable
401001b8 g     F .text	00000007 NmiTimSetFunc
40224220 g     F .irom0.text	00000041 ip4_addr_netmask_valid
3fff4700 g     O .bss	00000004 tcp_tmp_pcb
40205444 g     F .irom0.text	00000002 _ZN7TwoWire9onRequestEPFvvE
40208ddc g     F .irom0.text	0000009b wifi_softap_get_station_info
3fff3fc0 g     O .bss	00000004 plink_active
40207644 g     F .irom0.text	0000003c system_upgrade_userbin_check
40221864 g     F .irom0.text	00000022 espconn_pbuf_delete
4022de3c g     F .irom0.text	0000014b eagle_auth_done
4020906c g     F .irom0.text	0000001f wifi_set_sleep_type
4021f19c g     F .irom0.text	000000db cnx_node_leave
402225b8 g     F .irom0.text	00000040 espconn_recv_hold
40209e90 g     F .irom0.text	00000022 eagle_lwip_getif
40106150 g     F .text	00000019 mdns_close
4020a5e0 g     F .irom0.text	0000005f _ZN5Print5printEPK19__FlashStringHelper
40221800 g     F .irom0.text	00000020 espconn_list_creat
400030f0 g       *ABS*	00000000 ets_wdt_disable
4020447c g     F .irom0.text	00000030 _ZN14HardwareSerial17availableForWriteEv
40209f00 g     F .irom0.text	0000001e strrchr
3fff3242 g     O .bss	00000002 scannum
4021e320 g     F .irom0.text	00000068 cnx_connect_timeout
40207368 g     F .irom0.text	00000044 system_restore
4021f53c g     F .irom0.text	0000005d ieee80211_recv_action
40100b70 g     F .text	000000ca system_restart_local
40201af0 g     F .irom0.text	00000085 utoa
40214d38 g     F .irom0.text	00000012 pm_get_sleep_type
40101da4 g     F .text	00000000 .hidden __fixdfsi
40229da8 g     F .irom0.text	00000074 wpa_init
3fff3184 g     O .bss	00000001 TmpSTAAPCloseAP
3ffebcfc g     O .bss	00000004 check_result
4020a96c g     F .irom0.text	00000013 _ZN5Print5printEhi
401012e8 g     F .text	0000002e cont_yield
3fff4ab8 g       *ABS*	00000000 _heap_start
40004b1c g       *ABS*	00000000 SPIRead
40222014 g     F .irom0.text	0000001c espconn_gethostbyname
4020d758 g     F .irom0.text	0000016d phy_get_check_flag
3ffebf7a g     O .bss	00000001 phy_in_vdd33_offset
4020529c g     F .irom0.text	00000019 _ZN7TwoWire5beginEh
4022e5c0 g     F .irom0.text	0000002d aes_encrypt_init
40213620 g     F .irom0.text	000000a8 slop_test
40207820 g     F .irom0.text	0000001c system_deep_sleep_set_option
4021bfd4 g     F .irom0.text	00000018 ieee80211_get_ratetable
402072d8 g     F .irom0.text	00000017 system_adc_read
40104494 g     F .text	0000000b RC_GetRtsRate
40227cec g     F .irom0.text	0000004b tcp_send_fin
4020a1d0 g     F .irom0.text	00000123 strtod
40202a58 g     F .irom0.text	00000035 _Z20user_devicefind_initv
40212a78 g     F .irom0.text	000001be ram_rfcal_txcap
40207864 g     F .irom0.text	00000012 system_phy_set_rfoption
40228388 g     F .irom0.text	000002ff tcp_output
402075fc g     F .irom0.text	00000045 system_upgrade_userbin_set
4020ad24 g     F .irom0.text	00000048 _ZN6String4copyEPKcj
4020452c g     F .irom0.text	00000075 _Z16uart1_write_charc
40231c84 g     F .irom0.text	000001e2 sequ_data_combination
40205438 g     F .irom0.text	00000002 _ZN7TwoWire16onReceiveServiceEPhi
4020b860 g     F .irom0.text	00000014 _ZNK6String7indexOfEc
40001da0 g       *ABS*	00000000 ets_write_char
4022ddb4 g     F .irom0.text	0000003e wpa_config_bss
4022d0ec g     F .irom0.text	00000088 eapol_txcb
3ffebc84 g     O .bss	00000004 event1
4020a3ac g     F .irom0.text	0000000f __ieee754_atan2
22222222 g       *ABS*	00000000 _memmap_cacheattr_bp_allvalid
40102e5c g     F .text	00000077 lmacProcessCollision
4022fa94 g     F .irom0.text	0000006c smartconfig_answer
40201990 g     F .irom0.text	00000014 atof
4010139c g     F .text	00000000 .hidden __gtsf2
40217bcc g     F .irom0.text	0000002a wDev_ClearBssid
3ffe8000 g       .data	00000000 _Pri_3_HandlerAddress
4020b264 g     F .irom0.text	0000002f _ZN6String6concatEm
4022968c g     F .irom0.text	00000050 hostapd_wep_key_cmp
402022e0 g     F .irom0.text	00000014 user_rf_pre_init
3ffe8060 g     O .data	00000020 rx_gain_swp
3ffec37c g     O .bss	00000001 pend_flag_noise_check
4021802c g     F .irom0.text	0000011a esf_buf_setup
22222112 g       *ABS*	00000000 _memmap_cacheattr_wt_allvalid
3fff46f4 g     O .bss	00000004 tcp_input_pcb
40222e8c g     F .irom0.text	0000001c espconn_init
3ffec0e4 g     O .bss	00000020 lmacConfMib
4022ffdc g     F .irom0.text	00000203 get_magic_control_info
40225f24 g     F .irom0.text	00000088 raw_input
402198bc g     F .irom0.text	00000080 ieee80211_setup_basic_htrates
40210710 g     F .irom0.text	00000053 periodic_cal_top
40101c8c g     F .text	00000000 .hidden __ledf2
3ffe95cc g       *ABS*	00000000 __XT_EXCEPTION_DESCS_END__
402282f4 g     F .irom0.text	00000089 tcp_send_empty_ack
40203c34 g     F .irom0.text	0000005f _ZN14HardwareSerial5flushEv
402189b8 g     F .irom0.text	00000089 hostap_handle_timer
40209bb8 g     F .irom0.text	00000026 ets_sprintf
4021be78 g     F .irom0.text	0000014b ieee80211_beacon_alloc
40221234 g     F .irom0.text	0000002a dns_setserver
40209f74 g     F .irom0.text	00000026 strcat
3fff3698 g     O .bss	00000014 sta_con_timer
402288bc g     F .irom0.text	00000057 tcp_rexmit_fast
4020ac78 g     F .irom0.text	00000014 _ZN6StringD2Ev
40204b8c g     F .irom0.text	0000002a _ZN12GroveExampleC2Eii
40208ae4 g     F .irom0.text	00000011 wifi_softap_get_config
40205424 g     F .irom0.text	00000011 _ZN7TwoWire15endTransmissionEv
4021b9d0 g     F .irom0.text	0000019f ieee80211_alloc_proberesp
40225594 g     F .irom0.text	000000e1 mdns_init
40107348 g     F .text	00000039 .hidden __umodsi3
401036d8 g     F .text	00000058 ppRecycleRxPkt
4021dccc g     F .irom0.text	00000071 wifi_station_start
402343d8 g     F .irom0.text	00000004 eloop_register_timeout
40103730 g     F .text	000000d3 ppCheckTxIdle
402072c4 g     F .irom0.text	00000012 system_pp_recycle_rx_pkt
4020bd44 g     F .irom0.text	00000026 _Z8memcpy_PPvPKvj
40224280 g     F .irom0.text	00000226 ipaddr_aton
4022d790 g     F .irom0.text	00000024 wpa_cipher_key_len
40209b94 g     F .irom0.text	00000021 ets_vsprintf
40106b4c g     F .text	00000021 .hidden __popcountsi2
40217eec g     F .irom0.text	00000049 wdev_set_sniffer_addr
4020ed6c g     F .irom0.text	00000041 ram_start_noisefloor
402241f4 g     F .irom0.text	0000002b ip4_addr_isbroadcast
3fff4a16 g     O .bss	00000001 sc_sent_times
3fff4294 g     O .bss	00000004 PUCK_SERVICE
40204fb8 g     F .irom0.text	0000001b _Z32_grove_example_internal_functionPP7TwoWiref
40210a10 g     F .irom0.text	000000ec change_bbpll160_sleep
3ff00000 g       *ABS*	00000000 _dport0_rodata_start
40205f24 g     F .irom0.text	000000d7 hypotf
402081d4 g     F .irom0.text	00000011 wifi_station_get_config
3ff00000 g       *ABS*	00000000 _dport0_data_start
3fff429c g     O .bss	00000002 PUCK_PORT
4020e49c g     F .irom0.text	00000034 do_noisefloor_lsleep_v50
40225830 g     F .irom0.text	00000007 netif_set_default
40229240 g     F .irom0.text	00000006 udp_recv
40105618 g     F .text	0000015d wDev_AppendRxBlocks
4020176c  w    F .irom0.text	00000050 detachInterrupt
40221e98 g     F .irom0.text	0000005e espconn_clear_opt
40230e80 g     F .irom0.text	00000058 init_listen_phy
40216078 g     F .irom0.text	00000011 pm_try_scan_unlock
40213038 g     F .irom0.text	000001a4 ram_rxiq_cover_mg_mp
4021e0c4 g     F .irom0.text	000000d9 cnx_sta_scan_cmd
40219fa8 g     F .irom0.text	0000004a ieee80211_deliver_data
401032fc g     F .text	00000008 lmacProcessRtsStart
4020a740 g     F .irom0.text	00000045 _ZN5Print7printlnEPKc
40202384 g     F .irom0.text	00000030 _Z5task1P11ETSEventTag
40208698 g     F .irom0.text	00000045 wifi_station_scan
40235194 g       *ABS*	00000000 _irom0_text_end
40217cd8 g     F .irom0.text	0000003c wDev_remove_KeyEntry
40000e04 g       *ABS*	00000000 ets_run
3ffe800b g     O .data	00000001 dhcpc_flag
40102788 g     F .text	000000ce lmacProcessTxSuccess
402131dc g     F .irom0.text	0000020b ram_rfcal_rxiq
40213948 g     F .irom0.text	0000003f pm_sleep_opt_bb_on
4022e6e8 g     F .irom0.text	00000018 system_upgrade
402176ac g     F .irom0.text	00000007 wDev_Set_Beacon_Int
4020c140 g     F .irom0.text	00000016 phy_disable_agc
40225874 g     F .irom0.text	00000024 netif_set_down
402021d0 g     F .irom0.text	000000f7 twi_readFrom
4020aff0 g     F .irom0.text	0000002e _ZN6StringC2Emh
40204204 g     F .irom0.text	000000a7 _Z9uart_swapP5uart_
402258f8 g     F .irom0.text	0000014d pbuf_alloc
40206108 g     F .irom0.text	00000113 log10f
40225898 g     F .irom0.text	00000049 netif_set_link_up
4020c8ec g     F .irom0.text	00000160 ram_ana_inf_gating_en
3ffebb84 g     O .bss	00000004 p_first_resource
3ffebc58 g     O .bss	00000024 Serial
4021941c g     F .irom0.text	00000106 wifi_softap_stop
4021b1c4 g     F .irom0.text	00000039 ieee80211_add_xrates
4020d48c g     F .irom0.text	0000004c low_power_set
4020b548 g     F .irom0.text	0000002b _ZplRK15StringSumHelperPK19__FlashStringHelper
40203984 g     F .irom0.text	0000000f _ZN8EspClass11getFreeHeapEv
402011a8 g     F .irom0.text	00000026 micros_overflow_tick
4020cf88 g     F .irom0.text	000001c1 chip_60_set_channel
3fff4a10 g     O .bss	00000004 router_list
40210d28 g     F .irom0.text	00000029 deep_sleep_set_option
4022e1a4 g     F .irom0.text	00000417 rijndaelEncrypt
4020ae40 g     F .irom0.text	00000039 _ZN6StringaSERKS_
4022b87c g     F .irom0.text	00000106 wpa_write_rsn_ie
3ffe9300  w    O .rodata	00000020 _ZTV14HardwareSerial
402052e8 g     F .irom0.text	00000046 _ZN7TwoWire11requestFromEhjb
4021f0bc g     F .irom0.text	00000078 cnx_node_remove
402169bc g     F .irom0.text	00000032 ppRegisterTxCallback
40105fb4 g     F .text	0000002d scan_pm_channel_op_cb
40206f70 g     F .irom0.text	00000098 overlap_hspi_deinit
40210da4 g     F .irom0.text	000002bd register_chipv6_phy
40221d34 g     F .irom0.text	00000044 espconn_regist_time
3ffec0c0 g     O .bss	00000020 if_ctrl
4020ca4c g     F .irom0.text	00000067 ram_restart_cal
4020c110 g     F .irom0.text	00000016 phy_delete_channel
4020c170 g     F .irom0.text	00000016 phy_set_sense
3ffe88a0 g     O .rodata	00000004 ip_addr_broadcast
3fff3185 g     O .bss	00000001 PendFreeBcnEb
4021732c g     F .irom0.text	000000c5 rc_enable_trc
40211884 g     F .irom0.text	00000149 tx_pwr_backoff
4020304c g     F .irom0.text	000005c2 _Z15rpc_server_loopv
4021c2fc g     F .irom0.text	00000015 ieee80211_set_shortslottime
402144ac g     F .irom0.text	00000011 ic_interface_enabled
3ffe88b0 g     O .rodata	00000014 memp_sizes
4020a68c g     F .irom0.text	00000017 _ZN5Print5printEc
4021ec3c g     F .irom0.text	0000006c cnx_rc_update_state_metric
40107498 g     F .text	00000018 .hidden __ashrdi3
4022980c g     F .irom0.text	00000033 hex2byte
402072f0 g     F .irom0.text	00000015 system_get_vdd33
4020c540 g     F .irom0.text	00000025 ram_chip_v6_rx_init
40229a64 g     F .irom0.text	0000000f os_random
402052d4 g     F .irom0.text	00000014 _ZN7TwoWire8setClockEj
40204948 g     F .irom0.text	00000103 _Z29rpc_server_register_resourcesv
4021d47c g     F .irom0.text	00000245 sta_input
4022321c g     F .irom0.text	0000001d espconn_igmp_join
402305c4 g     F .irom0.text	00000665 get_sequ_data
402291cc g     F .irom0.text	0000005a udp_connect
402232b0 g     F .irom0.text	00000012 espconn_mdns_get_servername
4021dee0 g     F .irom0.text	00000030 chm_set_current_channel
40000f74 g       *ABS*	00000000 ets_intr_lock
40211354 g     F .irom0.text	00000014 phy_get_rand
3fff427c g     O .bss	00000004 current_header
4020ac40 g     F .irom0.text	0000001c _ZN6StringC2EOS_
40205440 g     F .irom0.text	00000002 _ZN7TwoWire9onReceiveEPFviE
402038cc g     F .irom0.text	00000002 _ZN8EspClassC1Ev
4021730c g     F .irom0.text	00000016 trc_onScanDone
402148d4 g     F .irom0.text	0000001c lmacSetRetryLimit
4020c158 g     F .irom0.text	00000016 phy_initialize_bb
40204320 g     F .irom0.text	0000009d _ZN14HardwareSerial5beginEmh
4020c18c g     F .irom0.text	000000c6 ram_pbus_set_rxgain
3fff4a68 g     O .bss	00000004 p_kiss
4020783c g     F .irom0.text	00000012 system_phy_set_max_tpw
40214544 g     F .irom0.text	0000000d ic_set_ptk_alg
40002ad8 g       *ABS*	00000000 ets_strstr
402256e8 g     F .irom0.text	00000027 netif_set_addr
4021fc04 g     F .irom0.text	00000022 dhcp_arp_reply
40104ca0 g     F .text	00000015 rcReachRetryLimit
40225ed0 g     F .irom0.text	0000004a pbuf_strstr
40101118 g     F .text	00000013 strstr
40207c24 g     F .irom0.text	00000005 system_get_rst_info
3ffe8000 g       *ABS*	00000000 _data_start
40100ea4 g     F .text	00000056 system_rtc_mem_write
40002ecc g       *ABS*	00000000 ets_delay_us
40205d04 g     F .irom0.text	000000d3 coshf
40000dd0 g       *ABS*	00000000 ets_task
4021c12c g     F .irom0.text	00000002 ieee80211_psq_cleanup
402043c0 g     F .irom0.text	0000005d _ZN14HardwareSerial3endEv
40203df8 g     F .irom0.text	00000023 _Z21uart_get_tx_fifo_roomP5uart_
40207968 g     F .irom0.text	0000000e system_relative_time
4022cdec g     F .irom0.text	0000002b wpa_register
402163e8 g     F .irom0.text	00000105 pp_enable_noise_timer
402048e0 g     F .irom0.text	00000008 __cxa_pure_virtual
40000f80 g       *ABS*	00000000 ets_intr_unlock
4021c3d8 g     F .irom0.text	00000002 ieee80211_wme_updateparams
40208fbc g     F .irom0.text	00000008 wifi_get_phy_mode
3fff3fd0 g     O .bss	000000b4 premot
3ffec0b0 g     O .bss	00000001 interface_mask
40105528 g     F .text	00000017 wDev_ClearTxqCollisions
402017cc g     F .irom0.text	00000064 initPins
40228994 g     F .irom0.text	000000fc tcp_zero_window_probe
4021a730 g     F .irom0.text	000000fc ieee80211_parse_rsn
40204ed0 g     F .irom0.text	00000009 _Z27grove_example_read_humidityPP7TwoWirePf
402055a4 g     F .irom0.text	00000027 atan2
40201134 g     F .irom0.text	00000021 __yield
40221260 g     F .irom0.text	00000013 dns_getserver
4020c618 g     F .irom0.text	00000187 readvdd33
4021637c g     F .irom0.text	00000023 RxNodeNum
40207cb8 g     F .irom0.text	00000008 wifi_softap_dhcps_status
401074b8 g     F .text	00000000 .hidden __floatsisf
4020c56c g     F .irom0.text	000000a8 tsen_meas
4021f7f4 g     F .irom0.text	0000003b dhcp_fine_tmr
3fff36b0 g     O .bss	0000000a dhcp_rx_options_given
40216370 g     F .irom0.text	00000002 pp_soft_wdt_stop
3ffe84d0 g     O .data	00000006 ieee80211_addr_bcast
402173f4 g     F .irom0.text	00000008 rc_get_mask
4021159c g     F .irom0.text	00000106 correct_rf_ana_gain
40207dac g     F .irom0.text	00000011 wifi_get_opmode_default
4020aeb0 g     F .irom0.text	0000001b _ZN6StringaSEO15StringSumHelper
402039d4 g     F .irom0.text	0000000f _ZN8EspClass13getCpuFreqMHzEv
4020ae94 g     F .irom0.text	0000001b _ZN6StringaSEOS_
3ffebf5c g     O .bss	00000001 txbk_dpdby_flag
40101244 g     F .text	0000000e isupper
401010e8 g     F .text	00000013 strncmp
40232234 g     F .irom0.text	00000554 get_touch_prefix_code_ht40
40221008 g     F .irom0.text	000000ce wifi_softap_set_dhcps_lease
4020b0e0 g     F .irom0.text	00000017 _ZN6StringC1EPK19__FlashStringHelper
4020b390 g     F .irom0.text	00000048 _ZplRK15StringSumHelperPKc
402045b0 g     F .irom0.text	00000037 _ZN14HardwareSerial16_rx_complete_irqEc
40203950 g     F .irom0.text	00000013 _ZN8EspClass5resetEv
2222211f g       *ABS*	00000000 _memmap_cacheattr_wba_trapnull
40209834 g     F .irom0.text	00000360 ets_vsnprintf
4022f4d4 g     F .irom0.text	00000099 sc_PackCallback
402244c0 g     F .irom0.text	000000c4 ipaddr_ntoa_r
3ffebc96 g     O .bss	00000001 _ZN7TwoWire13txBufferIndexE
3ffe9928 g     O .bss	00000004 promiscuous_cb
40105118 g     F .text	00000329 wDev_ProcessFiq
4022ba74 g     F .irom0.text	00000126 wpa_validate_wpa_ie
40223d78 g     F .irom0.text	00000156 igmp_input
402018a0 g     F .irom0.text	0000001b timer1_attachInterrupt
401060b8 g     F .text	00000019 dns_tmr
40002aa8 g       *ABS*	00000000 ets_strcmp
40101100 g     F .text	00000013 strncpy
40205b04 g     F .irom0.text	00000102 sinh
3fff4708 g     O .bss	00000004 tcp_bound_pcbs
40101374 g     F .text	00000000 .hidden __eqsf2
4021e7dc g     F .irom0.text	000000af cnx_bss_alloc
4020a064 g     F .irom0.text	00000034 strcasecmp
40215d0c g     F .irom0.text	00000016 pm_enable_gpio_wakeup
3fff2c14 g     O .bss	00000558 g_ic
40213de4 g     F .irom0.text	000000a0 pm_set_sleep_btco
40227900 g     F .irom0.text	00000026 tcp_seg_free
402059e0 g     F .irom0.text	00000121 log10
4022e788 g     F .irom0.text	0000001e system_upgrade_deinit
402078f0 g     F .irom0.text	00000029 system_overclock
40225e08 g     F .irom0.text	00000072 pbuf_memcmp
40218300 g     F .irom0.text	00000028 ieee80211_find_channel_byieee
40216344 g     F .irom0.text	0000002c pp_soft_wdt_init
402022c8 g     F .irom0.text	00000015 _Z9init_donev
4022ce28 g     F .irom0.text	00000020 wpa_set_pmk
4020e7f0 g     F .irom0.text	00000159 tx_pwctrl_init_cal
402295e0 g     F .irom0.text	00000014 hostapd_mac_comp
40213f98 g     F .irom0.text	000000c0 pm_set_sleep_mode
4020b4c4 g     F .irom0.text	0000002b _ZplRK15StringSumHelperm
4020a980 g     F .irom0.text	0000002e _ZN5Print7printlnEhi
40208544 g     F .irom0.text	00000011 wifi_station_set_config_current
fffff11f g       *ABS*	00000000 _memmap_cacheattr_wb_strict
4020b73c g     F .irom0.text	00000038 _ZNK6String8endsWithERKS_
40221cec g     F .irom0.text	00000047 espconn_accept
40213cf0 g     F .irom0.text	00000093 pm_set_wakeup_mac
401025c8 g     F .text	00000094 lmacProcessTXStartData
3fff4a6c g     O .bss	00000014 restart_ht20_sniffer
40100f80 g     F .text	00000019 realloc
4020ac5c g     F .irom0.text	0000001c _ZN6StringC2EO15StringSumHelper
40211308 g     F .irom0.text	00000015 phy_vdd33_set_tpw
402039b4 g     F .irom0.text	0000000f _ZN8EspClass14getBootVersionEv
40218228 g     F .irom0.text	00000057 ieee80211_mhz2ieee
40213aa4 g     F .irom0.text	0000014b pm_goto_sleep
40204008 g     F .irom0.text	0000002b _Z21uart_arm_tx_interruptP5uart_
40000454 g       *ABS*	00000000 _xtos_set_exception_handler
4010586c g     F .text	0000002d wDev_GetBAInfo
4021c8c0 g     F .irom0.text	0000003d scan_add_probe_ssid
4021c2d4 g     F .irom0.text	00000027 ieee80211_proto_attach
4021a108 g     F .irom0.text	0000006a ieee80211_setup_rates
4020b15c g     F .irom0.text	0000002a _ZN6String6concatEPKc
402175a4 g     F .irom0.text	000000c9 wDev_Option_Init
3ffeba04 g     O .bss	00000004 i2c
402274e0 g     F .irom0.text	00000108 tcp_connect
402094f4 g     F .irom0.text	0000003e wifi_status_led_install
40234134 g     F .irom0.text	000000e3 inet_chksum_pseudo_partial
4020ac8c g     F .irom0.text	00000025 _ZN6String10invalidateEv
40221bfc g     F .irom0.text	0000000e espconn_regist_reconcb
400018d4 g       *ABS*	00000000 ets_memcmp
40001b40 g       *ABS*	00000000 mem_malloc
40209558 g     F .irom0.text	00000011 wifi_set_status_led_output_level
4021c900 g     F .irom0.text	00000018 scan_remove_probe_ssid
4021f448 g     F .irom0.text	00000030 ieee80211_send_action_register
40213c28 g     F .irom0.text	00000034 pm_open_rf
40217690 g     F .irom0.text	00000017 wDev_Disable_Beacon_Tsf
4020b924 g     F .irom0.text	00000065 _ZNK6String11lastIndexOfERKS_j
40205370 g     F .irom0.text	00000017 _ZN7TwoWire11requestFromEii
3ffe8014 g     O .data	00000004 device_find_request
4020d4f0 g     F .irom0.text	00000243 test_tout
4020a048 g     F .irom0.text	0000001b strtok
402148f8 g     F .irom0.text	00000035 pm_rtc_clock_cali_proc
4020db60 g     F .irom0.text	0000034f set_rx_gain_cal_iq
401035fc g     F .text	00000016 lmacRxDone
40101064 g     F .text	00000013 memcmp
40221b38 g     F .irom0.text	0000000e espconn_tcp_get_max_con
40105fe8 g     F .text	00000043 chm_acquire_lock
402176e0 g     F .irom0.text	00000034 wDev_Get_Next_TBTT
40209c9c g     F .irom0.text	00000196 eagle_lwip_if_alloc
4020ad6c g     F .irom0.text	00000031 _ZN6StringC1EPKc
40214f28 g     F .irom0.text	00000002 pm_suspend
4020700c g     F .irom0.text	000000d5 overlap_hspi_read_data
3ffec09c g     O .bss	00000002 loop_pwctrl_pwdet_error_accum_high_power
4022d478 g     F .irom0.text	00000183 wpa_parse_wpa_ie_wpa
3ffe97dc g     O .bss	00000001 user_init_flag
40219d60 g     F .irom0.text	0000001b ieee80211_add_htinfo
3ffe8630 g       *ABS*	00000000 _data_end
402258e4 g     F .irom0.text	00000011 netif_set_link_down
4020bfa0 g     F .irom0.text	000000bd _Z11vsnprintf_PPcjPKc13__va_list_tag
40207698 g     F .irom0.text	00000008 system_upgrade_flag_check
4021fe9c g     F .irom0.text	0000009a dhcp_renew
40229e5c g     F .irom0.text	0000007a wpa_auth_sta_associated
402195fc g     F .irom0.text	00000036 ieee80211_parse_htcap
402012ac g     F .irom0.text	00000035 init
40101150 g     F .text	00000014 isalpha
4020d280 g     F .irom0.text	00000207 chip_v6_rf_init
4022188c g     F .irom0.text	00000078 espconn_find_connection
40101b14 g     F .text	00000000 .hidden __divdf3
4021a174 g     F .irom0.text	00000026 ieee80211_alloc_challenge
40209f20 g     F .irom0.text	00000053 strncat
40217a00 g     F .irom0.text	00000095 wDev_SetMacAddress
4020b574 g     F .irom0.text	0000003f _ZNK6String9compareToERKS_
3ffe9564 g       *ABS*	00000000 __XT_EXCEPTION_TABLE__
40227bb8 g     F .irom0.text	00000033 tcp_eff_send_mss
401054f4 g     F .text	00000023 wDev_ProcessCollision
40220fa0 g     F .irom0.text	00000066 dhcps_stop
4020b46c g     F .irom0.text	0000002b _ZplRK15StringSumHelperj
40202144 g     F .irom0.text	00000025 twi_stop
40208964 g     F .irom0.text	00000052 wifi_softap_set_default_ssid
4021eccc g     F .irom0.text	00000030 cnx_update_bss
4021754c g     F .irom0.text	00000020 rc_get_trc_by_index
40214700 g     F .irom0.text	0000005a ic_bss_info_update
40216c9c g     F .irom0.text	000000f1 pp_attach
40222538 g     F .irom0.text	0000001e espconn_tcp_disconnect
402225fc g     F .irom0.text	00000055 espconn_recv_unhold
40101870 g     F .text	00000000 .hidden __muldf3
40002c64 g       *ABS*	00000000 timer_insert
40214524 g     F .irom0.text	0000000d ic_get_ptk_alg
3ffe98f7 g     O .bss	00000001 deep_sleep_flag
40204c08 g     F .irom0.text	00000014 _ZN12GroveExample12read_compassEPfS0_S0_Pi
3fff40d0 g     O .bss	00000078 espconn_TaskQueue
400060ec g     F *ABS*	00000000 rom_chip_v5_enable_cca
4022e8a4 g     F .irom0.text	00000054 system_upgrade_erase_flash
3ffec354 g     O .bss	00000014 SoftWdtTimer
4022fa2c g     F .irom0.text	00000059 smartconfig_udp_send_cb
40207850 g     F .irom0.text	00000012 system_phy_set_tpw_via_vdd33
40228d28 g     F .irom0.text	0000000f sys_restart_timeouts
40221fd4 g     F .irom0.text	0000003d espconn_delete
4020176c g     F .irom0.text	00000050 __detachInterrupt
4020a098 g     F .irom0.text	00000043 strdup
4021fb14 g     F .irom0.text	000000a8 dhcp_inform
4021cabc g     F .irom0.text	00000012 cannel_scan_connect_state
40204db0 g     F .irom0.text	0000004f _Z29__grove_example_read_with_argPvS_
402038d4 g     F .irom0.text	00000013 _ZN8EspClass9wdtEnableEj
40103448 g     F .text	0000013d lmacTxFrame
4021d1b4 g     F .irom0.text	000002c8 ieee80211_sta_new_state
4020bd94 g     F .irom0.text	00000045 _Z9strncat_PPcPKcj
4020b5dc g     F .irom0.text	00000047 _ZNK6String6equalsEPKc
40225fbc g     F .irom0.text	0000000f raw_connect
40208eac g     F .irom0.text	0000004e wifi_softap_get_station_num
40222480 g     F .irom0.text	000000b5 espconn_tcp_sent
4022e0c0 g     F .irom0.text	000000df aes_wrap
4020963c g     F .irom0.text	00000029 system_uart_de_swap
40218488 g     F .irom0.text	00000002 ieee80211_crypto_attach
4021b260 g     F .irom0.text	000001ab ieee80211_send_probereq
40211574 g     F .irom0.text	00000028 get_rf_gain_qdb
40210b38 g     F .irom0.text	00000053 set_crystal_uart
4022f980 g     F .irom0.text	000000ac smartconfig_to_weixin_platform
4020f214 g     F .irom0.text	00000188 chip_v6_set_chan_rx_cmp
3ffeb9f0 g     O .bss	00000014 t1
402038bc g     F .irom0.text	0000000e _Zli3_GBy
4021262c g     F .irom0.text	0000006b tx_pwctrl_bg_init
40211064 g     F .irom0.text	00000052 set_dpd_bypass
40210404 g     F .irom0.text	00000159 chip_v6_initialize_bb
40009300 g       *ABS*	00000000 rijndaelKeySetupEnc
40204d60 g     F .irom0.text	0000004f _Z28__grove_example_read_compassPvS_
fffff11f g       *ABS*	00000000 _memmap_cacheattr_wt_strict
40204c48 g     F .irom0.text	00000014 _ZN12GroveExample17write_float_valueEf
40214930 g     F .irom0.text	00000019 pm_set_sleep_time
40212294 g     F .irom0.text	00000048 get_pwctrl_correct
4020b300 g     F .irom0.text	00000059 _ZN6String6concatEPK19__FlashStringHelper
4010108c g     F .text	00000013 memset
402074c8 g     F .irom0.text	0000001a system_get_boot_mode
4020d8c8 g     F .irom0.text	0000017c phy_get_vdd33
4020a3bc g     F .irom0.text	0000000f __ieee754_sqrtf
40229748 g     F .irom0.text	00000019 hostapd_rate_found
4021f284 g     F .irom0.text	000001b3 cnx_node_join
4021146c g     F .irom0.text	00000099 set_rfanagain_dc_reg
402138c8 g     F .irom0.text	00000039 get_chip_version
3ffe8968 g     O .rodata	00000007 SC_VERSION
4022b984 g     F .irom0.text	00000082 wpa_auth_gen_wpa_ie
402169f0 g     F .irom0.text	00000014 pp_tx_idle_timeout
4022df88 g     F .irom0.text	0000000f wpa_neg_complete
40215158 g     F .irom0.text	000000f3 pm_shutdown
40207f68 g     F .irom0.text	00000011 wifi_set_opmode_current
40213764 g     F .irom0.text	00000023 pm_set_sleep_cycles
40000e24 g       *ABS*	00000000 ets_post
40100e38 g     F .text	00000014 system_phy_temperature_alert
402188f4 g     F .irom0.text	00000082 ieee80211_hostap_attach
402182a0 g     F .irom0.text	00000035 ieee80211_ieee2mhz
40103af0 g     F .text	00000026 ppDequeueTxQ
4020b8b8 g     F .irom0.text	00000052 _ZNK6String11lastIndexOfEcj
40101428 g     F .text	00000000 .hidden __ltsf2
40221be0 g     F .irom0.text	0000000e espconn_regist_connectcb
4020c380 g     F .irom0.text	0000006d set_rf_freq_offset
40229468 g     F .irom0.text	00000014 icmp_dest_unreach
3ff00000 g       *ABS*	00000000 _dport0_rodata_end
40100010 g       .text	00000000 _DebugExceptionVector
4020daa8 g     F .irom0.text	000000a3 set_cal_rxdc
40106144 g     F .text	00000007 getPcb
402048f0 g     F .irom0.text	00000008 _ZSt25__throw_bad_function_callv
4020b0f8 g     F .irom0.text	00000049 _ZN6String6concatEPKcj
40227adc g     F .irom0.text	00000005 tcp_sent
4020bbc8 g     F .irom0.text	00000011 _ZN6String6removeEj
40217c04 g     F .irom0.text	000000d0 wDev_Insert_KeyEntry
40002f04 g       *ABS*	00000000 ets_update_cpu_frequency
402048cc g     F .irom0.text	00000013 _ZdaPv
40225de0 g     F .irom0.text	00000025 pbuf_get_at
40206458 g     F .irom0.text	00000035 matherr
40100020 g       .text	000000c7 _NMIExceptionVector
401060a8 g     F .text	00000007 chm_get_current_channel
40101e48 g     F .text	00000000 .hidden __truncdfsf2
4021f134 g     F .irom0.text	0000005e cnx_node_search
402039e8 g     F .irom0.text	00000013 _ZN8EspClass14getFlashChipIdEv
3ffe95cc g       *ABS*	00000000 __init_array_end
4020233c g     F .irom0.text	00000018 _Z13pre_user_loopv
40103b70 g     F .text	00000034 ppEnqueueTxDone
402260b8 g     F .irom0.text	00000043 raw_new
40100888 g     F .text	00000013 pvPortZalloc
4020bcb8 g     F .irom0.text	0000001b _ZNK6String5toIntEv
4020b51c g     F .irom0.text	0000002b _ZplRK15StringSumHelperd
4020a9b0 g     F .irom0.text	0000000f _ZN5Print5printEji
40103648 g     F .text	00000079 pp_soft_wdt_feed
40209678 g     F .irom0.text	0000003c divide
3ffebadc g     O .bss	00000001 main_conn_status
402207bc g     F .irom0.text	0000001c node_insert_to_list
4020bbdc g     F .irom0.text	0000002b _ZN6String11toLowerCaseEv
40101194 g     F .text	0000001e isgraph
3ffebf76 g     O .bss	00000001 phy_in_most_power
40204470 g     F .irom0.text	0000000a _ZN14HardwareSerial11isRxEnabledEv
4020a65c g     F .irom0.text	0000002e _ZN5Print5printEPKc
4020914c g     F .irom0.text	000000e3 wifi_promiscuous_enable
402053cc g     F .irom0.text	0000001e _ZN7TwoWire17beginTransmissionEi
40211160 g     F .irom0.text	000000af get_phy_target_power
40213bf0 g     F .irom0.text	00000038 pm_wait4wakeup
40204f14 g     F .irom0.text	00000015 _Z27grove_example_read_with_argPP7TwoWirePfS2_S2_Pii
4021a618 g     F .irom0.text	00000116 ieee80211_parse_wpa
40201274 g     F .irom0.text	00000013 micros
4010112c g     F .text	00000022 isalnum
402102e8 g     F .irom0.text	000000a1 tx_cont_en
4020794c g     F .irom0.text	00000015 system_timer_reinit
4020b8a4 g     F .irom0.text	00000011 _ZNK6String7indexOfERKS_
40223288 g     F .irom0.text	00000012 espconn_mdns_get_hostname
40217dec g     F .irom0.text	00000017 wDevEnableRx
401011c4 g     F .text	00000022 isprint
40207988 g     F .irom0.text	000000de system_station_got_ip_set
402056a4 g     F .irom0.text	00000146 exp
402161c0 g     F .irom0.text	0000002c pm_sleep_for
3ffe8032 g     O .data	00000002 tx_rf_ana_gain
4021c10c g     F .irom0.text	00000020 ieee80211_psq_init
40211388 g     F .irom0.text	0000001b dcoindex2txbbgain
40107298 g     F .text	00000064 .hidden __divsi3
40226084 g     F .irom0.text	00000033 raw_remove
402042f8 g     F .irom0.text	00000007 _Z14uart_get_debugv
402040a0 g     F .irom0.text	00000006 _Z17uart_get_baudrateP5uart_
3ffebc30 g     O .bss	00000001 ESP
4021ea50 g     F .irom0.text	000000d1 cnx_remove_rc
4022546c g     F .irom0.text	0000002d mdns_set_servername
402144c0 g     F .irom0.text	00000048 ic_disable_interface
4021f4f4 g     F .irom0.text	00000030 ieee80211_recv_action_register
4000b840 g       *ABS*	00000000 pbkdf2_sha1
3ffe9924 g     O .bss	00000001 default_interface
3ffebf7b g     O .bss	00000001 phy_set_most_tpw_disbg
402136d4 g     F .irom0.text	00000049 wd_reset_cnt
40106898 g     F .text	00000000 .hidden __mulsf3
40211b44 g     F .irom0.text	0000020e txiq_cover
40206428 g     F .irom0.text	00000030 finite
402073ac g     F .irom0.text	0000001e system_get_flash_size_map
40100220 g     F .text	00000015 call_user_start_local
4021797c g     F .irom0.text	00000060 wDev_Initialize
40204f50 g     F .irom0.text	00000031 _Z31grove_example_write_float_valuePP7TwoWiref
40229150 g     F .irom0.text	0000007b udp_bind
4021eff4 g     F .irom0.text	00000063 cnx_sta_associated
402271ac g     F .irom0.text	00000020 tcp_tmr
40004678 g       *ABS*	00000000 Cache_Read_Enable
40223918 g     F .irom0.text	00000145 etharp_query
40209438 g     F .irom0.text	000000b7 wifi_set_macaddr
3ffec0a0 g     O .bss	00000001 tx_pwctrl_set_chan_flag
401010a4 g     F .text	00000013 strcmp
40001f00 g       *ABS*	00000000 ets_vprintf
40208730 g     F .irom0.text	00000092 wifi_station_connect
4022bd10 g     F .irom0.text	00000011 wpa_auth_uses_mfp
402241c8 g     F .irom0.text	0000002c lwip_init
40205274 g     F .irom0.text	0000000c _ZN7TwoWire4pinsEii
40229a50 g     F .irom0.text	00000012 r_rand
402134c0 g     F .irom0.text	000000bf data_collect
401028cc g     F .text	00000013 lmacDiscardAgedMSDU
4020d150 g     F .irom0.text	00000030 chip_v6_set_chan_offset
40223160 g     F .irom0.text	00000031 espconn_udp_disconnect
40214564 g     F .irom0.text	0000000d ic_interface_is_p2p
4020b5b4 g     F .irom0.text	00000027 _ZNK6String6equalsERKS_
40221af8 g     F .irom0.text	00000021 espconn_tcp_get_wnd
40212868 g     F .irom0.text	000001de ram_cal_tos_v60
40232b20 g     F .irom0.text	000000a9 deal_with_ht40
40223800 g     F .irom0.text	0000010e etharp_output
4021c020 g     F .irom0.text	0000000f ieee80211_phy_type_get
4021c1e0 g     F .irom0.text	000000b7 pwrsave_flushq
4021f47c g     F .irom0.text	00000012 ieee80211_send_action_unregister
4020543c g     F .irom0.text	00000002 _ZN7TwoWire16onRequestServiceEv
40204034 g     F .irom0.text	0000002b _Z24uart_disarm_tx_interruptP5uart_
40208894 g     F .irom0.text	00000016 wifi_station_set_reconnect_policy
40217f44 g     F .irom0.text	000000cf wdev_exit_sniffer
400043c8 g       *ABS*	00000000 SPI_read_status
40209534 g     F .irom0.text	00000023 wifi_status_led_uninstall
3fffc714 g       *ABS*	00000000 flashchip
400038a4 g       *ABS*	00000000 uart_buff_switch
40201684 g     F .irom0.text	0000008b interrupt_handler
40201924 g     F .irom0.text	0000002e timer1_write
4021834c g     F .irom0.text	0000013b wifi_mode_set
40101fd4 g     F .text	0000002c unsign_to_sign
402011e4 g     F .irom0.text	0000004c delay
40101c38 g     F .text	00000000 .hidden __nedf2
3ffebf80 g     O .bss	00000004 adc_rand_noise
4021378c g     F .irom0.text	00000102 pm_sleep_opt
40205244 g     F .irom0.text	00000027 _ZN7TwoWire5beginEii
4022f408 g     F .irom0.text	00000027 sc_smartconfig_restart
402023b8 g     F .irom0.text	00000029 _Z5task2P11ETSEventTag
4020fea8 g     F .irom0.text	0000001b uart_wait_idle
4020a49c g     F .irom0.text	000000fd _Z17at_exeCmdCiupdateh
3ffe8080 g     O .data	00000003 test_rffreq_txcap
3fff4090 g     O .bss	00000028 pktinfo
4020b624 g     F .irom0.text	00000012 _ZNK6StringltERKS_
4020c090 g     F .irom0.text	0000001c rf_init
4020aecc g     F .irom0.text	00000041 _ZN6StringaSEPKc
40204be0 g     F .irom0.text	00000014 _ZN12GroveExample13read_humidityEPf
402172ec g     F .irom0.text	00000020 trc_onScanStart
402051f4 g     F .irom0.text	0000003b _ZN7TwoWire5writeEh
40207cc0 g     F .irom0.text	00000053 wifi_station_dhcpc_start
40229c3c g     F .irom0.text	00000004 wpa_auth_for_each_sta
40003a14 g       *ABS*	00000000 Uart_Init
4020b650 g     F .irom0.text	00000017 _ZNK6StringleERKS_
4020f39c g     F .irom0.text	00000056 chip_v6_set_chan_misc
4021c4c0 g     F .irom0.text	000000e9 scan_start
40213754 g     F .irom0.text	00000008 pm_rtc2usec
4020f414 g     F .irom0.text	0000035e phy_dig_spur_set
40223be4 g     F .irom0.text	0000000f igmp_init
402042b8 g     F .irom0.text	0000003f _Z14uart_set_debugi
40204818 g     F .irom0.text	00000066 _ZN5Print6printfEPKcz
40100fec g     F .text	0000002f sprintf
40225810 g     F .irom0.text	0000000d netif_set_gw
40204c30 g     F .irom0.text	00000017 _ZN12GroveExample14write_acc_modeEh
40225b74 g     F .irom0.text	00000017 pbuf_clen
402147f8 g     F .irom0.text	0000002c lmacInitAc
40202b30 g     F .irom0.text	00000017 _Z12network_putcc
401043f8 g     F .text	00000070 ppCalFrameTimes
40202d44 g     F .irom0.text	00000077 _Z26rpc_server_register_methodPcS_12method_dir_tPFvPvS1_ES1_Ph
40207d14 g     F .irom0.text	00000041 wifi_station_dhcpc_stop
4020b294 g     F .irom0.text	00000038 _ZN6String6concatEf
4020bd6c g     F .irom0.text	00000026 _Z9strncpy_PPcPKcj
3ffebf78 g     O .bss	00000001 rtc_mem_check_fail
4020b234 g     F .irom0.text	0000002f _ZN6String6concatEl
40201074  w    F .irom0.text	00000004 atexit
3fff36ac g     O .bss	00000004 g_cnx_probe_rc_list_cb
4022e098 g     F .irom0.text	0000001a wpa_sm_deauthenticate
40102568 g     F .text	00000053 lmacSetAcParam
40101408 g     F .text	00000000 .hidden __gesf2
4021eeb4 g     F .irom0.text	000000df cnx_sta_leave
4010098c g     F .text	0000002d spi_flash_read_status
40227928 g     F .irom0.text	00000005 tcp_setprio
402110ec g     F .irom0.text	00000071 get_vdd33_offset
4021c888 g     F .irom0.text	00000021 scan_add_bssid
40210678 g     F .irom0.text	00000092 bbpll_cal
402232f0 g     F .irom0.text	00000012 espconn_mdns_close
4021a000 g     F .irom0.text	00000107 ieee80211_decap
4020c0f4 g     F .irom0.text	0000001c RFChannelSel
40228f9c g     F .irom0.text	00000014 udp_send
40201a5c g     F .irom0.text	00000093 ltoa
4022bc74 g     F .irom0.text	0000009a wpa_parse_kde_ies
401012c4 g     F .text	0000001d cont_check
401044a4 g     F .text	00000014 RC_GetAckTime
40225dac g     F .irom0.text	00000032 pbuf_coalesce
402046cc g     F .irom0.text	00000117 _Z22uart_interrupt_handlerP5uart_
3fff4a80 g     O .bss	00000001 weixin_token
4020bed8 g     F .irom0.text	000000c7 _Z8printf_PPKcz
40225fcc g     F .irom0.text	00000006 raw_recv
3fff4a88 g     O .bss	00000004 p_SmartNewHead
40213594 g     F .irom0.text	00000078 operation_test
3ffebb80 g     O .bss	00000004 p_cur_resource
4021360c g     F .irom0.text	0000000e slop_wdt_feed
4020ad6c g     F .irom0.text	00000031 _ZN6StringC2EPKc
4020ac40 g     F .irom0.text	0000001c _ZN6StringC1EOS_
4020f9f8 g     F .irom0.text	0000001d chip_v6_rxmax_ext
40225710 g     F .irom0.text	0000005c netif_remove
3fff49f0 g     O .bss	00000004 smartconfig_cb
3ffec0a1 g     O .bss	00000001 rxiq_cover_fail_num
40204ec0 g     F .irom0.text	00000009 _Z30grove_example_read_uint8_valuePP7TwoWirePh
40221bf0 g     F .irom0.text	0000000c espconn_regist_recvcb
3ffe92e0  w    O .rodata	00000020 _ZTV6Stream
4022ddf4 g     F .irom0.text	00000014 wpa_config_assoc_ie
402275f0 g     F .irom0.text	00000275 tcp_slowtmr
4022d174 g     F .irom0.text	00000028 wpa_sm_set_state
4021c3ac g     F .irom0.text	00000011 ieee80211_setbasicrates
3ffe85e8 g     O .data	00000018 ccmp
40207f54 g     F .irom0.text	00000011 wifi_set_opmode
4020a3cc g     F .irom0.text	0000000f __ieee754_sinhf
4020bddc g     F .irom0.text	0000007e _Z9strncmp_PPKcS0_j
3fff36f8 g     O .bss	00000002 s
402015d4 g     F .irom0.text	0000005a __digitalWrite
40205ce4 g     F .irom0.text	0000001f atan2f
402074f8 g     F .irom0.text	000000fd system_restart_enhance
40218558 g     F .irom0.text	00000048 ieee80211_getmgtframe
3ffebf5e g     O .bss	00000001 sw_scan_mode
4020a3dc g     F .irom0.text	0000000f __ieee754_log
40207430 g     F .irom0.text	00000098 system_get_userbin_addr
4021482c g     F .irom0.text	00000074 lmacInit
402221b8 g     F .irom0.text	0000009a espconn_find_current_pcb
40203b98 g     F .irom0.text	00000002 _Z16uart_ignore_charc
4022f880 g     F .irom0.text	00000088 smartconfig_stop
40204304 g     F .irom0.text	0000001b _ZN14HardwareSerialC1Ei
2222211f g       *ABS*	00000000 _memmap_cacheattr_wb_trapnull
4022ce54 g     F .irom0.text	00000080 wpa_set_bss
40208d6c g     F .irom0.text	00000069 wifi_softap_set_station_info
4021b18c g     F .irom0.text	00000038 ieee80211_add_rates
40204efc g     F .irom0.text	00000017 _Z26grove_example_read_compassPP7TwoWirePfS2_S2_Pi
402070e8 g     F .irom0.text	0000000d system_set_os_print
4022d890 g     F .irom0.text	0000004a wpa_cipher_put_suites
3ffe89a2 g     O .rodata	00000001 RSSI_MIN
4022ce18 g     F .irom0.text	0000000d wpa_set_profile
40213c6c g     F .irom0.text	00000083 pm_sleep_set_mac
4021655c g     F .irom0.text	00000025 pp_enable_idle_timer
4020c86c g     F .irom0.text	00000080 set_txcap_reg
4022d7dc g     F .irom0.text	00000051 wpa_cipher_to_suite
40105ecc g     F .text	000000e2 esf_buf_recycle
40222e04 g     F .irom0.text	00000080 espconn_tcp_delete
4020e07c g     F .irom0.text	0000030a set_rx_gain_testchip_50
4020392c g     F .irom0.text	0000001f _ZN8EspClass9deepSleepEj8WakeMode
3ffebf70 g     O .bss	00000004 periodic_cal_dc_num
3ffecd24 g     O .bss	00000004 WdevTimOffSet
4022dd7c g     F .irom0.text	00000037 wpa_config_profile
4021d7f0 g     F .irom0.text	00000062 ieee80211_parse_wmeparams
3ffe95cc g       *ABS*	00000000 _bss_table_start
402133e8 g     F .irom0.text	00000045 dpd_scale_set
40204434 g     F .irom0.text	00000030 _ZN14HardwareSerial14setDebugOutputEb
40227aec g     F .irom0.text	00000004 tcp_accept
4020c7ac g     F .irom0.text	000000bf txpwr_offset
40204b0c g     F .irom0.text	0000007f _ZN14CircularBuffer4readEPcj
4021cad4 g     F .irom0.text	00000046 scan_connect_state
402163c4 g     F .irom0.text	00000015 pp_disable_noise_timer
3ffebf58 g     O .bss	00000002 phy_freq_offset
4020a948 g     F .irom0.text	00000021 _ZN5Print5printEmi
3fff318c g     O .bss	000000a4 gScanStruct
4022cc88 g     F .irom0.text	00000160 wpa_sm_rx_eapol
400024cc g       *ABS*	00000000 ets_printf
4000448c g       *ABS*	00000000 Wait_SPI_Idle
402051ac g     F .irom0.text	0000001d _ZN7TwoWire4peekEv
402051d4 g     F .irom0.text	0000001c _ZN7TwoWire5flushEv
402023f4 g     F .irom0.text	0000004b setup
40211d5c g     F .irom0.text	0000026a ram_rfcal_txiq
40229a74 g     F .irom0.text	0000005c os_get_random
40213890 g     F .irom0.text	0000002e pm_wakeup_opt
402254b4 g     F .irom0.text	0000002d mdns_server_unregister
401033b4 g     F .text	0000007e lmacProcessTxError
402070f8 g     F .irom0.text	00000008 system_get_os_print
401009f4 g     F .text	00000028 spi_flash_erase_sector
40104cb8 g     F .text	000000b5 trc_NeedRTS
4022329c g     F .irom0.text	00000012 espconn_mdns_set_servername
40103314 g     F .text	00000092 lmacProcessTxRtsError
40103be0 g     F .text	00000016 ppEnqueueRxq
400047f0 g       *ABS*	00000000 Cache_Read_Disable
402026fc g     F .irom0.text	0000010e _Z28network_check_timer_callbackv
40223258 g     F .irom0.text	00000012 espconn_mdns_disable
3ffebee4 g     O .bss	00000074 chip6_phy_init_ctrl
40218280 g     F .irom0.text	00000015 ieee80211_chan2ieee
4020791c g     F .irom0.text	0000002f system_restoreclock
3fff4a90 g     O .bss	00000014 restart_ht40_timer
401044b8 g     F .text	00000036 RC_GetCtsTime
40222ef8 g     F .irom0.text	00000160 espconn_udp_sent
402122ec g     F .irom0.text	0000033f tx_pwctrl_cal
40207b4c g     F .irom0.text	000000d0 system_mktime
40000f88 g       *ABS*	00000000 ets_isr_attach
4020a91c g     F .irom0.text	0000002b _ZN5Print7printlnEli
40103ab0 g     F .text	0000003e ppFetchTxQFirstAvail
40206490 g     F .irom0.text	00000027 nan
40002fa0 g       *ABS*	00000000 ets_wdt_enable
40212760 g     F .irom0.text	00000063 read_sar_dout
40222030 g     F .irom0.text	00000012 espconn_dns_setserver
402165bc g     F .irom0.text	00000071 ppPeocessRxPktHdr
40216048 g     F .irom0.text	0000002d pm_scan_lock
40204304 g     F .irom0.text	0000001b _ZN14HardwareSerialC2Ei
4021ac3c g     F .irom0.text	000000f3 ieee80211_mgmt_output
3ffe8020 g     O .data	00000001 twi_dcount
4022a9a8 g     F .irom0.text	000000a5 wpa_auth_sm_event
402038e8 g     F .irom0.text	00000013 _ZN8EspClass9wdtEnableE6WDTO_t
4021ddec g     F .irom0.text	00000037 chm_start_op
4020a3ec g     F .irom0.text	0000000f __ieee754_sqrt
40207408 g     F .irom0.text	00000021 system_get_test_result
3fff4a84 g     O .bss	00000004 p_kiss_ht40
4022952c g     F .irom0.text	00000047 hostapd_config_defaults_bss
40203900 g     F .irom0.text	00000013 _ZN8EspClass10wdtDisableEv
3ff00000 g       *ABS*	00000000 _dport0_data_end
40217e10 g     F .irom0.text	000000db wdev_go_sniffer
402090bc g     F .irom0.text	0000002a wifi_set_channel
40100aac g     F .text	000000ae os_printf_plus
402126a8 g     F .irom0.text	000000b5 tx_pwctrl_background
40201164 g     F .irom0.text	0000002b _Z12arduino_initv
40209250 g     F .irom0.text	000000d5 wifi_get_ip_info
400039d8 g       *ABS*	00000000 uart_div_modify
40204ea8 g     F .irom0.text	0000000f _Z18grove_example_initPP7TwoWireii
3fff4704 g     O .bss	00000004 tcp_tw_pcbs
40213908 g     F .irom0.text	0000003f pm_sleep_opt_bb_off
3ffe98fc g     O .bss	00000004 event_cb
40221b48 g     F .irom0.text	00000016 espconn_tcp_set_max_con
40101184 g     F .text	0000000e isdigit
40101fc8 g     F .text	0000000b phy_get_mactime
402343d4 g     F .irom0.text	00000004 eloop_cancel_timeout
40228d3c g     F .irom0.text	00000260 udp_input
40211a0c g     F .irom0.text	00000085 ram_set_txbb_atten
401028e0 g     F .text	00000022 lmacRecycleMPDU
4022e0bc g     F .irom0.text	00000002 wpa_sm_disassociate
3ffe8630 g       *ABS*	00000000 _rodata_start
40100070 g       .text	00000000 _DoubleExceptionVector
40005050 g       *ABS*	00000000 lldesc_num2link
4020b060 g     F .irom0.text	0000003a _ZN6StringC1Edh
40205118 g     F .irom0.text	0000004f _ZN7TwoWire5writeEPKhj
40230ee0 g     F .irom0.text	00000050 init_esp_touch
4020da44 g     F .irom0.text	00000002 ram_tx_mac_enable
4021cab4 g     F .irom0.text	00000007 scan_get_type
4020b3d8 g     F .irom0.text	00000037 _ZplRK15StringSumHelperc
4020b684 g     F .irom0.text	0000005b _ZNK6String16equalsIgnoreCaseERKS_
400031b4 g       *ABS*	00000000 roundup2
4010015c g       .text	00000000 _UserExceptionVector_1
40203974 g     F .irom0.text	0000000f _ZN8EspClass6getVccEv
4022192c g     F .irom0.text	000000e3 espconn_connect
40101474 g     F .text	00000000 .hidden __unordsf2
40201010 g       *ABS*	00000000 _irom0_text_start
4021f490 g     F .irom0.text	00000052 ieee80211_send_action
402161f4 g     F .irom0.text	0000004c pm_post
40225678 g     F .irom0.text	00000002 netif_init
40221124 g     F .irom0.text	00000069 dhcps_coarse_tmr
40204c1c g     F .irom0.text	00000014 _ZN12GroveExample13read_with_argEPfS0_S0_Pii
3ffebb78 g     O .bss	00000004 p_event_queue_tail
40217140 g     F .irom0.text	0000004a RC_SetBasicRate
401039e8 g     F .text	00000076 ppProcessTxQ
40201190 g     F .irom0.text	0000000f delay_end
402090a4 g     F .irom0.text	00000015 wifi_get_channel
40207684 g     F .irom0.text	00000014 system_upgrade_flag_set
40211368 g     F .irom0.text	00000020 txbbgain2dcoindex
4020b90c g     F .irom0.text	00000017 _ZNK6String11lastIndexOfEc
40217480 g     F .irom0.text	0000001a rc_disable_trc_by_interface
40210cc4 g     F .irom0.text	00000035 rtc_mem_check
400018b4 g       *ABS*	00000000 ets_memcpy
40224584 g     F .irom0.text	00000075 ip_route
4020ebd0 g     F .irom0.text	000000f4 tx_pwctrl_init
402022fc g     F .irom0.text	00000023 user_init
40214c48 g     F .irom0.text	000000f0 pm_set_sleep_type_from_upper
4022738c g     F .irom0.text	000000b2 tcp_listen_with_backlog
3ffec090 g     O .bss	00000006 tx_pwctrl_atten_init
40235194 g       *ABS*	00000000 _flash_code_end
4020956c g     F .irom0.text	00000008 wifi_set_event_handler_cb
4022549c g     F .irom0.text	0000000e mdns_get_servername
40201b78 g     F .irom0.text	00000085 ultoa
4020787c g     F .irom0.text	00000056 system_update_cpu_freq
401008d4 g     F .text	00000002 vPortInitialiseBlocks
40225a90 g     F .irom0.text	0000006a pbuf_header
3ffe808c g     O .data	00000004 soft_wdt_interval
40205280 g     F .irom0.text	00000019 _ZN7TwoWire5beginEv
3fff46b8 g     O .bss	00000004 netif_default
40223198 g     F .irom0.text	00000062 espconn_udp_server
4020ac10 g     F .irom0.text	0000002e _ZN5Print7printlnEdi
40227b40 g     F .irom0.text	00000063 tcp_pcb_remove
4022f96c g     F .irom0.text	00000005 smartconfig_get_version
4020af90 g     F .irom0.text	0000002e _ZN6StringC1Ejh
40000fa8 g       *ABS*	00000000 ets_isr_unmask
3fff3fc4 g     O .bss	00000004 pserver_list
4020c0ac g     F .irom0.text	00000016 bb_init
4021c134 g     F .irom0.text	0000003d ieee80211_set_tim
4020c3f0 g     F .irom0.text	0000014e chip_v6_rxmax_ext_ana
4020bcd4 g     F .irom0.text	00000021 _ZNK6String7toFloatEv
3ffebc98 g     O .bss	00000020 _ZN7TwoWire8txBufferE
40204880 g     F .irom0.text	00000019 _Znwj
40221a58 g     F .irom0.text	000000a0 espconn_sent
40203994 g     F .irom0.text	0000000f _ZN8EspClass9getChipIdEv
40207e64 g     F .irom0.text	0000007e wifi_set_broadcast_if
4021e88c g     F .irom0.text	00000072 cnx_rc_search
4022d044 g     F .irom0.text	000000a5 pp_michael_mic_failure
40225bc4 g     F .irom0.text	0000001a pbuf_chain
402082c4 g     F .irom0.text	00000038 wifi_station_ap_number_set
40227250 g     F .irom0.text	00000092 tcp_abandon
402088ac g     F .irom0.text	00000008 wifi_station_get_reconnect_policy
3fff4ab0 g     O .bss	00000004 timer1_user_cb
40228ad0 g     F .irom0.text	00000030 tcp_timer_needed
4020a880 g     F .irom0.text	0000005f _ZN5Print5printEli
2222211f g       *ABS*	00000000 _memmap_cacheattr_wbna_trapnull
401074b0 g     F .text	00000000 .hidden __floatunsisf
4021fa1c g     F .irom0.text	00000024 dhcp_set_struct
40227868 g     F .irom0.text	0000007c tcp_fasttmr
40211814 g     F .irom0.text	0000006d meas_tone_pwr_db
4021cb1c g     F .irom0.text	0000001e scan_check_hidden
40217408 g     F .irom0.text	00000075 rc_disable_trc
4020a3fc g     F .irom0.text	0000000f __ieee754_coshf
4021a82c g     F .irom0.text	00000056 ieee80211_parse_action
40203da8 g     F .irom0.text	00000038 _ZN14HardwareSerial4readEv
40207b28 g     F .irom0.text	00000012 system_rtc_clock_cali_proc
4021218c g     F .irom0.text	00000108 get_target_power_offset
40203658 g     F .irom0.text	00000017 _Z12stream_writec
4010744c g     F .text	00000049 .hidden __modsi3
402142f4 g     F .irom0.text	00000029 sleep_opt_bb_on_8266
40229ed8 g     F .irom0.text	00000009 wpa_auth_sta_no_wpa
40002a88 g       *ABS*	00000000 ets_strcpy
40214534 g     F .irom0.text	0000000d ic_get_gtk_alg
4020e958 g     F .irom0.text	0000026d tx_atten_set_interp
40207a8c g     F .irom0.text	0000005f system_print_meminfo
40207e28 g     F .irom0.text	00000035 wifi_get_broadcast_if
4020bcf8 g     F .irom0.text	0000004b _Z9strnlen_PPKcj
4020b204 g     F .irom0.text	0000002f _ZN6String6concatEj
4020a9ec g     F .irom0.text	0000002b _ZN5Print7printlnEmi
402172e8 g     F .irom0.text	00000002 trc_onDisconnect
40210cfc g     F .irom0.text	0000002c phy_afterwake_set_rfoption
3fff36c0 g     O .bss	00000028 dhcp_rx_options_val
4021c3dc g     F .irom0.text	0000004f ieee80211_mlme_connect_bss
4021df74 g     F .irom0.text	0000003f cnx_attach
4000b8b4 g       *ABS*	00000000 hmac_sha1_vector
40206ed4 g     F .irom0.text	00000099 overlap_hspi_init
4020aff0 g     F .irom0.text	0000002e _ZN6StringC1Emh
40210b00 g     F .irom0.text	00000030 change_bbpll160
402119d0 g     F .irom0.text	0000003a get_fcc_1m2m_pwr_offset
40201968 g     F .irom0.text	00000013 atoi
4021e954 g     F .irom0.text	000000fc cnx_add_rc
40101164 g     F .text	0000001d iscntrl
40207c2c g     F .irom0.text	00000046 wifi_softap_dhcps_start
2222222f g       *ABS*	00000000 _memmap_cacheattr_bp_trapnull
4020b440 g     F .irom0.text	0000002b _ZplRK15StringSumHelperi
4022a474 g     F .irom0.text	000003b9 __wpa_send_eapol
40215e50 g     F .irom0.text	000001c6 pm_send_nullfunc
4020730c g     F .irom0.text	00000056 system_restart
3ffe95c8 g       *ABS*	00000000 __init_array_start
40221c0c g     F .irom0.text	0000000e espconn_regist_disconcb
40210bb0 g     F .irom0.text	0000009c ant_switch_init
40101d78 g     F .text	00000000 .hidden __unorddf2
402172e0 g     F .irom0.text	00000005 rcGetTrc
401047c4 g     F .text	00000002 rcUpdateDataRxDone
40224024 g     F .irom0.text	00000030 igmp_tmr
40212e68 g     F .irom0.text	000001ca ram_rxiq_get_mis
4022fbac g     F .irom0.text	00000058 init_listen
402113a8 g     F .irom0.text	000000b7 init_cal_dcoffset
4020fee0 g     F .irom0.text	000000a6 phy_pbus_soc_cfg
4020c128 g     F .irom0.text	00000016 phy_enable_agc
40106af8 g     F .text	00000000 .hidden __fixunssfsi
402040b4 g     F .irom0.text	000000f1 _Z9uart_initiih
40202320 g     F .irom0.text	00000015 _Z14pre_user_setupv
40207aec g     F .irom0.text	00000012 system_get_free_heap_size
40006b08 g       *ABS*	00000000 phy_get_romfuncs
4020e38c g     F .irom0.text	000000f0 ram_get_corr_power
3ffebc90 g     O .bss	00000004 _ZN7TwoWire14user_onRequestE
40207b04 g     F .irom0.text	00000023 system_get_chip_id
4021f7ac g     F .irom0.text	00000047 dhcp_coarse_tmr
40205dd8 g     F .irom0.text	0000014b expf
4022d2e4 g     F .irom0.text	00000194 wpa_parse_wpa_ie_rsn
40217af4 g     F .irom0.text	000000d5 wDev_SetBssid
4022d604 g     F .irom0.text	0000003f wpa_eapol_key_mic
40101f48 g     F .text	00000036 .hidden __muldi3
40100050 g       .text	00000000 _UserExceptionVector
40203a5c g     F .irom0.text	0000002d _ZN8EspClass17getFlashChipSpeedEv
4020af10 g     F .irom0.text	0000001f _ZN6StringC1Ec
3ffebcba g     O .bss	00000001 _ZN7TwoWire13rxBufferIndexE
40100000 g       .text	00000000 _stext
40211210 g     F .irom0.text	000000cd set_most_pwr_reg
401060dc g     F .text	00000032 espconn_port
40227af0 g     F .irom0.text	00000008 tcp_poll
4020b82c g     F .irom0.text	00000031 _ZNK6String7indexOfEcj
4021ad34 g     F .irom0.text	00000143 ieee80211_send_nulldata
401010d0 g     F .text	00000013 strlen
40212c3c g     F .irom0.text	00000221 ram_rfcal_pwrctrl
402211e0 g     F .irom0.text	0000004e dns_init
40218494 g     F .irom0.text	0000004f ieee80211_crypto_encap
40219c20 g     F .irom0.text	0000001b ieee80211_add_htcap
402103e4 g     F .irom0.text	00000018 tx_cont_cfg
40101280 g     F .text	0000000e toupper
40101cf0 g     F .text	00000000 .hidden __gedf2
4022927c g     F .irom0.text	00000031 udp_new
40202b68 g     F .irom0.text	00000182 _Z17establish_networkv
40217db4 g     F .irom0.text	00000037 wDev_Crypto_Disable
4022f588 g     F .irom0.text	0000019d sc_wifi_scan_done
40216538 g     F .irom0.text	00000023 pp_disable_idle_timer
40214664 g     F .irom0.text	0000008e ic_set_sta
402327bc g     F .irom0.text	0000035e get_touch_data_ht40
40204ee8 g     F .irom0.text	00000013 _Z22grove_example_read_accPP7TwoWirePfS2_S2_
3ffebf75 g     O .bss	00000001 bbpll_cal_flag
40210770 g     F .irom0.text	0000029c register_chipv6_phy_init_param
4020b498 g     F .irom0.text	0000002b _ZplRK15StringSumHelperl
402077c0 g     F .irom0.text	00000060 system_deep_sleep
40106044 g     F .text	00000034 chm_cancel_op
3ffec0a8 g     O .bss	00000001 software_slp_reject
40208e78 g     F .irom0.text	00000032 wifi_softap_free_station_info
4020621c g     F .irom0.text	000000f3 sinhf
400060d0 g     F *ABS*	00000000 rom_chip_v5_disable_cca
40209ee4 g     F .irom0.text	0000001c strchr
40207d58 g     F .irom0.text	00000008 wifi_station_dhcpc_status
401036c4 g     F .text	0000000f ppProcessWaitQ
4020856c g     F .irom0.text	00000033 wifi_station_ap_check
3ffe8890 g     O .rodata	00000006 ethbroadcast
3ffe88f0 g     O .rodata	0000000d tcp_backoff
40105518 g     F .text	0000000e wDev_GetTxqCollisions
4020a640 g     F .irom0.text	00000019 _ZN5Print5printERK6String
4020ba2c g     F .irom0.text	00000154 _ZN6String7replaceERKS_S1_
4010209c g     F .text	000000b5 pm_rtc_clock_cali
3fff49ec g     O .bss	00000004 EspAirSelect
40213a74 g     F .irom0.text	0000001d chg_lslp_mem_opt_8266
3ffebcbc g     O .bss	00000020 _ZN7TwoWire8rxBufferE
402018ec g     F .irom0.text	0000002f timer1_enable
40229a4c g     F .irom0.text	00000004 os_get_time
40223270 g     F .irom0.text	00000012 espconn_mdns_set_hostname
40211320 g     F .irom0.text	0000002f get_adc_rand
4021056c g     F .irom0.text	0000010a periodic_cal
402248fc g     F .irom0.text	000001e2 ip_output_if_opt
4021c174 g     F .irom0.text	00000069 ieee80211_pwrsave
4010200c g     F .text	00000087 phy_get_bb_freqoffset
40104350 g     F .text	00000022 pp_post2
40102184 g     F .text	0000000f lmacIsActive
40102154 g     F .text	0000002b clockgate_watchdog
40102ed4 g     F .text	00000004 lmacMSDUAged
00000220 g       *ABS*	00000000 _memmap_cacheattr_bp_base
4021dfb4 g     F .irom0.text	00000046 cnx_sta_connect_led_timer_cb
40205388 g     F .irom0.text	0000001e _ZN7TwoWire11requestFromEiii
40201638 g     F .irom0.text	00000034 __digitalRead
401044f0 g     F .text	0000003a RC_GetBlockAckTime
402295f8 g     F .irom0.text	00000027 hostapd_mac_comp_empty
4020afc0 g     F .irom0.text	0000002e _ZN6StringC2Elh
402127c4 g     F .irom0.text	00000091 ram_get_fm_sar_dout
40201884 g     F .irom0.text	00000019 timer1_isr_init
3ffe8618 g     O .data	00000018 wep
40100e54 g     F .text	00000012 system_get_time
4020d734 g     F .irom0.text	00000017 check_data_flag
4020bc0c g     F .irom0.text	0000002b _ZN6String11toUpperCaseEv
4022fb54 g     F .irom0.text	00000050 init_filtration
402057ec g     F .irom0.text	000000de hypot
4021d16c g     F .irom0.text	00000048 sta_status_set
40101608 g     F .text	00000000 .hidden __subdf3
4000dd68 g       *ABS*	00000000 rc4_skip
40209328 g     F .irom0.text	000000b0 wifi_set_ip_info
40215250 g     F .irom0.text	0000003f pm_reset_idle_sleep
3ffec384 g     O .bss	00000001 pend_flag_periodic_cal
40204a4c g     F .irom0.text	00000023 _ZN14CircularBufferC1Ej
40223240 g     F .irom0.text	00000012 espconn_mdns_enable
40221e40 g     F .irom0.text	00000057 espconn_set_opt
40219c3c g     F .irom0.text	00000031 ieee80211_add_htcap_vendor
40204cbc g     F .irom0.text	0000002f _Z29__grove_example_read_humidityPvS_
401073bc g     F .text	00000048 .hidden __umulsidi3
4020b638 g     F .irom0.text	00000018 _ZNK6StringgtERKS_
40221ef8 g     F .irom0.text	0000006c espconn_set_keepalive
4020c060 g     F .irom0.text	00000029 _Z10snprintf_PPcjPKcz
4022a95c g     F .irom0.text	00000049 wpa_remove_ptk
4020908c g     F .irom0.text	00000012 wifi_get_sleep_type
40204a70 g     F .irom0.text	00000017 _ZN14CircularBufferD1Ev
401055b4 g     F .text	0000005b wDev_SetFrameAckType
4020edb8 g     F .irom0.text	0000001c read_hw_noisefloor
40230208 g     F .irom0.text	00000384 get_prefix_control_info
4020ede4 g     F .irom0.text	00000153 noise_check_loop
4010430c g     F .text	00000044 pp_post
40203854 g     F .irom0.text	00000018 _Zli4_GHzy
40214f24 g     F .irom0.text	00000002 uart_tx_flush
4020b1d4 g     F .irom0.text	0000002f _ZN6String6concatEi
40228c24 g     F .irom0.text	0000004a sys_untimeout
40226100 g     F .irom0.text	000004b5 tcp_input
402145e8 g     F .irom0.text	0000006e ic_set_vif
40201238 g     F .irom0.text	0000003b millis
40004f40 g       *ABS*	00000000 lldesc_build_chain
4020111c g     F .irom0.text	00000018 esp_schedule
4010663c g     F .text	00000000 .hidden __addsf3
40105544 g     F .text	00000047 wDev_SetWaitingQueue
40204a4c g     F .irom0.text	00000023 _ZN14CircularBufferC2Ej
3ffebf5a g     O .bss	00000001 do_pwctrl_flag
3ffeb988 g     O .bss	00000067 config
40004cd0 g       *ABS*	00000000 gpio_output_set
4022467c g     F .irom0.text	00000264 ip_input
3ff00000 g       *ABS*	00000000 _dport0_literal_end
402171b8 g     F .irom0.text	000000c6 rcUpdatePhyMode
40219534 g     F .irom0.text	0000004b ieee80211_ht_attach
40216018 g     F .irom0.text	00000018 pm_is_waked
4021c43c g     F .irom0.text	00000051 ieee80211_scan_attach
3ffe8896 g     O .rodata	00000006 ethzero
402038ac g     F .irom0.text	0000000e _Zli3_MBy
40221820 g     F .irom0.text	00000026 espconn_list_delete
40203838 g     F .irom0.text	00000018 _Zli4_MHzy
402226f8 g     F .irom0.text	00000054 espconn_tcp_write
402088b4 g     F .irom0.text	0000003e wifi_station_get_rssi
40203b00 g     F .irom0.text	00000095 _ZN8EspClass24getFlashChipSizeByChipIdEv
3ffebf84 g     O .bss	00000001 dpd_bypass_original
402095c4 g     F .irom0.text	00000077 system_uart_swap
40228c74 g     F .irom0.text	000000b4 sys_check_timeouts
4021ce68 g     F .irom0.text	000002d6 scan_parse_beacon
4020128c g     F .irom0.text	00000013 delayMicroseconds
40002a98 g       *ABS*	00000000 ets_strncpy
4022576c g     F .irom0.text	00000037 netif_find
40100f70 g     F .text	0000000f free
40213d8c g     F .irom0.text	00000057 pm_check_mac_idle
40201088 g     F .irom0.text	0000003b _Z12loop_wrapperv
4020c0c4 g     F .irom0.text	00000030 phy_init
3ffebc94 g     O .bss	00000001 _ZN7TwoWire12transmittingE
40229ad0 g     F .irom0.text	00000029 ets_strrchr
4021c064 g     F .irom0.text	0000007d ieee80211_compute_duration
40103b4c g     F .text	0000001b ppTxqUpdateBitmap
4020b4f0 g     F .irom0.text	0000002b _ZplRK15StringSumHelperf
4022e5f0 g     F .irom0.text	0000000f aes_encrypt
4020a40c g     F .irom0.text	0000000f __ieee754_atan2f
40105590 g     F .text	0000001e wDev_ClearWaitingQueue
40225be0 g     F .irom0.text	0000003a pbuf_dechain
40216898 g     F .irom0.text	00000122 ppTxPkt
4010602c g     F .text	00000011 chm_release_lock


Contents of section .data:
 3ffe8000 00000000 ff000000 01010101 01000000  ................
 3ffe8010 ff000000 0c91fe3f 05000000 04000000  .......?........
 3ffe8020 12000000 01000000 00000000 00000000  ................
 3ffe8030 5500f00b 80d22040 b0e52040 88d12040  U..... @.. @.. @
 3ffe8040 b4342140 ec600040 d0600040 04042140  .4!@.`.@.`.@..!@
 3ffe8050 ac342140 01000000 00000000 00000000  .4!@............
 3ffe8060 00000004 00200024 0028002c 00300034  ..... .$.(.,.0.4
 3ffe8070 00400060 00640068 00700074 0078007c  .@.`.d.h.p.t.x.|
 3ffe8080 07030300 ffffffff 02000000 40060000  ............@...
 3ffe8090 64001700 c0270900 f0000000 a0c3fe3f  d....'.........?
 3ffe80a0 b0dcff3f 00000000 00000000 00000000  ...?............
 3ffe80b0 3a010201 df00d500 3a01a200 7f007500  :.......:.....u.
 3ffe80c0 2c002c00 30003c00 2c002c00 30003c00  ,.,.0.<.,.,.0.<.
 3ffe80d0 3c003000 30002c00 2c002c00 2c002c00  <.0.0.,.,.,.,.,.
 3ffe80e0 3c003000 30002c00 2c002c00 2c002c00  <.0.0.,.,.,.,.,.
 3ffe80f0 0b020b02 0b020005 0b000000 00000000  ................
 3ffe8100 0c020802 0b020005 0b720000 08020d02  .........r......
 3ffe8110 0b020005 0b650000 0d020902 0b020005  .....e..........
 3ffe8120 0b5c0000 09020e02 0b020005 0b580000  .\...........X..
 3ffe8130 0e020a02 0b020005 0b520000 0a020f02  .........R......
 3ffe8140 0b020b05 0b4b0000 0f020b02 0b020b05  .....K..........
 3ffe8150 0b380000 0b020b02 0b020b05 0b400000  .8...........@..
 3ffe8160 0c020802 0b020005 0b720000 08020d02  .........r......
 3ffe8170 0b020005 0b650000 0d020902 0b020005  .....e..........
 3ffe8180 0b5c0000 09020e02 0b020005 0b580000  .\...........X..
 3ffe8190 0e020a02 0b020005 0b520000 0a020b02  .........R......
 3ffe81a0 05020005 0b4b0000 0f020b02 05020005  .....K..........
 3ffe81b0 0b380000 0b020502 00020005 0b400000  .8...........@..
 3ffe81c0 06020502 00020005 0b390000 05020002  .........9......
 3ffe81d0 00020005 0b390000 00020002 00020005  .....9..........
 3ffe81e0 0b000000 00000000 00000000 00000000  ................
 3ffe81f0 07020602 05020005 0b400000 06020502  .........@......
 3ffe8200 00020005 0b390000 05020002 00020005  .....9..........
 3ffe8210 0b390000 00020002 00020005 0b000000  .9..............
 3ffe8220 1f021602 0b020005 0b720000 17021502  .........r......
 3ffe8230 0b020005 0b720000 16021402 0b020005  .....r..........
 3ffe8240 0b720000 15021302 0b020005 0b600000  .r...........`..
 3ffe8250 14021202 0b020005 0b550000 13021202  .........U......
 3ffe8260 0b020005 0b4b0000 12021102 0b020005  .....K..........
 3ffe8270 0b400000 11020b02 05020005 0b3b0000  .@...........;..
 3ffe8280 10020b02 05020005 0b320000 06020502  .........2......
 3ffe8290 00020005 0b390000 05020002 00020005  .....9..........
 3ffe82a0 0b390000 00020002 00020005 0b000000  .9..............
 3ffe82b0 1f021602 0b020005 0b720000 17021502  .........r......
 3ffe82c0 0b020005 0b720000 16021402 0b020005  .....r..........
 3ffe82d0 0b720000 15021302 0b020005 0b600000  .r...........`..
 3ffe82e0 14021202 0b020005 0b550000 13021202  .........U......
 3ffe82f0 0b020005 0b4b0000 12021102 10020b05  .....K..........
 3ffe8300 0b400000 11021002 0b020b05 0b3b0000  .@...........;..
 3ffe8310 10020b02 0b020b05 0b320000 80cbfe3f  .........2.....?
 3ffe8320 00900100 0c000000 00000000 00000000  ................
 3ffe8330 00000000 00000000 00000000 e8030000  ................
 3ffe8340 00008200 3a013a01 00000000 d0070000  ....:.:.........
 3ffe8350 04018401 0201a200 00000000 7c150000  ............|...
 3ffe8360 04028b02 df007f00 00000000 f82a0000  .............*..
 3ffe8370 04039603 d5007500 01000000 70170000  ......u.....p...
 3ffe8380 000b0c04 3c003c00 01000000 28230000  ....<.<.....(#..
 3ffe8390 000f1204 3c003c00 01000000 e02e0000  ....<.<.........
 3ffe83a0 000a1806 30003000 01000000 50460000  ....0.0.....PF..
 3ffe83b0 000e2406 30003000 01000000 c05d0000  ..$.0.0......]..
 3ffe83c0 00093008 2c002c00 01000000 a08c0000  ..0.,.,.........
 3ffe83d0 000d4808 2c002c00 01000000 80bb0000  ..H.,.,.........
 3ffe83e0 00086008 2c002c00 01000000 f0d20000  ..`.,.,.........
 3ffe83f0 000c6c08 2c002c00 04000000 00000000  ..l.,.,.........
 3ffe8400 00000000 00000000 00000000 00000000  ................
 3ffe8410 e8030000 00008200 3a013a01 00000000  ........:.:.....
 3ffe8420 d0070000 04018401 0201a200 00000000  ................
 3ffe8430 7c150000 04028b01 df007f00 00000000  |...............
 3ffe8440 f82a0000 04039601 d5007500 00000000  .*........u.....
 3ffe8450 00000000 00000000 00000000 00000000  ................
 3ffe8460 00000000 00000000 00000000 00000000  ................
 3ffe8470 00000000 00000000 00000000 00000000  ................
 3ffe8480 00000000 00000000 00000000 00000000  ................
 3ffe8490 00000000 00000000 00000000 00000000  ................
 3ffe84a0 00000000 00000000 00000000 00000000  ................
 3ffe84b0 00000000 00000000 00000000 00000000  ................
 3ffe84c0 00000000 00000000 00000000 00000000  ................
 3ffe84d0 ffffffff ffff0000 38f42140 38f42140  ........8.!@8.!@
 3ffe84e0 38f42140 38f42140 e4f42140 e4f42140  8.!@8.!@..!@..!@
 3ffe84f0 e4f42140 0000cdab ff010000 00000000  ..!@............
 3ffe8500 ec050000 00100000 6e190000 00000000  ........n.......
 3ffe8510 00000000 00000000 00000000 00000000  ................
 3ffe8520 00000000 00000000 00000000 00000000  ................
 3ffe8530 00000000 00000000 00000000 00000000  ................
 3ffe8540 00000000 00000000 00000000 00000000  ................
 3ffe8550 00000000 00000000 00000000 00000000  ................
 3ffe8560 00000000 00000000 00000000 00000000  ................
 3ffe8570 00000000 00000000 00000000 00000001  ................
 3ffe8580 00000000 00000000 00000000 00000000  ................
 3ffe8590 00000000 00000000 00000000 00000000  ................
 3ffe85a0 00000000 00000000 00000000 00000000  ................
 3ffe85b0 00000000 00000000 00000000 00000000  ................
 3ffe85c0 00000000 00000000 00000000 00000000  ................
 3ffe85d0 00000000 00000000 00000000 00000000  ................
 3ffe85e0 00000000 00000000 03000000 08000000  ................
 3ffe85f0 08000000 00000000 cc2b2340 482c2340  .........+#@H,#@
 3ffe8600 02000000 08000000 0c000000 08000000  ................
 3ffe8610 002d2340 942d2340 01000000 04000000  .-#@.-#@........
 3ffe8620 04000000 00000000 5c2e2340 b82e2340  ........\.#@..#@
Contents of section .rodata:
 3ffe8630 10000000 48d8ff3f 5cd8ff3f c0a81f7e  ....H..?\..?...~
 3ffe8640 34183814 3c401c20 24282c30 04080c10  4.8.<@. $(,0....
 3ffe8650 72272040 47272040 ce272040 72272040  r' @G' @.' @r' @
 3ffe8660 ce272040 1f272040 c0a81293 94292040  .' @.' @.....) @
 3ffe8670 a0292040 ac292040 b8292040 d0292040  .) @.) @.) @.) @
 3ffe8680 fc2e2040 382e2040 382e2040 6c2e2040  .. @8. @8. @l. @
 3ffe8690 482e2040 7c2e2040 902e2040 612e2040  H. @|. @.. @a. @
 3ffe86a0 902e2040 b22e2040 df2e2040 c5302040  .. @.. @.. @.0 @
 3ffe86b0 b7312040 7f322040 3b332040 78332040  .1 @.2 @;3 @x3 @
 3ffe86c0 c3332040 f5342040 98372040 ee362040  .3 @.4 @.7 @.6 @
 3ffe86d0 ee362040 20372040 ff362040 47372040  .6 @ 7 @.6 @G7 @
 3ffe86e0 37372040 10372040 58372040 68372040  77 @.7 @X7 @h7 @
 3ffe86f0 82372040 005a6202 80ba8c01 002d3101  .7 @.Zb......-1.
 3ffe8700 00000000 00000000 00000000 00000000  ................
 3ffe8710 00000000 00000000 00000000 00000000  ................
 3ffe8720 00000000 00000000 00000000 00000000  ................
 3ffe8730 00b4c404 00000800 00000400 00001000  ................
 3ffe8740 00002000 00004000 00008000 00000001  .. ...@.........
 3ffe8750 00000002 636f7368 00000000 00000000  ....cosh........
 3ffe8760 ef39fafe 422e8640 51302dd5 104987c0  .9..B..@Q0-..I..
 3ffe8770 65787000 6879706f 74000000 6c6f6700  exp.hypot...log.
 3ffe8780 00000000 6c6f6731 30000000 00000000  ....log10.......
 3ffe8790 73696e68 00000000 73717274 00000000  sinh....sqrt....
 3ffe87a0 636f7368 66000000 8071b142 b5f1cfc2  coshf....q.B....
 3ffe87b0 65787066 00000000 6879706f 74660000  expf....hypotf..
 3ffe87c0 6c6f6766 00000000 00000000 6c6f6731  logf........log1
 3ffe87d0 30660000 00000000 73696e68 66000000  0f......sinhf...
 3ffe87e0 73717274 66000000 00002042 00008043  sqrtf..... B...C
 3ffe87f0 00000000 00002041 01000000 00040000  ...... A........
 3ffe8800 14084000 01020303 00000000 00000000  ..@.............
 3ffe8810 02000000 04000000 0b000000 16000000  ................
 3ffe8820 0c000000 18000000 30000000 00000000  ........0.......
 3ffe8830 00000000 00000000 00000000 00000000  ................
 3ffe8840 02020400 00000000 00000000 00000000  ................
 3ffe8850 0402040b 16000000 00000000 00000000  ................
 3ffe8860 00000000 00000000 00000000 00000000  ................
 3ffe8870 00000000 00000000 00000000 00000000  ................
 3ffe8880 00000000 00000000 adde1223 63825363  ...........#c.Sc
 3ffe8890 ffffffff ffff0000 00000000 00000000  ................
 3ffe88a0 ffffffff 00000000 00000000 00000000  ................
 3ffe88b0 1c002400 ac002400 14000800 14001000  ..$...$.........
 3ffe88c0 14000006 00000000 00000000 00000000  ................
 3ffe88d0 0c47ff3f 0847ff3f fc46ff3f 0447ff3f  .G.?.G.?.F.?.G.?
 3ffe88e0 03060c18 30607800 00000000 00000000  ....0`x.........
 3ffe88f0 01020304 05060707 07070707 07000000  ................
 3ffe8900 00000000 00000000 64000000 f4010000  ........d.......
 3ffe8910 e8030000 04000000 04000000 00000000  ................
 3ffe8920 00000000 00000000 00000000 00000000  ................
 3ffe8930 08000000 06000000 06000000 00000000  ................
 3ffe8940 e9030000 ea040000 00000000 00000000  ................
 3ffe8950 73797374 656d5f75 70677261 64655f73  system_upgrade_s
 3ffe8960 74617274 00000000 56312e35 00000000  tart....V1.5....
 3ffe8970 ffffffff 00000000 00000000 00000000  ................
 3ffe8980 00000000 00000000 00000000 00000000  ................
 3ffe8990 00000000 00000000 00000000 00000000  ................
 3ffe89a0 0d0fb000 00000000 00000000 00000000  ................
 3ffe89b0 00000000 00000000 00000000 00000000  ................
 3ffe89c0 00000000 00000000 00000000 00000000  ................
 3ffe89d0 00000000 00000000 00000000 00000000  ................
 3ffe89e0 00000000 00000000 00000000 00000000  ................
 3ffe89f0 00000000 00000000 00000000 00000000  ................
 3ffe8a00 00000000 00000000 00000000 00000000  ................
 3ffe8a10 00000000 00000000 00000000 00000000  ................
 3ffe8a20 00000000 00000000 00000000 00000000  ................
 3ffe8a30 00000000 00000000 00000000 00000000  ................
 3ffe8a40 00000000 00000000 00000000 00000000  ................
 3ffe8a50 00000000 00000000 00000000 00000000  ................
 3ffe8a60 00000000 00000000 00000000 00000000  ................
 3ffe8a70 00000000 00000000 00000000 00000000  ................
 3ffe8a80 00000000 00000000 00000000 00010102  ................
 3ffe8a90 01020203 01020203 02030304 01020203  ................
 3ffe8aa0 02030304 02030304 03040405 01020203  ................
 3ffe8ab0 02030304 02030304 03040405 02030304  ................
 3ffe8ac0 03040405 03040405 04050506 01020203  ................
 3ffe8ad0 02030304 02030304 03040405 02030304  ................
 3ffe8ae0 03040405 03040405 04050506 02030304  ................
 3ffe8af0 03040405 03040405 04050506 03040405  ................
 3ffe8b00 04050506 04050506 05060607 01020203  ................
 3ffe8b10 02030304 02030304 03040405 02030304  ................
 3ffe8b20 03040405 03040405 04050506 02030304  ................
 3ffe8b30 03040405 03040405 04050506 03040405  ................
 3ffe8b40 04050506 04050506 05060607 02030304  ................
 3ffe8b50 03040405 03040405 04050506 03040405  ................
 3ffe8b60 04050506 04050506 05060607 03040405  ................
 3ffe8b70 04050506 04050506 05060607 04050506  ................
 3ffe8b80 05060607 05060607 06070708 4669726d  ............Firm
 3ffe8b90 77617265 204f4e4c 59207375 70706f72  ware ONLY suppor
 3ffe8ba0 74732045 53503832 36362121 210a0000  ts ESP8266!!!...
 3ffe8bb0 656d7074 79206f74 700a0000 6170705f  empty otp...app_
 3ffe8bc0 6d61696e 2e630000 312e312e 30000000  main.c..1.1.0...
 3ffe8bd0 4d617920 32322032 30313500 31393a33  May 22 2015.19:3
 3ffe8be0 303a3538 00000000 6e656564 20626f6f  0:58....need boo
 3ffe8bf0 7420312e 342b0000 4553505f 25303258  t 1.4+..ESP_%02X
 3ffe8c00 25303258 25303258 00000000 ffffffff  %02X%02X........
 3ffe8c10 ffff0000 25730000 666e6b3a 20737472  ....%s..fnk: str
 3ffe8c20 746f6c28 29206f6e 6c792073 7570706f  tol() only suppo
 3ffe8c30 72747320 62617365 20313020 616e6420  rts base 10 and 
 3ffe8c40 32204154 4d210a00 5f5f6572 726e6f20  2 ATM!..__errno 
 3ffe8c50 69732063 616c6c65 64206c61 73742065  is called last e
 3ffe8c60 72726f72 3a202564 20286e6f 74206375  rror: %d (not cu
 3ffe8c70 7272656e 74290a00 0d0a6865 61702063  rrent)....heap c
 3ffe8c80 6f6c6c69 64656420 77697468 20736b65  ollided with ske
 3ffe8c90 74636820 73746163 6b0d0a00 64657669  tch stack...devi
 3ffe8ca0 63655f75 70677261 64655f73 75636365  ce_upgrade_succe
 3ffe8cb0 73730d0a 00000000 64657669 63655f75  ss......device_u
 3ffe8cc0 70677261 64655f66 61696c65 640d0a00  pgrade_failed...
 3ffe8cd0 636e743a 20256420 0d0a0000 7461736b  cnt: %d ....task
 3ffe8ce0 31000000 52756e6e 696e6720 75736572  1...Running user
 3ffe8cf0 312e6269 6e200d0a 0d0a0000 75736572  1.bin ......user
 3ffe8d00 322e6269 6e000000 52756e6e 696e6720  2.bin...Running 
 3ffe8d10 75736572 322e6269 6e200d0a 0d0a0000  user2.bin ......
 3ffe8d20 75736572 312e6269 6e000000 47455420  user1.bin...GET 
 3ffe8d30 2f257320 48545450 2f312e31 0d0a486f  /%s HTTP/1.1..Ho
 3ffe8d40 73743a20 25642e25 642e2564 2e25643a  st: %d.%d.%d.%d:
 3ffe8d50 25640d0a 436f6e6e 65637469 6f6e3a20  %d..Connection: 
 3ffe8d60 6b656570 2d616c69 76650d0a 43616368  keep-alive..Cach
 3ffe8d70 652d436f 6e74726f 6c3a206e 6f2d6361  e-Control: no-ca
 3ffe8d80 6368650d 0a557365 722d4167 656e743a  che..User-Agent:
 3ffe8d90 204d6f7a 696c6c61 2f352e30 20285769   Mozilla/5.0 (Wi
 3ffe8da0 6e646f77 73204e54 20352e31 29204170  ndows NT 5.1) Ap
 3ffe8db0 706c6557 65624b69 742f3533 372e3336  pleWebKit/537.36
 3ffe8dc0 20284b48 544d4c2c 206c696b 65204765   (KHTML, like Ge
 3ffe8dd0 636b6f29 20436872 6f6d652f 33302e30  cko) Chrome/30.0
 3ffe8de0 2e313539 392e3130 31205361 66617269  .1599.101 Safari
 3ffe8df0 2f353337 2e333620 0d0a4163 63657074  /537.36 ..Accept
 3ffe8e00 3a202a2f 2a0d0a41 63636570 742d456e  : */*..Accept-En
 3ffe8e10 636f6469 6e673a20 677a6970 2c646566  coding: gzip,def
 3ffe8e20 6c617465 0d0a4163 63657074 2d4c616e  late..Accept-Lan
 3ffe8e30 67756167 653a207a 682d434e 2c65622d  guage: zh-CN,eb-
 3ffe8e40 55533b71 3d302e38 0d0a0d0a 00000000  US;q=0.8........
 3ffe8e50 55706772 61646520 616c7265 61647920  Upgrade already 
 3ffe8e60 73746172 7465642e 00000000 55706772  started.....Upgr
 3ffe8e70 61646520 73746172 74656400 7461736b  ade started.task
 3ffe8e80 32000000 4e6f6465 3a202573 20253032  2...Node: %s %02
 3ffe8e90 783a2530 32783a25 3032783a 25303278  x:%02x:%02x:%02x
 3ffe8ea0 3a253032 783a2530 32782025 642e2564  :%02x:%02x %d.%d
 3ffe8eb0 2e25642e 25640000 696f745f 6e6f6465  .%d.%d..iot_node
 3ffe8ec0 5f310000 25730a00 636f6e66 69726d20  _1..%s..confirm 
 3ffe8ed0 68656c6c 6f3a2025 64200a00 31323334  hello: %d ..1234
 3ffe8ee0 35360000 68616e64 7368616b 6520646f  56..handshake do
 3ffe8ef0 6e652c20 6b656570 2d616c69 76650a00  ne, keep-alive..
 3ffe8f00 6d61696e 20636f6e 6e20636f 6e6e6563  main conn connec
 3ffe8f10 74656400 68656c6c 6f0d0a00 4e6f2068  ted.hello...No h
 3ffe8f20 656c6c6f 2061636b 2066726f 6d207365  ello ack from se
 3ffe8f30 72766572 20616674 65722035 20726574  rver after 5 ret
 3ffe8f40 72790a00 506c6561 73652063 6865636b  ry..Please check
 3ffe8f50 20736572 76657227 73206970 20616e64   server's ip and
 3ffe8f60 20706f72 742c2061 6c736f20 63686563   port, also chec
 3ffe8f70 6b204163 63657373 546f6b65 6e0a0000  k AccessToken...
 3ffe8f80 54686520 6d61696e 20636f6e 6e656374  The main connect
 3ffe8f90 696f6e20 64696564 20616674 65722035  ion died after 5
 3ffe8fa0 20726574 72790a00 6d61696e 5f636f6e   retry..main_con
 3ffe8fb0 6e656374 696f6e5f 696e6974 2e0d0a00  nection_init....
 3ffe8fc0 6d61696e 20636f6e 6e207265 2d636f6e  main conn re-con
 3ffe8fd0 6e2c2065 72723a20 25640a00 53435f53  n, err: %d..SC_S
 3ffe8fe0 54415455 535f5741 49540a00 53435f53  TATUS_WAIT..SC_S
 3ffe8ff0 54415455 535f4649 4e445f43 48414e4e  TATUS_FIND_CHANN
 3ffe9000 454c0a00 53435f53 54415455 535f4745  EL..SC_STATUS_GE
 3ffe9010 5454494e 475f5353 49445f50 5357440a  TTING_SSID_PSWD.
 3ffe9020 00000000 53435f53 54415455 535f4c49  ....SC_STATUS_LI
 3ffe9030 4e4b0a00 53435f53 54415455 535f4c49  NK..SC_STATUS_LI
 3ffe9040 4e4b5f4f 5645520a 00000000 68656c6c  NK_OVER.....hell
 3ffe9050 6f000000 73746172 7420746f 20657374  o...start to est
 3ffe9060 61626c69 7368206e 6574776f 726b2063  ablish network c
 3ffe9070 6f6e6e65 6374696f 6e2e0d0a 00000000  onnection.......
 3ffe9080 636f6e6e 65637420 746f2073 73696420  connect to ssid 
 3ffe9090 25732077 69746820 70617373 77642025  %s with passwd %
 3ffe90a0 730d0a00 446f6e65 2e204950 3a202564  s...Done. IP: %d
 3ffe90b0 2e25642e 25642e25 640d0a00 57616974  .%d.%d.%d...Wait
 3ffe90c0 20676574 74696e67 2069702c 20737461   getting ip, sta
 3ffe90d0 74653a20 25640a00 4e657477 6f726b20  te: %d..Network 
 3ffe90e0 65737461 626c6973 6865642e 0a0a0a00  established.....
 3ffe90f0 57616974 20636f6e 6e656374 696e6720  Wait connecting 
 3ffe9100 746f2073 65727665 722e0a00 4e6f6465  to server...Node
 3ffe9110 31313232 33333434 35353636 3f000000  112233445566?...
 3ffe9120 72706320 73657276 65722069 6e697420  rpc server init 
 3ffe9130 646f6e65 21000000 6576656e 74000000  done!...event...
 3ffe9140 7b220000 223a2200 227d0000 47455400  {"..":"."}..GET.
 3ffe9150 67657400 72657370 5f676574 00000000  get.resp_get....
 3ffe9160 504f5354 00000000 706f7374 00000000  POST....post....
 3ffe9170 72657370 5f706f73 74000000 4f544100  resp_post...OTA.
 3ffe9180 6f746100 6f74615f 74726967 5f61636b  ota.ota_trig_ack
 3ffe9190 00000000 42414420 52455155 4553543a  ....BAD REQUEST:
 3ffe91a0 206d6973 73696e67 20726f6f 743a272f   missing root:'/
 3ffe91b0 272e0000 2e77656c 6c2d6b6e 6f776e00  '....well-known.
 3ffe91c0 2f2e7765 6c6c2d6b 6e6f776e 20697320  /.well-known is 
 3ffe91d0 6e6f7420 696d706c 656d656e 74656400  not implemented.
 3ffe91e0 42414420 52455155 4553543a 206d6973  BAD REQUEST: mis
 3ffe91f0 73696e67 206d6574 686f6420 6e616d65  sing method name
 3ffe9200 2e000000 47524f56 45204f52 204d4554  ....GROVE OR MET
 3ffe9210 484f4420 4e4f5420 464f554e 44205748  HOD NOT FOUND WH
 3ffe9220 454e2043 4845434b 20504f53 54204152  EN CHECK POST AR
 3ffe9230 47530000 4d495353 494e4720 41524753  GS..MISSING ARGS
 3ffe9240 00000000 47524f56 45204f52 204d4554  ....GROVE OR MET
 3ffe9250 484f4420 4e4f5420 464f554e 44205748  HOD NOT FOUND WH
 3ffe9260 454e2050 52452d50 41525345 20415247  EN PRE-PARSE ARG
 3ffe9270 53000000 47524f56 45204f52 204d4554  S...GROVE OR MET
 3ffe9280 484f4420 4e4f5420 464f554e 44205748  HOD NOT FOUND WH
 3ffe9290 454e2043 414c4c00 5b000000 5d000000  EN CALL.[...]...
 3ffe92a0 25686875 00000000 25750000 256c7500  %hhu....%u..%lu.
 3ffe92b0 25686864 00000000 256c6400 7b226d73  %hhd....%ld.{"ms
 3ffe92c0 675f7479 7065223a 22000000 222c2022  g_type":"...", "
 3ffe92d0 6d736722 3a220000 227d0d0a 00000000  msg":".."}......
 3ffe92e0 00000000 00000000 e0482040 9ca52040  .........H @.. @
 3ffe92f0 e0482040 e0482040 e0482040 e0482040  .H @.H @.H @.H @
 3ffe9300 00000000 00000000 983c2040 9ca52040  .........< @.. @
 3ffe9310 b83b2040 a83d2040 9c3b2040 343c2040  .; @.= @.; @4< @
 3ffe9320 6e616e00 696e6600 6f766600 00000000  nan.inf.ovf.....
 3ffe9330 00000000 00000000 e0482040 9ca52040  .........H @.. @
 3ffe9340 47726f76 655f4578 616d706c 65310000  Grove_Example1..
 3ffe9350 74656d70 00000000 68756d69 64697479  temp....humidity
 3ffe9360 00000000 61636300 75696e74 385f7661  ....acc.uint8_va
 3ffe9370 6c756500 636f6d70 61737300 77697468  lue.compass.with
 3ffe9380 5f617267 00000000 6d756c74 695f7661  _arg....multi_va
 3ffe9390 6c756500 6163635f 6d6f6465 00000000  lue.acc_mode....
 3ffe93a0 666c6f61 745f7661 6c756500 30313233  float_value.0123
 3ffe93b0 34353637 38396162 63646566 00000000  456789abcdef....
 3ffe93c0 25302a64 00000000 4661696c 65640000  %0*d....Failed..
 3ffe93d0 4f4b0000 67657420 666c6f61 743a2000  OK..get float: .
 3ffe93e0 66697265 00000000 00000000 00000000  fire............
 3ffe93f0 f4512040 18512040 70512040 88512040  .Q @.Q @pQ @.Q @
 3ffe9400 ac512040 d4512040 6c6d6163 2e630000  .Q @.Q @lmac.c..
 3ffe9410 706d2e63 00000000 64697361 626c6500  pm.c....disable.
 3ffe9420 656e6162 6c650000 70702e63 00000000  enable..pp.c....
 3ffe9430 77646576 2e630000 62670a00 3230382e  wdev.c..bg..208.
 3ffe9440 36372e32 32322e32 32320000 5f736572  67.222.222.._ser
 3ffe9450 76696365 732e5f64 6e732d73 642e5f75  vices._dns-sd._u
 3ffe9460 64702e6c 6f63616c 00000000 6c6f6361  dp.local....loca
 3ffe9470 6c000000 5055434b 2050524f 544f434f  l...PUCK PROTOCO
 3ffe9480 4c000000 76656e64 6f72203d 20257300  L...vendor = %s.
 3ffe9490 45737072 65737369 66000000 5f457370  Espressif..._Esp
 3ffe94a0 72657373 69662e5f 7463702e 5f6c6f63  ressif._tcp._loc
 3ffe94b0 616c0000 5f25732e 5f746370 2e6c6f63  al.._%s._tcp.loc
 3ffe94c0 616c0000 3232342e 302e302e 32353100  al..224.0.0.251.
 3ffe94d0 496e6974 20436f75 6e746572 00000000  Init Counter....
 3ffe94e0 50616972 77697365 206b6579 20657870  Pairwise key exp
 3ffe94f0 616e7369 6f6e0000 47726f75 70206b65  ansion..Group ke
 3ffe9500 79206578 70616e73 696f6e00 504d4b20  y expansion.PMK 
 3ffe9510 4e616d65 00000000 436f6e74 656e742d  Name....Content-
 3ffe9520 4c656e67 74680000 436f6e74 656e742d  Length..Content-
 3ffe9530 4c656e67 74683a20 00000000 73635f73  Length: ....sc_s
 3ffe9540 6e696666 65722e63 00000000 73635f68  niffer.c....sc_h
 3ffe9550 7432302e 63000000 73635f68 745f7068  t20.c...sc_ht_ph
 3ffe9560 792e6300 0c000000 00000000 0300017c  y.c............|
 3ffe9570 000c0100 24000000 14000000 706b1040  ....$.......pk.@
 3ffe9580 eb030000 04030000 000e4004 0a000000  ..........@.....
 3ffe9590 80018c02 8d038e04 8f050000 28000000  ............(...
 3ffe95a0 3c000000 5c6f1040 3a030000 04030000  <...\o.@:.......
 3ffe95b0 000e4004 06000000 8d038e04 8f050406  ..@.............
 3ffe95c0 00000080 018c0200 e4472040 d895fe3f  .........G @...?
 3ffe95d0 b84aff3f                             .J.?            
Contents of section .irom0.text:
 40201010 5c99fe3f 6899fe3f 88102040 788cfe3f  \..?h..?.. @x..?
 40201020 540e1040 20131040 c4121040 cc240040  T..@ ..@...@.$.@
 40201030 12c1f009 31c92101 faffc000 0041f4ff  ....1.!......A..
 40201040 c1f5ff31 f5ff2904 c02c2001 f6ffc000  ...1..).., .....
 40201050 002d0c01 f5ffc000 008cb221 f0ff01f3  .-.........!....
 40201060 ffc00000 06ffff00 0831c821 12c1100d  .........1.!....
 40201070 f0000000 0c020df0 0df00000 0df00000  ................
 40201080 5899fe3f 700e1040 12c1f0c2 6102c1fc  X..?p..@....a...
 40201090 ff026103 220c00cc 92452801 4535010c  ..a."....E(.E5..
 402010a0 12224c00 45fdff45 29014539 0122a000  ."L.E..E).E9."..
 402010b0 3d024d02 01f4ffc0 00000831 c82112c1  =.M........1.!..
 402010c0 100df000 c895fe3f cc95fe3f 12c1f0c9  .......?...?....
 402010d0 21d911c1 fcffd1fc ff0931d7 1c09280c  !.........1...(.
 402010e0 4bccc002 00d79cf5 0831c821 d81112c1  K........1.!....
 402010f0 100df000 21c7ff28 020df000 06ffff00  ....!..(........
 40201100 e8121040 21c4ff12 c1f00931 01fdffc0  ...@!......1....
 40201110 00000831 12c1100d f0000000 0c0212c1  ...1............
 40201120 f03d024d 02093101 d7ffc000 00083112  .=.M..1.......1.
 40201130 c1100df0 0c0212c1 f03d024d 02093101  .........=.M..1.
 40201140 d1ffc000 0021b3ff 01eeffc0 00000831  .....!.........1
 40201150 12c1100d f0000000 30102040 6099fe3f  ........0. @`..?
 40201160 a8121040 12c1f002 61030514 0085f0ff  ...@....a.......
 40201170 21a9ff01 fbffc000 0021f7ff 41f8ff32  !........!..A..2
 40201180 a00052a0 01853f08 083112c1 100df000  ..R...?..1......
 40201190 12c1f009 3145f8ff 083112c1 100df000  ....1E...1......
 402011a0 20bafe3f 1cbafe3f 12c1f002 6103019c   ..?...?....a...
 402011b0 ffc00000 31fbff48 0347b208 41faff58  ....1..H.G..A..X
 402011c0 041b5559 04083129 0312c110 0df00000  ..UY..1)........
 402011d0 38bafe3f 90112040 482c0040 98061040  8..?.. @H,.@...@
 402011e0 402d0040 12c1f0c9 210931d9 11cd02ac  @-.@....!.1.....
 402011f0 a2d1f7ff 31f8ff2d 0d0c0401 f7ffc000  ....1..-........
 40201200 002d0d3d 0c0c040c 1501f4ff c0000045  .-.=...........E
 40201210 efff2d0d 01f3ffc0 00004601 00c5efff  ..-.......F.....
 40201220 05eeff02 2103c221 02d81112 c1100df0  ....!..!........
 40201230 37894100 fc721040 12c1f009 31c92101  7.A..r.@....1.!.
 40201240 78ffc000 0041d6ff 0c134804 4732010c  x....A....H.G2..
 40201250 0341d4ff c80441f6 ffc03380 40c38232  .A....A...3.@..2
 40201260 a3e801f4 ffc00000 08312a2c c82112c1  .........1*,.!..
 40201270 100df000 12c1f002 61030169 ffc00000  ........a..i....
 40201280 083112c1 100df000 cc2e0040 12c1f002  .1.........@....
 40201290 610301fd ffc00000 083112c1 100df000  a........1......
 402012a0 24bafe3f a8112040 60ea0000 12c1f009  $..?.. @`.......
 402012b0 31c92185 5100c55c 00c1f9ff 31faff2d  1.!.Q..\....1..-
 402012c0 0c0c0401 c5ffc000 000c1431 f7ff2d0c  ...........1..-.
 402012d0 5d0401c2 ffc00000 0831c821 12c1100d  ]........1.!....
 402012e0 f0000000 ca000018 14030060 4086fe3f  ...........`@..?
 402012f0 00080060 10030060 a0070060 90070060  ...`...`...`...`
 40201300 74070060 12c1f0c9 31d92120 20740cf4  t..`....1.!  t..
 40201310 30307427 b402868a 0042a0f8 47130246  00t'.....B..G..F
 40201320 210031f0 ff42a780 3a32e033 11c02000  !.1..B..:2.3.. .
 40201330 680351ee ff406610 c0200069 030c1431  h.Q..@f.. .i...1
 40201340 eaff0012 400064a1 2a55c020 00690352  ....@.d.*U. .i.R
 40201350 050031e7 ff7cd660 62103a55 0c034716  ..1..|.`b.:U..G.
 40201360 2737120f 468f0000 42c2f340 4074f634  '7..F...B..@@t.4
 40201370 0ac68a00 32a100c6 01000000 707074b6  ....2.......ppt.
 40201380 47068c36 1c044033 20c02000 39052632  G..6..@3 . .9.&2
 40201390 02068a00 c0200038 0522a080 202320c0  ..... .8.".. # .
 402013a0 20002905 46850000 0c844043 10165408   .).F.....@C..T.
 402013b0 81cdff30 64418a82 e08811c0 2000d808  ...0dA...... ...
 402013c0 0c4c0c2b 0c09c0c6 10b0b610 42a1002c  .L.+........B..,
 402013d0 05a2a780 c0498360 600471c4 ffa0ad10  .....I.``.q.....
 402013e0 b05983c0 2000a908 4055200c 18c04611  .Y.. ...@U ...F.
 402013f0 61beff2a 77001240 0088a1c0 20008906  a..*w..@.... ...
 40201400 72070061 bbff5044 206a77c0 20004907  r..a..PD jw. .I.
 40201410 22c2f397 1202c668 0032c3b8 97130286  "......h.2......
 40201420 6600c020 00380722 a0802023 20c02000  f.. .8.".. # . .
 40201430 2907c661 00007cd5 50631066 165f61ab  )..a..|.Pc.f._a.
 40201440 ff2a6672 060061aa ff6a6757 020a52c2  .*fr..a..jgW..R.
 40201450 fc505074 b625013c 04c02000 490641a1  .PPt.%.<.. .I.A.
 40201460 ff52a780 4a42e044 11c02000 68045056  .R..JB.D.. .h.PV
 40201470 10c02000 59046633 0ec02000 58040c43  .. .Y.f3.. .X..C
 40201480 303520c0 20003904 0c130012 400023a1  05 . .9.....@.#.
 40201490 3199ffc0 20002903 46480000 00000c15  1... .).FH......
 402014a0 7cb66063 108d0572 c3fe6084 93704583  |.`c...r..`..pE.
 402014b0 cc181674 10718dff 618eff2a 57820500  ...t.q..a..*W...
 402014c0 7cd96a88 0c059702 0a92c2fc 909074b6  |.j...........t.
 402014d0 29013c05 c0200059 085182ff 8183ff0c  ).<.. .Y.Q......
 402014e0 19001240 0099a15a 52c02000 9908e055  ...@...ZR. ....U
 402014f0 11c02000 980582a7 80809910 0c488089  .. ..........H..
 40201500 20c02000 89059ca4 2a272202 006a62c0   . .....*'"..jb.
 40201510 20003806 22a08020 2320c020 00290686   .8.".. # . .)..
 40201520 26000000 26430286 24002a27 2202006a  &...&C..$.*'"..j
 40201530 62c02000 38064c02 202320c0 20002906  b. .8.L. # . .).
 40201540 461e0000 66b27521 6cff0c14 c0200049  F...f.u!l.... .I
 40201550 02416aff 0c05c020 0059047c b4478328  .Aj.... .Y.|.G.(
 40201560 664310c0 20004802 32a00830 3420c020  fC.. .H.2..04 . 
 40201570 00326200 2163ff7c e3c02000 48023034  .2b.!c.|.. .H.04
 40201580 10c02000 3902c60c 00661330 215dffc0  .. .9....f.0!]..
 40201590 20004802 303420c0 20003902 46070000   .H.04 . .9.F...
 402015a0 2c038675 ff72c2f4 70348330 307456e3  ,..u.r..p4.00tV.
 402015b0 fe82c2fe 80348356 53fe866a ffc831d8  .....4.VS..j..1.
 402015c0 2112c110 0df00000 04030060 08030060  !..........`...`
 402015d0 68070060 2020740c f4303004 2734289c  h..`  t..00.'4(.
 402015e0 130c1300 12400023 a131f7ff c0200029  .....@.#.1... .)
 402015f0 030df000 0c130012 400023a1 31f4ffc0  ........@.#.1...
 40201600 20002903 0df00000 66b22021 f1ffc020   .).....f. !... 
 40201610 0048028c b30c1330 3420c020 0039020d  .H.....04 . .9..
 40201620 f0007ce3 303410c0 20003902 0df00000  ..|.04.. .9.....
 40201630 18030060 8c070060 2030740c f2373219  ...`...` 0t..72.
 40201640 21fcff0c 14c02000 28020013 400034a1  !..... .(...@.4.
 40201650 2033100c 02302493 0df00c02 66b30a21   3...0$.....f..!
 40201660 f5ffc020 00280220 20040df0 1c030060  ... .(.  ......`
 40201670 24030060 50bafe3f 54bafe3f 980f0040  $..`P..?T..?...@
 40201680 a80f0040 21faff12 c1d0c9a1 c02000c8  ...@!........ ..
 40201690 0221f7ff 09b1d991 e981f971 c02000c9  .!.........q. ..
 402016a0 0216bc05 d1f4ff28 0d163205 1c0201f3  .......(..2.....
 402016b0 ffc00000 f80df0fc 10bcbf0c 0c0c1e46  ...............F
 402016c0 00001bcc 001c4000 2ea1270f f431eaff  ......@...'..1..
 402016d0 30dcb052 0d007cf3 20633050 5004c020  0..R..|. c0PP.. 
 402016e0 74590160 ff1005f5 ff580127 9506281d  tY.`.....X.'..(.
 402016f0 8c12c002 0056bffc 1c0201e1 ffc00000  .....V..........
 40201700 08b1c8a1 d891e881 f87112c1 300df000  .........q..0...
 40201710 2020740c f527354f 71d7ff0c 15880761    t..'5Oq......a
 40201720 d6ff91f0 fe001240 0055a160 62b08085  .......@.U.`b...
 40201730 209a2242 46008907 e02211c0 20007802   ."BF....".. .x.
 40201740 391632a8 7f303710 c0200039 0231c8ff  9.2..07.. .9.1..
 40201750 404034c0 20005903 c0200038 02904411  @@4. .Y.. .8..D.
 40201760 404320c0 20004902 0df00000 2020740c  @C . .I.....  t.
 40201770 f3273345 31dcfe42 a87f3a32 e03311c0  .'3E1..B..:2.3..
 40201780 20005803 7cf64045 10c02000 490351b8   .X.|.@E.. .I.Q.
 40201790 ff0c1400 12400044 a131b6ff c0200049  .....@.D.1... .I
 402017a0 05580340 463061b4 ff504410 6022b049  .X.@F0a..PD.`".I
 402017b0 030c0332 42000c03 39120df0 0c000060  ...2B...9......`
 402017c0 0c0f0060 84162040 880f0040 12c1f00c  ...`.. @...@....
 402017d0 02c92109 31d91105 910521f8 ff0c0cc0  ..!.1.....!.....
 402017e0 2000c902 21f7ffc0 2000c262 00c02c20   ...!... ..b.., 
 402017f0 32a000c2 cc01c5b0 ff666cf0 0ccc1c1d  2........fl.....
 40201800 c02c2032 a000c2cc 0185afff d79cf031  ., 2...........1
 40201810 edff4198 ff0c4201 ecffc000 001c0201  ..A...B.........
 40201820 98ffc000 000831c8 21d81112 c1100df0  ......1.!.......
 40201830 08060060 0400f03f 0c060060 b04aff3f  ...`...?...`.J.?
 40201840 21fcff12 c1f0c020 00380209 314c1227  !...... .8..1L.'
 40201850 831121f8 ff7cd3c0 20004802 303410c0  ..!..|.. .H.04..
 40201860 20003902 21f5ff0c 03c02000 390221f3   .9.!..... .9.!.
 40201870 ff280237 1202c002 00083112 c1100df0  .(.7......1.....
 40201880 40182040 31ffff12 c1f00c92 0c040931  @. @1..........1
 40201890 01ceffc0 00000831 12c1100d f0000000  .......1........
 402018a0 12c1f031 e6ff0931 22630022 a2000174  ...1...1"c."...t
 402018b0 ffc00000 083112c1 100df000 12c1f021  .....1.........!
 402018c0 ddff31de ff09310c 044903c0 20004802  ..1...1..I.. .H.
 402018d0 7cd33034 10c02000 32620022 a2000167  |.04.. .2b."...g
 402018e0 ffc00000 083112c1 100df000 40400430  .....1......@@.0
 402018f0 3004a044 11404320 20201432 a0803044  0..D.@C   .2..0D
 40201900 20e02211 20442021 caff0c03 c0200049   .". D !..... .I
 40201910 0221c9ff c0200039 020df000 ffff7f00  .!... .9........
 40201920 00060060 31feff41 feff3022 10c02000  ...`1..A..0".. .
 40201930 290421bf ffc02000 280207e2 1221bdff  ).!... .(....!..
 40201940 0c23c020 00480230 3420c020 00326200  .#. .H.04 . .2b.
 40201950 0df00000 31b7ff0c 02c02000 290331b6  ....1..... .).1.
 40201960 ffc02000 29030df0 12c1e03d 010ca409  .. .)......=....
 40201970 71057708 087112c1 200df000 12c1e03d  q.w..q.. ......=
 40201980 010ca409 71c57508 087112c1 200df000  ....q.u..q.. ...
 40201990 12c1e010 31200261 07458308 02210712  ....1 .a.E...!..
 402019a0 c1200df0 0b3337b2 12520200 42030052  . ...37..R..B..R
 402019b0 43004242 000b331b 223732ec 0df00000  C.BB..3."72.....
 402019c0 ac93fe3f 98721040 12c1d0c9 a1291109  ...?.r.@.....)..
 402019d0 b1d991e9 81f97152 c4fe3901 0ce2cd04  ......qR..9.....
 402019e0 57b2080c 02224300 86170000 2811d1f4  W...."C.....(...
 402019f0 fff80120 e1602d0e c03c2001 f2ffc000  ... .`-..< .....
 40201a00 00c03282 305ec05a 5d320500 ed02324f  ..2.0^.Z]2....2O
 40201a10 001bff56 f2fd3811 2d0fd663 002cd31b  ...V..8.-..c.,..
 40201a20 ff324200 58010b4f 4735080c 02224f00  .2B.X..OG5..."O.
 40201a30 86050000 32050022 04003244 00224500  ....2.."..2D."E.
 40201a40 0b441b55 4735ec06 f8ff08b1 2801c8a1  .D.UG5......(...
 40201a50 d891e881 f87112c1 300df000 12c1d0c9  .....q..0.......
 40201a60 a1291109 b1d991e9 81f97152 c4fe3901  .)........qR..9.
 40201a70 0ce2cd04 57b2080c 02224300 86170000  ....W...."C.....
 40201a80 2811d1cf fff80120 e1602d0e c03c2001  (...... .`-..< .
 40201a90 cdffc000 00c03282 305ec05a 5d320500  ......2.0^.Z]2..
 40201aa0 ed02324f 001bff56 f2fd3811 2d0fd663  ..2O...V..8.-..c
 40201ab0 002cd31b ff324200 58010b4f 4735080c  .,...2B.X..OG5..
 40201ac0 02224f00 86050000 32050022 04003244  ."O.....2.."..2D
 40201ad0 00224500 0b441b55 4735ec06 f8ff08b1  ."E..D.UG5......
 40201ae0 2801c8a1 d891e881 f87112c1 300df000  (........q..0...
 40201af0 12c1d039 01c9a1d9 91e981f9 7109b1fd  ...9........q...
 40201b00 0232c4fe 0ce2cd04 e801d1ad ff37b209  .2...........7..
 40201b10 0c02224e 00c61200 00002d0f 3d0c01c5  .."N......-.=...
 40201b20 fdc00000 c052821b 3e50ffc0 fafd520f  .....R..>P....R.
 40201b30 00fd0252 4e008c32 ed0306f7 ff4801e7  ...RN..2.....H..
 40201b40 34090c02 22430046 06000000 6204000b  4..."C.F....b...
 40201b50 2e624e00 5244001b 4427b4e5 520200ed  .bN.RD..D'..R...
 40201b60 02c6f9ff 08b12801 c8a1d891 e881f871  ......(........q
 40201b70 12c1300d f0000000 12c1d039 01c9a1d9  ..0........9....
 40201b80 91e981f9 7109b1fd 0232c4fe 0ce2cd04  ....q....2......
 40201b90 e801d18b ff37b209 0c02224e 00c61200  .....7...."N....
 40201ba0 00002d0f 3d0c01a3 fdc00000 c052821b  ..-.=........R..
 40201bb0 3e50ffc0 fafd520f 00fd0252 4e008c32  >P....R....RN..2
 40201bc0 ed0306f7 ff4801e7 34090c02 22430046  .....H..4..."C.F
 40201bd0 06000000 6204000b 2e624e00 5244001b  ....b....bN.RD..
 40201be0 4427b4e5 520200ed 02c6f9ff 08b12801  D'..R.........(.
 40201bf0 c8a1d891 e881f871 12c1300d f0000000  .......q..0.....
 40201c00 00000000 0000e03f 2093fe3f ffffff7f  .......? ..?....
 40201c10 ffffffff ffffef7f 2493fe3f 000000e0  ........$..?....
 40201c20 ffffef41 ffffefc1 2893fe3f 00000080  ...A....(..?....
 40201c30 00002440 c093fe3f b892fe3f 781d1040  ..$@...?...?x..@
 40201c40 882a0040 8c1c1040 681c1040 141d1040  .*.@...@h..@...@
 40201c50 141b1040 70181040 a41d1040 b8141040  ...@p..@...@...@
 40201c60 ec1d1040 84731040 08161040 12c1d0c9  ...@.s.@...@....
 40201c70 a1d991cd 03dd02e9 814d0d50 e0745d0c  .........M.P.t].
 40201c80 09b1f971 690101ed ffc00000 8cc231de  ...qi.........1.
 40201c90 ff280101 ebffc000 00466a00 61dcff41  .(.......Fj.a..A
 40201ca0 dcff60fc 1051dbff 2d0d3d0f 01e4ffc0  ..`..Q..-.=.....
 40201cb0 0000dcf2 41d7ff51 d7ff2d0d 3d0f01e1  ....A..Q..-.=...
 40201cc0 ffc00000 a6120d31 d4ff2801 01ddffc0  .......1..(.....
 40201cd0 0000065c 0041d1ff 51d2ff2d 0d3d0c01  ...\.A..Q..-.=..
 40201ce0 daffc000 00e61213 41cdff51 ceff2d0d  ........A..Q..-.
 40201cf0 c03c2001 d6ffc000 00d6f200 31cbff22  .< .........1.."
 40201d00 210001cf ffc00000 864e0000 41bdff51  !........N..A..Q
 40201d10 bcff2d0d 3d0c01cd ffc00000 d6520138  ..-.=........R.8
 40201d20 012cd222 43001b23 291121c0 ff20cc30  .,."C..#).!.. .0
 40201d30 46010000 00380139 11163e0b 21b1ff31  F....8.9..>.!..1
 40201d40 b1ff0c0f 41afff51 baff01c1 ffc00000  ....A..Q........
 40201d50 1b6f60f0 74e79feb 060e0000 41a9ff51  .o`.t.......A..Q
 40201d60 b4ff6026 20703720 01bbffc0 000082cc  ..`& p7 ........
 40201d70 ff80c074 6d027d03 560cfe3d 072d0601  ...tm.}.V..=.-..
 40201d80 b6ffc000 005d0231 abff2811 4d0e85e2  .....].1..(.M...
 40201d90 07462c00 4d025d03 2d0d3d0c 01b0ffc0  .F,.M.].-.=.....
 40201da0 0000cd02 dd0301ae ffc00000 8d028921  ...............!
 40201db0 01adffc0 00004d02 5d032d0c 3d0d01aa  ......M.].-.=...
 40201dc0 ffc00000 88216d02 7d032811 319bff4d  .....!m.}.(.1..M
 40201dd0 08692179 3105de07 3811cd0e 2a232ce3  .i!y1...8...*#,.
 40201de0 3242001b 22291168 21783146 dbff0000  2B..").h!x1F....
 40201df0 4184ff51 84ffd02d 20c03c20 0198ffc0  A..Q...- .< ....
 40201e00 000030d3 20cd0201 96ffc000 008d0289  ..0. ...........
 40201e10 210194ff c000004d 025d032d 0c3d0d01  !......M.].-.=..
 40201e20 92ffc000 0088216d 027d0328 113182ff  ......!m.}.(.1..
 40201e30 4d086921 793105d8 07381168 212a2329  M.i!y1...8.h!*#)
 40201e40 11783106 cdff08b1 2801c8a1 d891e881  .x1.....(.......
 40201e50 f87112c1 300df000 dcbcfe3f ddbcfe3f  .q..0......?...?
 40201e60 2080fe3f 21fdff0c 15320200 211ffd00   ..?!....2..!...
 40201e70 13400035 a1c02000 390231f8 ff620300  .@.5.. .9.1..b..
 40201e80 31ecfd00 16400065 a1c02000 6902c020  1....@.e.. .i.. 
 40201e90 0048030c 02470640 41f2ff42 04002714  .H...G.@A..B..'.
 40201ea0 1ec02000 58031b22 4732f546 07000000  .. .X.."G2.F....
 40201eb0 c0200058 031b2247 32f50c12 0df00000  . .X.."G2.......
 40201ec0 310dfd2d 05c02000 69030df0 510afd0c  1..-.. .i...Q...
 40201ed0 02c02000 690586f5 ff0df000 21dfff0c  .. .i.......!...
 40201ee0 13620200 2104fd00 16400063 a141dbff  .b..!....@.c.A..
 40201ef0 c0200069 02820400 00184000 83a1c020  . .i......@.... 
 40201f00 00890221 d7ff31ca fd520200 0c0216a5  ...!..1..R......
 40201f10 00c02000 480322c2 015732f4 71f3fc22  .. .H."..W2.q.."
 40201f20 a0c9c020 00626700 c0200048 030b2247  ... .bg.. .H.."G
 40201f30 86025622 ffac750c 02c02000 48031b22  ..V"..u... .H.."
 40201f40 5732f5c6 03000000 c0200048 031b2257  W2....... .H.."W
 40201f50 32f5c603 0000c020 0089070c 02c6f9ff  2...... ........
 40201f60 c0200089 070c120d f0000000 41bbff0c  . ..........A...
 40201f70 13620400 41e0fc00 16400063 a1c02000  .b..A....@.c.. .
 40201f80 690471d9 fc9c4221 b5ff2202 00001240  i.q...B!.."....@
 40201f90 0033a1c0 20003907 86040000 0021afff  .3.. .9......!..
 40201fa0 22020000 12400033 a1c02000 390421ac  "....@.3.. .9.!.
 40201fb0 ff319ffd 5202000c 021b5550 507416a5  .1..R.....UPPt..
 40201fc0 00c02000 480322c2 015732f4 c0200069  .. .H."..W2.. .i
 40201fd0 0722a0c9 c0200048 030b2247 86025622  ."... .H.."G..V"
 40201fe0 ff8cb50c 02c02000 480322c2 015732f4  ...... .H."..W2.
 40201ff0 0c120df0 3199ff0c 12520300 31befc00  ....1....R..1...
 40202000 15400052 a1c02000 59033194 ff91b6fc  .@.R.. .Y.1.....
 40202010 82030031 87fd0018 400082a1 2191ffc0  ...1....@...!...
 40202020 20008909 6202000c 021b4640 407416a4   ...b.....F@@t..
 40202030 00c02000 780322c2 014732f4 c0200059  .. .x."..G2.. .Y
 40202040 0922a0c9 c0200048 030b2247 85025622  ."... .H.."G..V"
 40202050 ffc02000 280342a0 00208810 22a00180  .. .(.B.. .."...
 40202060 24832020 74471609 c0200058 031b4467  $.  tG... .X..Dg
 40202070 34f50df0 12c1f0c9 21d91109 31dd02c2  4.......!...1...
 40202080 a0080bcc d02741c0 c074f0dd 11c5edff  .....'A..t......
 40202090 d0d07456 bcfec5f5 ff0c1308 31302230  ..tV........10"0
 402020a0 202074c8 21d81112 c1100df0 a0860100    t.!...........
 402020b0 400d0300 e0930400 801a0600 31fcff27  @...........1..'
 402020c0 33092167 ff1c2332 42000df0 31f9ff27  3.!g..#2B...1..'
 402020d0 33092163 ff0c8332 42000df0 31f6ff27  3.!c...2B...1..'
 402020e0 3309215f ff0c4332 42000df0 31f3ff27  3.!_..C2B...1..'
 402020f0 3309215b ff0c2332 42000df0 2159ff0c  3.![..#2B...!Y..
 40202100 13324200 0df00000 12c1f0c2 6102c152  .2B.........a..R
 40202110 ff026103 20407451 51ff324c 002d0432  ..a. @tQQ.2L.-.2
 40202120 a0024245 00c51dff 220c000c 23451dff  ..BE...."...#E..
 40202130 214cff1c 23324200 0831c821 12c1100d  !L..#2B..1.!....
 40202140 f0000000 12c1f021 45ff0261 03220200  .......!E..a."..
 40202150 32a00005 1bff2140 ff32a000 22020045  2.....!@.2.."..E
 40202160 1aff0831 12c1100d f0000000 12c1e0c9  ...1............
 40202170 61d951e9 41f931cd 03026107 40e42020  a.Q.A.1...a.@.  
 40202180 d07450f0 74c5cdff 0c43bc02 f0dd11d0  .tP.t....C......
 40202190 207405ee ff0c23ac 32eadccc 5e9c6f46   t....#.2...^.oF
 402021a0 04000000 220c001b cc85ecff 8cc2d79c  ...."...........
 402021b0 f206faff 45d2ff0c 03460000 0c330871  ....E....F...3.q
 402021c0 2d03c861 d851e841 f83112c1 200df000  -..a.Q.A.1.. ...
 402021d0 12c1d0c9 a1d991e9 81f971dd 0309b1cd  ..........q.....
 402021e0 0420f074 50e074c5 c7ff0c43 16620cf0  . .tP.t....C.b..
 402021f0 ff110c12 202f2020 207485e7 ff0c2316  .... /   t....#.
 40202200 320bca2d 2901cc3c accec60b 000c8c0c  2..-)..<........
 40202210 0f05deff f03f110b cc302220 c0c07420  .....?...0" ..t 
 40202220 f07456bc fe2d0c45 d4ff2801 f24d001b  .tV..-.E..(..M..
 40202230 dd279dd8 06f4ff00 0c03061e 00c5c9ff  .'..............
 40202240 2107ffb1 29fc8202 002103ff 0cb67202  !...)....!....r.
 40202250 000c1200 18400082 a1001740 0072a121  .....@.....@.r.!
 40202260 00ff31f3 fc420200 9123fcad 0b860700  ..1..B...#......
 40202270 00c02000 7909aca4 c0200058 031b2247  .. .y.... .X.."G
 40202280 32f58609 00c02000 58031b22 4732f5c0  2..... .X.."G2..
 40202290 20002803 20281056 d2f90b66 5616fd46   .(. (.V...fV..F
 402022a0 e5ff0000 c0200079 0b86f8ff c0200079  ..... .y..... .y
 402022b0 0a0c0286 f3ff08b1 2d03c8a1 d891e881  ........-.......
 402022c0 f87112c1 300df000 12c1f002 6103c5df  .q..0.......a...
 402022d0 fe85e4fe 02210312 c1108000 00000000  .....!..........
 402022e0 12c1f022 a0010261 03855705 02210312  ..."...a..W..!..
 402022f0 c1100df0 c8222040 d8390040 12c1f022  ....." @.9.@..."
 40202300 a00032a2 b6026103 01fcffc0 000045e5  ..2...a.......E.
 40202310 fe21f8ff 45900502 210312c1 100df000  .!..E...!.......
 40202320 12c1f002 61030584 00c59d00 02210312  ....a........!..
 40202330 c1108000 00000000 dcbafe3f 12c1f021  ...........?...!
 40202340 feff0931 22020066 420205d0 00083112  ...1"..fB.....1.
 40202350 c1100df0 58bcfe3f d08cfe3f 20422031  ....X..?...? B 1
 40202360 feff21fc ff422400 12c1f002 6103854a  ..!..B$.....a..J
 40202370 02083112 c1100df0 dc8cfe3f 18bafe3f  ..1........?...?
 40202380 f0b9fe3f 31fdff21 f3ff12c1 f0026103  ...?1..!......a.
 40202390 c53a0861 faff32a0 01722600 21f9ff3a  .:.a..2..r&.!..:
 402023a0 770c045d 03790601 8dfbc000 00083112  w..].y........1.
 402023b0 c1100df0 7c8efe3f 12c1f0c2 6102c1e5  ....|..?....a...
 402023c0 ff31fcff c02c2009 31052908 31ecff2d  .1..., .1.).1..-
 402023d0 0c38030c a4855108 0831c821 12c1100d  .8....Q..1.!....
 402023e0 f0000000 00c20100 84232040 08bafe3f  .........# @...?
 402023f0 5c232040 12c1f022 a00c0c13 0931c921  \# @...".....1.!
 40202400 05f0fe21 d4ff31f7 ff42a01c 05f1010c  ...!..1..B......
 40202410 2341f6ff 21f5ff30 53204516 07c1d8ff  #A..!..0S E.....
 40202420 2d0c016f fbc00000 31f2ff41 d4ff2d0c  -..o....1..A..-.
 40202430 016afbc0 00000831 c82112c1 100df000  .j.....1.!......
 40202440 12c1f022 a0010261 0385d9fe 02210312  ..."...a.....!..
 40202450 c1100df0 1480fe3f 848efe3f b88efe3f  .......?...?...?
 40202460 34bcfe3f c48efe3f 8c101040 c82a0040  4..?...?...@.*.@
 40202470 b82a0040 92a0a090 11c0d261 25e26124  .*.@.......a%.a$
 40202480 f2612320 e220dd03 40f0f40c 033cc422  .a# . ..@....<."
 40202490 c1200261 27c26126 01f4ffc0 0000858f  . .a'.a&........
 402024a0 0542c15c c2c16826 12273d04 0c124261  .B.\..h&.'=...Ba
 402024b0 1cc2c168 85d9063d 0c0c12c5 f106282e  ...h...=......(.
 402024c0 32211722 22034221 1c203330 22211827  2!."".B!. 30"!.'
 402024d0 030e3d04 0c0285d7 060c02c0 3c2085ef  ..=.........< ..
 402024e0 0616fd07 c1dcff28 0c01e0ff c0000027  .......(.......'
 402024f0 9f71c80c 2d0c01dd ffc00000 4d023d0c  .q..-.......M.=.
 40202500 2d0d01db ffc00000 568205b2 016da201  -.......V....m..
 40202510 5c92015d 82015e22 015fd201 6bc2016c  \..]..^"._..k..l
 40202520 52016862 01697201 6a31cbff 41ccffb9  R.hb.ir.j1..A...
 40202530 21a93199 41895129 61d901c9 1122c120  !.1.A.Q)a....". 
 40202540 45670731 c8ff21c6 ff42c120 852c0222  Eg.1..!..B. .,."
 40202550 c12001c6 ffc00000 2040f432 c120e02e  . ...... @.2. ..
 40202560 20454f1f 02212792 a0a0c221 26d22125   EO..!'....!&.!%
 40202570 e22124f2 21239a11 0df00000 c88efe3f  .!$.!#.........?
 40202580 75bbfe3f dc8efe3f e48efe3f 12c1f041  u..?...?...?...A
 40202590 fcffc261 02c1b2ff 31f9ff42 0400d911  ...a....1..B....
 402025a0 dd022d0c 02610305 270231f6 ff2d0d0c  ..-..a..'.1..-..
 402025b0 64454a1f 4161ff31 f4ff2d0c 0c455244  dEJ.Aa.1..-..ERD
 402025c0 00452502 0831c821 d81112c1 100df000  .E%..1.!........
 402025d0 008ffe3f 76bbfe3f 002a2040 90262040  ...?v..?.* @.& @
 402025e0 148ffe3f e0bafe3f 8c252040 74bbfe3f  ...?...?.% @t..?
 402025f0 12c1e0c9 6131f6ff cd022199 ff0971d9  ....a1....!...q.
 40202600 51e941f9 31851308 f14cff0c 24424f00  Q.A.1....L..$BO.
 40202610 31f2ff41 f0ff0c0d 2d0cd244 00055d1f  1..A....-..D..].
 40202620 31efff2d 0c45591f 2d0c32a0 ff05811f  1..-.EY.-.2.....
 40202630 31ecff0c 742d0c05 421fe1ea ff31d0ff  1...t-..B....1..
 40202640 2d0ed243 0001e6fa c0000031 e7ff2d0e  -..C.......1..-.
 40202650 c04c2001 e1fac000 002d0e32 a3e80c04  .L ......-.2....
 40202660 0c1501de fac00000 21e1ffd2 42000c32  ........!...B..2
 40202670 224f0008 71c861d8 51e841f8 3112c120  "O..q.a.Q.A.1.. 
 40202680 0df00000 d4bafe3f 540f1040 700f1040  .......?T..@p..@
 40202690 31fdff12 c1e0c261 06c22300 f9310971  1......a..#..1.q
 402026a0 d951e941 fd02ac7c d82cac3d 2d0d01f6  .Q.A...|.,.=-...
 402026b0 ffc00000 ed023d0e 4d0d2d0c c544022d  ......=.M.-..D.-
 402026c0 0f3d0ed0 40f40539 1f2d0e01 f0ffc000  .=..@..9.-......
 402026d0 000871c8 61d851e8 41f83112 c1200df0  ..q.a.Q.A.1.. ..
 402026e0 5086fe3f 1c8ffe3f 448ffe3f 30bcfe3f  P..?...?D..?0..?
 402026f0 808ffe3f 1080fe3f f4bafe3f 12c1f0d9  ...?...?...?....
 40202700 11d10dff 0931c921 220d00b6 6202c639  .....1.!"...b..9
 40202710 0031f3ff 3032a038 03a00300 000000c1  .1..02.8........
 40202720 50ff31f0 ff2d0c05 0f0231ef ffc02c20  P.1..-....1..., 
 40202730 c500080c 02203220 85e9fec1 ecffc02c  ..... 2 .......,
 40202740 20451d01 86fdffc1 46ff31e9 ff2d0c85   E......F.1..-..
 40202750 0c0231e5 ffc02c20 45fe070c 02203220  ..1..., E.... 2 
 40202760 05e7fec1 e2ffc02c 20c51a01 86fdff00  ......., .......
 40202770 0000c1e0 ff320c00 27131e21 dfff32a0  .....2..'..!..2.
 40202780 3242a000 52a00101 95fac000 000c023d  2B..R..........=
 40202790 0205e4fe 220d0046 180022a0 0085e9fe  ...."..F..".....
 402027a0 32a3e8a6 12013c23 21d4ff0c 0452a001  2.....<#!....R..
 402027b0 018bfac0 00000c02 c5e7fe7c f3203330  ...........|. 30
 402027c0 3030740c 02c5e0fe 220d0046 0b0021ca  00t....."..F..!.
 402027d0 ff32a3e8 0c040c15 0181fac0 00000c02  .2..............
 402027e0 45e5fe7c f3203330 3030740c 0245defe  E..|. 3000t..E..
 402027f0 220d00c1 c0ff8600 00c1beff 224c0008  "..........."L..
 40202800 31c821d8 1112c110 0df00000 a88ffe3f  1.!............?
 40202810 3cbbfe3f 1cbbfe3f 6886fe3f 28bbfe3f  <..?...?h..?(..?
 40202820 401f0000 f0252040 f0282040 fc262040  @....% @.( @.& @
 40202830 b4180040 dc601040 31f5ff21 09ff12c1  ...@.`.@1..!....
 40202840 e00971c9 61d951e9 41c5fc01 21f3ffc1  ..q.a.Q.A...!...
 40202850 f0ff1c09 82020072 02016202 02520203  .......r..b..R..
 40202860 990c21ee ff91ebff 0c440c0d 3d01992c  ..!......D..=..,
 40202870 82410072 41016241 02524103 d91c01ec  .A.rA.bA.RA.....
 40202880 ffc00000 21e7ffe8 2c290e01 eaffc000  ....!...,)......
 40202890 0031e4ff 291e2d0c 45341f31 e3ff2d0c  .1..).-.E4.1..-.
 402028a0 85351fc0 2c204508 1fc193ff c02c2001  .5.., E......, .
 402028b0 4cfac000 0031ddff 2d0c4d0d 0147fac0  L....1..-.M..G..
 402028c0 00000c13 2d0c4d0d 5d030144 fac00000  ....-.M.]..D....
 402028d0 219afed2 42000871 c861d851 e84112c1  !...B..q.a.Q.A..
 402028e0 200df000 c08ffe3f 08bbfe3f 38282040   ......?...?8( @
 402028f0 80430121 dbfe31fb ff12c1f0 40483102  .C.!..1.....@H1.
 40202900 6103c261 0205f101 3133ff22 030022c2  a..a....13."..".
 40202910 01202074 224300b6 520a2187 fe0c1332  .  t"C..R.!....2
 40202920 4200860b 00c1f0ff 2d0c012d fac00000  B.......-..-....
 40202930 31efff2d 0c0c0401 28fac000 002d0c32  1..-....(....-.2
 40202940 a3e80c04 0c150125 fac00000 217bfe0c  .......%....!{..
 40202950 03324200 0831c821 12c1100d f0000000  .2B..1.!........
 40202960 6c86fe3f dc8ffe3f ec8ffe3f 0490fe3f  l..?...?...?...?
 40202970 2490fe3f 3490fe3f 77bbfe3f 12c1f0c9  $..?4..?w..?....
 40202980 210931cd 03f65261 41f6ff40 42a04804  !.1...RaA..@B.H.
 40202990 a0040000 31f4ff21 b2fec5e7 01461200  ....1..!.....F..
 402029a0 31f2ff21 affe05e7 01460f00 31f0ff21  1..!.....F..1..!
 402029b0 acfe45e6 01460c00 31eeff21 a9fe85e5  ..E..F..1..!....
 402029c0 012d0cc5 b605c5df 0545d605 86060000  .-.......E......
 402029d0 31e9ff21 a3fe1011 20c5e301 10112005  1..!.... ..... .
 402029e0 ea2c21e5 ff0c1332 42000831 c82112c1  .,!....2B..1.!..
 402029f0 100df000 4c90fe3f d8bafe3f 18111040  ....L..?...?...@
 40202a00 12c1f051 4dfe0931 5205006d 034040f4  ...QM..1R..m.@@.
 40202a10 26350526 451ac60a 0031f6ff 2d0601f7  &5.&E....1..-...
 40202a20 ffc00000 9cd221d6 fe0c1332 4200c604  ......!....2B...
 40202a30 0021f1ff 22220016 a2003222 03473304  .!..""....2".G3.
 40202a40 3d064504 02083112 c1100df0 58bbfe3f  =.E...1.....X..?
 40202a50 74242040 88081040 12c1f0c9 21c1fbff  t$ @...@....!...
 40202a60 09312c03 1c02390c 01fbffc0 000031f8  .1,...9.......1.
 40202a70 ff4d0252 a4012d0c 492c5914 05171f2d  .M.R..-.I,Y....-
 40202a80 0cc5f81e 0831c821 12c1100d f0000000  .....1.!........
 40202a90 4cbafe3f 12c1f041 28fec261 02d26101  L..?...A(..a..a.
 40202aa0 0931e901 520400dd 02cd0366 45712158  .1..R......fEq!X
 40202ab0 ff3812a6 13692643 3e0ca43d 0dc7a42b  .8...i&C>..=...+
 40202ac0 45f91e50 6f002020 00002000 30200021  E..Po.  .. .0 .!
 40202ad0 edfee1ef ff2802ab 3d42ccf6 590e85fa  .....(..=B..Y...
 40202ae0 01280e20 e6132020 00c60c00 c040f485  .(. ..  .....@..
 40202af0 f61e860a 00000000 506f0020 20000020  ........Po.  .. 
 40202b00 00302000 21e0fee1 e2ff2222 00d03d20  .0 .!.....""..= 
 40202b10 c04c2059 0e05f701 280e20e6 13202000  .L Y....(. ..  .
 40202b20 0831c821 d811e801 12c1100d f0000000  .1.!............
 40202b30 12c1e022 41000c13 2d010261 0745f5ff  ..."A...-..a.E..
 40202b40 087112c1 200df000 80240100 5490fe3f  .q.. ....$..T..?
 40202b50 7c292040 8090fe3f a490fe3f bc90fe3f  |) @...?...?...?
 40202b60 d890fe3f f090fe3f 12c180d2 611dd13c  ...?...?....a..<
 40202b70 fe31f5ff 1cc42d0d 02611fc2 611ee261  .1....-..a..a..a
 40202b80 1cc57901 31f2ffd0 2d20c5c8 01c19aff  ..y.1...- ......
 40202b90 280c56e2 001c4285 ce01ed02 32a100c5  (.V...B.....2...
 40202ba0 ea01e90c c1b8fe28 0cccd21c 4205cd01  .......(....B...
 40202bb0 ed0232a0 8045e901 e90c0cd2 0c034574  ..2..E........Et
 40202bc0 fe0c020c 13c573fe 0cd2c5a6 fe20e220  ......s...... . 
 40202bd0 22a00156 9e030539 0531ddff c167ff2d  "..V...9.1...g.-
 40202be0 0ee24c00 05bb2c22 0c007cfe 26123c22  ..L...,"..|.&.<"
 40202bf0 a064055f fe22a000 c5a3fe20 2e302030  .d._."..... .0 0
 40202c00 740c0205 9dfe220c 006612e2 06070000  t....."..f......
 40202c10 0534052d 01c55b05 31cfff4d 0152c120  .4.-..[.1..M.R. 
 40202c20 d02d2045 bf01c5b9 0545b005 45c30520  .- E.....E..E.. 
 40202c30 c220e1ca ff665234 3d0122a0 00056106  . ...fR4=."...a.
 40202c40 31c6ff42 01005201 01620102 720103d0  1..B..R..b..r...
 40202c50 2d2045bc 0105e0ff c5bdffc1 b7fde1c1  - E.............
 40202c60 ff220c00 f62202c6 19000611 004d0c3d  ."...".......M.=
 40202c70 0e2d0d45 ba0122a3 e88556fe 45be050c  .-.E.."...V.E...
 40202c80 03cd022d 03c594fe 3c228555 fe0c130c  ...-....<".U....
 40202c90 020594fe 3c22c554 fe0c032d 034593fe  ....<".T...-.E..
 40202ca0 3c220554 fe0c020c 138592fe 665cbd46  <".T........f\.F
 40202cb0 e1ff31ab ffd02d20 c5b50102 211f92a0  ..1...- ....!...
 40202cc0 80c2211e d2211de2 211c9011 80800000  ..!..!..!.......
 40202cd0 0000e03e 20d02d20 c5b30122 a7d04550  ...> .- ..."..EP
 40202ce0 fe220c00 b622eac6 f1ff0000 80bbfe3f  ."...".........?
 40202cf0 84bbfe3f 78bbfe3f 7cbbfe3f 2cbcfe3f  ...?x..?|..?,..?
 40202d00 2091fe3f a00f1040 12c1f002 61030590   ..?...@....a...
 40202d10 0031f6ff 22a00022 630031f5 ff290331  .1..".."c.1..).1
 40202d20 f5ff2903 31f5ff29 0331f4ff 290385c1  ..).1..).1..)...
 40202d30 0121f3ff 01f4ffc0 00000831 12c1100d  .!.........1....
 40202d40 f0000000 12c1d0c9 a1cd021c c2d991e9  ................
 40202d50 81f97139 01791109 b1fd04ed 05dd0601  ..q9.y..........
 40202d60 4afec000 00380178 11bcf241 e1ff5804  J....8.x...A..X.
 40202d70 cc952904 41deff29 04460200 0041dbff  ..).A..).F...A..
 40202d80 58042904 29658207 00620701 52070242  X.).)e...b..R..B
 40202d90 07033912 0c03c902 f922e932 d9423962  ..9......".2.B9b
 40202da0 82421462 42155242 16424217 08b1c8a1  .B.bB.RB.BB.....
 40202db0 d891e881 f87112c1 300df000 e8101040  .....q..0......@
 40202dc0 12c1e0d9 51dd0221 caffc961 c802e941  ....Q..!...a...A
 40202dd0 f9310971 ed03fd04 ac5c380c 2c142d0d  .1.q.....\8.,.-.
 40202de0 01f7ffc0 00002c14 dc02381c e02e2001  ......,...8... .
 40202df0 f3ffc000 00cc3228 2cf71204 c86c568c  ......2(,....lV.
 40202e00 fd08712d 0cd851c8 61e841f8 3112c120  ..q-..Q.a.A.1.. 
 40202e10 0df00000 8086fe3f 481e1040 12c1e0c9  .......?H..@....
 40202e20 610971cd 020ca247 b2028633 0021f9ff  a.q....G...3.!..
 40202e30 2044a028 04a00200 2803c5b2 fe202160   D.(....(.... !`
 40202e40 224c000c 12462d00 2803c5b1 fe202160  "L...F-.(.... !`
 40202e50 20384122 4c00324c 010c22c6 27000000   8A"L.2L..".'...
 40202e60 00280385 b1fe2021 60060a00 280385af  .(.... !`...(...
 40202e70 fe224c00 0c120621 00000000 280385ae  ."L....!....(...
 40202e80 fe203841 224c0032 4c010c22 861b0000  . 8A"L.2L.."....
 40202e90 280385ae fe205841 2040f520 3875224c  (.... XA @. 8u"L
 40202ea0 00524c01 424c0232 4c030c42 86130000  .RL.BL.2L..B....
 40202eb0 00002223 0085adfe 01d8ffc0 00002261  .."#.........."a
 40202ec0 00220100 224c0022 0101224c 01220102  .".."L.".."L."..
 40202ed0 224c0222 0103224c 0322a004 86070042  "L.".."L.".....B
 40202ee0 03002203 01424c00 42030222 4c013203  .."..BL.B.."L.2.
 40202ef0 030c4242 4c02324c 03460000 0c020871  ..BBL.2L.F.....q
 40202f00 c86112c1 200df000 12c1f0d9 11e90109  .a.. ...........
 40202f10 31c921dd 02ed0330 6f002020 00002000  1.!....0o.  .. .
 40202f20 302000c1 dbfe1c02 390c01d7 fdc00000  0 ......9.......
 40202f30 5171ff0c 034805d9 22e93249 02391229  Qq...H..".2I.9.)
 40202f40 05379404 316dff29 03280c20 e6132020  .7..1m.).(. ..  
 40202f50 000831c8 21d811e8 0112c110 0df00000  ..1.!...........
 40202f60 78101040 12c1f009 31c921d9 11406f00  x..@....1.!..@o.
 40202f70 20200000 20003020 00c15fff d1c5fe38    .. .0 .._....8
 40202f80 0c490d0c 04471315 1c0401f5 ffc00000  .I...G..........
 40202f90 280c3812 390c01bd fdc00000 0c14280d  (.8.9.........(.
 40202fa0 20e61320 20000831 2d04c821 d81112c1   ..  ..1-..!....
 40202fb0 100df000 3891fe3f 4091fe3f 88bbfe3f  ....8..?@..?...?
 40202fc0 4491fe3f 94bbfe3f 4891fe3f ac86fe3f  D..?...?H..?...?
 40202fd0 04bcfe3f 4c91fe3f 5091fe3f 28bcfe3f  ...?L..?P..?(..?
 40202fe0 5491fe3f 6091fe3f 6891fe3f 7091fe3f  T..?`..?h..?p..?
 40202ff0 7c91fe3f 8091fe3f 8491fe3f b0bbfe3f  |..?...?...?...?
 40203000 9491fe3f 98bbfe3f 00bcfe3f b491fe3f  ...?...?...?...?
 40203010 c091fe3f e091fe3f d8bbfe3f b4bbfe3f  ...?...?...?...?
 40203020 0492fe3f 3492fe3f 4492fe3f fcbbfe3f  ...?4..?D..?...?
 40203030 9cbbfe3f a0bbfe3f 7492fe3f 9892fe3f  ...?...?t..?...?
 40203040 9c92fe3f 64101040 a4101040 12c1c0c9  ...?d..@...@....
 40203050 e1d9d1e9 c109f1f9 b1c1d8ff e1d6ffd1  ................
 40203060 d6ff060e 002d0ec5 75000ca2 3d0d0c04  .....-..u...=...
 40203070 85650038 2c0ca20c 04056500 31d1ff0c  .e.8,.....e.1...
 40203080 a20c0485 640031cf ff0c720c 04c56300  ....d.1...r...c.
 40203090 31ceff0c a242a000 05630005 7600c02c  1....B...c..v..,
 402030a0 2005ecff 56d2fbd1 caff062b 013113ff   ...V......+.1..
 402030b0 2803b672 02062701 31c5ff30 22a02802  (..r..'.1..0".(.
 402030c0 a0020000 00420d01 320d0222 0d03424d  .....B..2.."..BM
 402030d0 00324d01 224d02c5 530031be ff224d03  .2M."M..S.1.."M.
 402030e0 42a003d0 2d2001d7 ffc00000 16120131  B...- .........1
 402030f0 baff2d0d 0c3401d3 ffc00000 0c0ee792  ..-..4..........
 40203100 0f31b6ff 21b7ff0c 044903e2 a001456b  .1..!....I....Ek
 40203110 0031b4ff 2d0d0c44 01cbffc0 00008ce2  .1..-..D........
 40203120 31b2ff2d 0d42a004 01c7ffc0 0000cce2  1..-.B..........
 40203130 21abff0c 1ee902c5 4d0021ac ff456800  !.......M.!..Eh.
 40203140 31acff2d 0d0c3401 bfffc000 009c0231  1..-..4........1
 40203150 a9ffd02d 2042a003 01bbffc0 000056b2  ...- B........V.
 40203160 01319eff 42a00221 a4ff4263 0041e3fe  .1..B..!..Bc.A..
 40203170 0c733904 c5640045 6800c6f5 00164e3d  .s9..d.Eh.....N=
 40203180 05490031 9eff2243 0032a02f 37121131  .I.1.."C.2./7..1
 40203190 9cff22a0 0a42a000 05530005 6600c6ec  .."..B...S..f...
 402031a0 0051d6fe 0c133905 3197ff0c 02290331  .Q....9.1....).1
 402031b0 96ff2903 46e700c5 450062c2 f6c18fff  ..).F...E.b.....
 402031c0 42a00132 a0006034 83224c00 30307456  B..2..`4."L.00tV
 402031d0 a30072c2 f3704393 7d0416b4 04318aff  ..r..pC.}....1..
 402031e0 217cff48 033189ff 4a420c05 52440001  !|.H.1..JB..RD..
 402031f0 96ffc000 00ed02dc 523185ff 0ca24d0e  ........R1....M.
 40203200 854c0085 5f0071bd fee90786 d1000000  .L.._.q.........
 40203210 3181ff22 a00a42a0 00054b00 c55d0081  1.."..B...K..]..
 40203220 b7fe0c02 2908c6ca 002cffe1 77fff712  ....)....,..w...
 40203230 18480e1c f347a302 46eb0051 65ff1b34  .H...G..F..Qe..4
 40203240 4a65390e 22460086 c200480e 3161ff21  Je9."F....H.1a.!
 40203250 72ff4a53 42c40172 45000141 ffc00000  r.JSB..rE..A....
 40203260 31a7fe0c 2229030c 02290e86 b9000000  1...")...)......
 40203270 053a0022 4c00f792 f6c6f8ff 00000045  .:."L..........E
 40203280 390032c2 f6c15dff 0c1f0c0e 30ef8322  9.2...].....0.."
 40203290 4c00e0e0 74568e00 32c2f330 ef83164e  L...tV..2..0...N
 402032a0 022159ff 314bff48 02215cff 4a530c06  .!Y.1K.H.!\.JS..
 402032b0 42c40162 4500012a ffc00000 4190fe0c  B..bE..*....A...
 402032c0 32290486 a3002cf3 37922421 4fff3140  2)....,.7.$!O.1@
 402032d0 ff480221 52ff4a53 42c401e2 45000120  .H.!R.JSB...E.. 
 402032e0 ffc00000 5186fe0c 42290586 99000000  ....Q...B)......
 402032f0 3146ff1c f6480347 a6313135 ff2147ff  1F...H.G.115.!G.
 40203300 4a631b44 e2460001 16ffc000 00c69500  Jc.D.F..........
 40203310 26920246 94007179 fe0c3229 07068d00  &..F..qy..2)....
 40203320 8177fe0c 42290886 8a000000 6129ff1b  .w..B)......a)..
 40203330 544a4659 03224400 46860041 28ff2136  TJFY."D.F..A(.!6
 40203340 ff3136ff 42240085 a7ff20e2 20212dff  .16.B$.... . !-.
 40203350 e26200dc 5e3132ff 0ca24d0e c53600c5  .b..^12...M..6..
 40203360 49002166 fee90286 7a000000 220e1416  I.!f....z..."...
 40203370 5217864c 00000000 4119ff21 27ff3127  R..L....A..!'.1'
 40203380 ff422400 85a3ff20 e220211e ffe902dc  .B$.... . !.....
 40203390 5e3125ff 0ca24d0e 05330005 46005157  ^1%...M..3..F.QW
 402033a0 fee90586 6b000000 7155fe0c 53390731  ....k...qU..S9.1
 402033b0 1fff0c02 2903311e ff290331 13ff2903  ....).1..).1..).
 402033c0 46640005 250042c2 f6c10cff f2a00132  Fd..%.B........2
 402033d0 a000403f 83224c00 30307456 e31b42c2  ..@?."L.00tV..B.
 402033e0 f3403f83 56531b42 a02f4712 02c66f00  .@?.VS.B./G...o.
 402033f0 466a0000 61f7fe4a 46324400 06700000  Fj..a..JF2D..p..
 40203400 26920246 6e00c61d 0061f1fe 1b344a46  &..Fn....a...4JF
 40203410 390e2244 00060100 2cf33712 170c030c  9."D....,.7.....
 40203420 1452c2f6 8d0322c2 f3508483 20348330  .R...."..P.. 4.0
 40203430 38200612 0071fdfe 21f3fe38 07f1fcfe  8 ...q..!..8....
 40203440 48021b83 6901280f 3a4431fa fe420414  H...i.(.:D1..B..
 40203450 89072a23 3d016261 04059cff 880f320c  ..*#=.ba......2.
 40203460 000c040c 1572c3f6 2a2832c3 f38d0470  .....r..*(2....p
 40203470 85836841 30549329 0f490e50 38201633  ..hA0T.).I.P8 .3
 40203480 0d51eafe 21e0fe38 052802e6 330a3a42  .Q..!..8.(..3.:B
 40203490 420415dc 14c60000 00663324 3a224202  B........f3$:"B.
 402034a0 14ac1422 0600dcc2 31dffe22 a00a42a0  ..."....1.."..B.
 402034b0 00852100 45340031 11fe0c02 2903c624  ..!.E4.1....)..$
 402034c0 003a2242 0214f1da fe1b7328 0f31d9fe  .:"B......s(.1..
 402034d0 69012a23 10312079 050594ff 380f2a23  i.*#.1 y....8.*#
 402034e0 290f22a0 00226e00 4105fe0c 62290486  ).".."n.A...b)..
 402034f0 18000000 00e1c3fe 222e0056 920241b7  ........"..V..A.
 40203500 fe21c5fe 31c6fe48 04458bff 290efd02  .!..1..H.E..)...
 40203510 dc4231c9 fe0ca24d 0f051b00 c52d0051  .B1....M.....-.Q
 40203520 f7fdf905 460b0000 31c5fe42 a0000ca2  ....F...1..B....
 40203530 85190048 0e31bffe 28444834 c0040031  ...H.1..(DH4...1
 40203540 c0fe22a0 0a42a000 05180005 2b0071eb  .."..B......+.q.
 40203550 fd0c0229 070c02c5 c8fd4511 00a61202  ...)......E.....
 40203560 46d2fe06 26000000 850a0032 c2f34d0e  F...&......2..M.
 40203570 224c0030 4f9316a4 0042c2d1 8d0e408f  "L.0O....B....@.
 40203580 9356b8d8 22c2f60c 150c0420 45834040  .V.."...... E.@@
 40203590 745614d8 30458316 54d8065e ffe19afe  tV..0E..T..^....
 402035a0 618cfe38 0e0c043a 36424300 069aff00  a..8...:6BC.....
 402035b0 e196fe1c f6480e47 a602868d ff0692ff  .....H.G........
 402035c0 62610405 050032c2 f342a000 224c0030  ba....2..B.."L.0
 402035d0 4f936221 0416f4e3 32c2d10c 05305f93  O.b!....2....0_.
 402035e0 56c5e146 8cff0000 003179fe 218bfe4a  V..F.....1y.!..J
 402035f0 831b4472 4800015a fec00000 061cff08  ..DrH..Z........
 40203600 f1c8e1d8 d1e8c1f8 b112c140 0df00000  ...........@....
 40203610 0df00000 31f9fc12 c1e04803 09714824  ....1.....H..qH$
 40203620 c9610c02 27142450 6f002020 00002000  .a..'.$Po.  .. .
 40203630 302000c1 17fd2803 0c143d01 590cc54c  0 ....(...=.Y..L
 40203640 01280c20 e6132020 00220100 0871c861  .(. ..  ."...q.a
 40203650 12c1200d f0000000 12c1f020 20740261  .. ........  t.a
 40203660 03c54cff 02210322 a00112c1 100df000  ..L..!."........
 40203670 306f0020 20000020 00302000 21dffc41  0o.  .. .0 .!..A
 40203680 04fd2802 39042822 30e61320 20000df0  ..(.9.("0..  ...
 40203690 12c1f009 31c53fff 08310c12 12c1100d  ....1.?..1......
 402036a0 f0000000 c886fe3f a092fe3f a892fe3f  .......?...?...?
 402036b0 ac92fe3f b092fe3f b48efe3f b892fe3f  ...?...?...?...?
 402036c0 ec0f1040 e81e1040 d0101040 12c1d0c9  ...@...@...@....
 402036d0 a1d991cd 0309b10c a340d074 27b30246  .........@.t'..F
 402036e0 2d0031f0 ff3022a0 2802a002 000031ee  -.1..0".(.....1.
 402036f0 ff420c00 2d0101f2 ffc00000 06260031  .B..-........&.1
 40203700 ebff421c 002d0101 eeffc000 00c62100  ..B..-........!.
 40203710 31e8ff48 0c2d0101 eaffc000 00c61d00  1..H.-..........
 40203720 420c0031 e4ff8044 012d0140 483101e4  B..1...D.-.@H1..
 40203730 ffc00000 06180031 e0ff480c 2d0101e0  .......1..H.-...
 40203740 ffc00000 06140031 dcff429c 002d0101  .......1..B..-..
 40203750 dcffc000 00c60f00 31d9ff48 0c2d0101  ........1..H.-..
 40203760 d8ffc000 00c60b00 222c0001 d6ffc000  ........",......
 40203770 0042a000 52a0026d 01054ffe 06060000  .B..R..m..O.....
 40203780 0000c02c 2001d0ff c0000020 3220c02c  ..., ...... 2 .,
 40203790 200530ff 06060000 10212001 cbffc000   .0......! .....
 402037a0 00203220 2d01c52e ff8c3d2c c20538ff  . 2 -.....=,..8.
 402037b0 08b1c8a1 d89112c1 300df000 bc92fe3f  ........0......?
 402037c0 cc92fe3f 12c1f0c9 21cd0221 fcff0cd3  ...?....!..!....
 402037d0 0931052c ff2d0c01 bcffc000 003d022d  .1.,.-.......=.-
 402037e0 0c052bff 21f7ff0c a3852aff 0831c821  ..+.!.....*..1.!
 402037f0 12c1100d f0000000 d892fe3f 21ffff12  ...........?!...
 40203800 c1f032a0 04026103 8528ff02 210312c1  ..2...a..(..!...
 40203810 100df000 e8030000 481f1040 41feff51  ........H..@A..Q
 40203820 f8f812c1 f0093101 fcffc000 00083112  ......1.......1.
 40203830 c1100df0 40420f00 41ffff51 f1f812c1  ....@B..A..Q....
 40203840 f0093101 f5ffc000 00083112 c1100df0  ..1.......1.....
 40203850 00ca9a3b 41ffff51 eaf812c1 f0093101  ...;A..Q......1.
 40203860 eeffc000 00083112 c1100df0 20469560  ......1..... F.`
 40203870 33116022 11303420 0df00000 204c41c0  3.`".04 .... LA.
 40203880 3301c022 01303420 0df00000 20424120  3..".04 .... BA 
 40203890 33012022 01303420 0df00000 20469560  3. ".04 .... F.`
 402038a0 33116022 11303420 0df00000 204c41c0  3.`".04 .... LA.
 402038b0 3301c022 01303420 0df00000 20424120  3..".04 .... BA 
 402038c0 33012022 01303420 0df00000 0df00000  3. ".04 ........
 402038d0 a02f0040 12c1f002 610301fd ffc00000  ./.@....a.......
 402038e0 083112c1 100df000 12c1f002 610301f8  .1..........a...
 402038f0 ffc00000 083112c1 100df000 f0300040  .....1.......0.@
 40203900 12c1f002 610301fd ffc00000 083112c1  ....a........1..
 40203910 100df000 58310040 12c1f002 610301fd  ....X1.@....a...
 40203920 ffc00000 083112c1 100df000 12c1f040  .....1.........@
 40203930 20740261 03c26102 cd0345ee 032d0c05   t.a..a...E..-..
 40203940 e8030831 c82112c1 100df000 80000040  ...1.!.........@
 40203950 12c1f002 610301fd ffc00000 083112c1  ....a........1..
 40203960 100df000 12c1f009 31059a03 083112c1  ........1....1..
 40203970 100df000 12c1f009 31459703 083112c1  ........1E...1..
 40203980 100df000 12c1f009 31051604 083112c1  ........1....1..
 40203990 100df000 12c1f009 31851604 083112c1  ........1....1..
 402039a0 100df000 12c1f009 3105cc05 083112c1  ........1....1..
 402039b0 100df000 12c1f009 3145a103 083112c1  ........1E...1..
 402039c0 100df000 12c1f009 31c5af03 083112c1  ........1....1..
 402039d0 100df000 12c1f009 31c5ef03 083112c1  ........1....1..
 402039e0 100df000 30091040 12c1f002 610301fd  ....0..@....a...
 402039f0 ffc00000 083112c1 100df000 12c1f002  .....1..........
 40203a00 610301f8 ffc00000 08312020 750c1300  a........1  u...
 40203a10 12400023 a112c110 0df00000 3487fe3f  .@.#........4..?
 40203a20 700a1040 12c1e03d 010c020c 44026107  p..@...=....D.a.
 40203a30 01fcffc0 00000c03 37921022 01032024  ........7..".. $
 40203a40 41f68207 31f6ff30 22a03802 08712d03  A...1..0".8..q-.
 40203a50 12c1200d f0000000 f486fe3f 12c1e03d  .. ........?...=
 40203a60 010c020c 44097101 eeffc000 000c0337  ....D.q........7
 40203a70 920d2201 0331f8ff 20203430 22a03802  .."..1..  40".8.
 40203a80 08712d03 12c1200d f0000000 12c1e03d  .q-... ........=
 40203a90 010c020c 44097101 e2ffc000 0032a0ff  ....D.q......2..
 40203aa0 cc622201 02e64201 3d020871 2d0312c1  .b"...B.=..q-...
 40203ab0 200df000 00008000 00004000 00002000   .........@... .
 40203ac0 00001000 00000800 00000400 00000200  ................
 40203ad0 00000100 ef401400 c8401200 c8401000  .....@...@...@..
 40203ae0 c8401100 c8401300 c8401400 c8401600  .@...@...@...@..
 40203af0 c8401500 ef401500 ef401600 c8401700  .@...@...@...@..
 40203b00 12c1f002 610301b7 ffc00000 31f2ff37  ....a.......1..7
 40203b10 12692733 3331f0ff 37125a27 331541ef  .i'331..7.Z'3.A.
 40203b20 ff31ebff 47126441 eeff31e8 ff47125b  .1..G.dA..1..G.[
 40203b30 06140000 41ecff31 e3ff4712 4e41eaff  ....A..1..G.NA..
 40203b40 31e0ff47 1245860e 0031e8ff 37123927  1..G.E...1..7.9'
 40203b50 331141e7 ff31d9ff 47123041 e6ff4712  3.A..1..G.0A..G.
 40203b60 2ac60700 31e5ff37 121e41e4 ff31d1ff  *...1..7..A..1..
 40203b70 47121846 030031d4 ffc60300 31d1ff46  G..F..1.....1..F
 40203b80 02000000 0c038600 0031cbff 08312d03  .........1...1-.
 40203b90 12c1100d f0000000 0df00000 38529c23  ............8R.#
 40203ba0 3203088c d3287238 32284227 13052203  2....(r82(B'..".
 40203bb0 000df000 7cf20df0 38524d02 9ce33203  ....|...8RM...2.
 40203bc0 080c0227 13194874 28445834 57320450  ...'..Ht(DX4W2.P
 40203bd0 22c00df0 48045022 c04a220d f0002d03  "...H.P".J"...-.
 40203be0 0df00000 1c000060 280251fe ff202004  .......`(.Q..  .
 40203bf0 c0421120 44c08044 1122a080 5a443032  .B. D..D."..ZD02
 40203c00 c0c02000 28042020 752733f4 0df00000  .. .(.  u'3.....
 40203c10 28022020 04c03211 2023c031 f2ff8022  (.  ..2. #.1..."
 40203c20 113a22c0 20002802 32a08020 20752023  .:". .(.2..  u #
 40203c30 c00df000 12c1f0d9 11dd0228 520931c9  ...........(R.1.
 40203c40 21e901bc f2220209 bca2220d 20bc52c2  !...."....". .R.
 40203c50 a07f386d 58434833 4025c0ed 0247b505  ..8mXCH3@%...G..
 40203c60 e22300e0 e280dc3e 285d8cf2 3202098c  .#.....>(]..2...
 40203c70 a3c5f9ff 27bc05e2 4d200602 00454bfd  ....'...M ...EK.
 40203c80 86f3ff00 00000831 c821d811 e80112c1  .......1.!......
 40203c90 100df000 00000060 12c1f048 52c921d9  .......`...HR.!.
 40203ca0 110931cd 0230d074 16a40b32 04090c02  ..1..0.t...2....
 40203cb0 27930246 2f000c12 224c202d 0405f5ff  '..F/..."L -....
 40203cc0 486ccc62 28345844 86180000 38345844  Hl.b(4XD....84XD
 40203cd0 57930246 25002d03 86140000 320409bc  W..F%.-.....2...
 40203ce0 d3380430 3004c053 113035c0 51eaff80  .8.00..S.05.Q...
 40203cf0 33115a33 c02000d9 030c9327 33212804  3.Z3. .....'3!(.
 40203d00 202004c0 32112023 c031acf6 8022113a    ..2. #.1...".:
 40203d10 22c02000 48020c23 303420c0 20003902  ". .H..#04 . .9.
 40203d20 0c128613 00c540fd 486c5844 28345032  ......@.HlXD(4P2
 40203d30 c00b6327 35056804 0b663a66 1656fe0b  ..c'5.h..f:f.V..
 40203d40 63273507 680462c6 ff306680 1606fdd2  c'5.h.b..0f.....
 40203d50 45002844 38241b22 29443792 c238140c  E.(D8$.")D7..8..
 40203d60 12394446 03002d04 06020000 485c56a4  .9DF..-.....H\V.
 40203d70 f6c6eaff 0831c821 d81112c1 100df000  .....1.!........
 40203d80 983b2040 2c240040 12c1f022 a0000261  .; @,$.@..."...a
 40203d90 03453503 21fbff01 fbffc000 00022103  .E5.!.........!.
 40203da0 12c1100d f0000000 3852ace3 320308ac  ........8R..2...
 40203db0 93387248 43283327 34052044 c0860100  .8rHC(3'4. D....
 40203dc0 58032044 c05a449c 141b4258 23220200  X. D.ZD...BX#"..
 40203dd0 49335794 08481349 330df000 7cf20df0  I3W..H.I3...|...
 40203de0 12c1f009 318c7242 02091624 0085dfff  ....1.rB...$....
 40203df0 083112c1 100df000 12c1f009 318cf242  .1..........1..B
 40203e00 02090c03 37140a85 e0ff3d02 86000000  ....7.....=.....
 40203e10 3d020831 2d0312c1 100df000 12c1f009  =..1-...........
 40203e20 318c9232 02098c43 32a080c5 dbff0831  1..2...C2......1
 40203e30 12c1100d f0000000 3030749c b2420209  ........00t..B..
 40203e40 9c642802 202004c0 42112024 c04191ff  .d(.  ..B. $.A..
 40203e50 8022114a 22c02000 39020df0 12c1d0c9  .".J". .9.......
 40203e60 a1d991f9 7109b1e9 81dd02cd 03fd0416  ....q...........
 40203e70 22052202 0916c204 169404e1 86ff42a0  "."...........B.
 40203e80 805d0ff7 b40252a0 8050ffc0 8ce23d05  .]....R..P....=.
 40203e90 2d0d4911 52610005 d5ff5801 48115a2c  -.I.Ra....X.H.Z,
 40203ea0 380d520c 00303004 c0631130 36c08033  8.R..00..c.06..3
 40203eb0 11ea33c0 20005903 1bcc279c e28c4f22  ..3. .Y...'...O"
 40203ec0 0d09c6ee ff08b1c8 a1d891e8 81f87112  ..............q.
 40203ed0 c1300df0 20000060 16820562 020851fb  .0.. ..`...b..Q.
 40203ee0 fe420209 0c036035 93165400 41f7fe40  .B....`5..T.A..@
 40203ef0 33205802 41f8ff50 5004c065 115056c0  3 X.A..PP..e.PV.
 40203f00 8055114a 55c02000 68056063 20c02000  .U.JU. .h.`c . .
 40203f10 69052802 7cf52020 04303530 c0521120  i.(.|.  .050.R. 
 40203f20 25c08022 114a22c0 20004802 403310c0  %..".J". .H.@3..
 40203f30 20003902 0df00000 10000060 cc462040   .9........`.F @
 40203f40 12c1f0c9 210931cd 02167205 280242a1  ....!.1...r.(.B.
 40203f50 ff202004 c0321120 23c031f7 ff802211  .  ..2. #.1...".
 40203f60 3a2231f6 ffc02000 49020c52 c04c2001  :"1... .I..R.L .
 40203f70 16f6c000 00220c08 ac02280c 202004c0  ....."....(.  ..
 40203f80 32112023 c0310df6 8022113a 22c02000  2. #.1...".:". .
 40203f90 48020c13 303420c0 20003902 2c0201b8  H...04 . .9.,...
 40203fa0 f5c00000 0831c821 12c1100d f0000000  .....1.!........
 40203fb0 16020532 0208ac23 38023030 04c04311  ...2...#8.00..C.
 40203fc0 3034c041 fef58033 114a33c0 20005803  04.A...3.J3. .X.
 40203fd0 42affe40 4510c020 00426300 320209ac  B..@E.. .Bc.2...
 40203fe0 13280220 2004c032 112023c0 31f4f580  .(.  ..2. #.1...
 40203ff0 22113a22 c0200048 027cd330 3410c020  ".:". .H.|.04.. 
 40204000 00326200 0df00000 ac523202 09ac0328  .2b......R2....(
 40204010 02202004 c0321120 23c031e8 f5802211  .  ..2. #.1...".
 40204020 3a22c020 0048020c 23303420 c0200039  :". .H..#04 . .9
 40204030 020df000 ac523202 09ac0328 02202004  .....R2....(.  .
 40204040 c0321120 23c031dd f5802211 3a22c020  .2. #.1...".:". 
 40204050 0048027c d3303410 c0200039 020df000  .H.|.04.. .9....
 40204060 14000060 00b4c404 12c1f009 31c9214d  ...`........1.!M
 40204070 02ac1228 02391420 2004c0c2 1120ccc0  ...(.9.  .... ..
 40204080 41f8ff21 f8ff80cc 114acc01 6af4c000  A..!.....J..j...
 40204090 00c02000 290c0831 c82112c1 100df000  .. .)..1.!......
 402040a0 8c022812 0df00000 00200000 24000060  ..(...... ..$..`
 402040b0 6c071040 12c1e0d9 51dd020c c2c961e9  l..@....Q.....a.
 402040c0 41f93109 71ed0340 f07401f9 ffc00000  A.1.q..@.t......
 402040d0 cd0216e2 0bd9028c 7d261d2d 86110000  ........}&.-....
 402040e0 000022a0 0132a0f8 8521fd22 a00332a0  .."..2...!."..2.
 402040f0 f80521fd 0c120c33 224c0822 4c09324c  ..!....3"L."L.2L
 40204100 0a224c0b d80c0607 00000c22 32a0f845  ."L........"2..E
 40204110 1ffd0c02 224c087c f2d24c09 224c0ad8  ...."L.|..L."L..
 40204120 0c0c2222 4c0bd0d0 04c02d11 41cdffd0  ..""L.....-.A...
 40204130 d2c021cc ff3d0e80 dd114add e26c0101  ..!..=....J..l..
 40204140 3df4c000 00c02000 290d280c 202004c0  =..... .).(.  ..
 40204150 32112023 c0315fff 80221130 2280c020  2. #.1_..".0".. 
 40204160 00f26200 2d0c05d7 ff2d0c45 ddff320c  ..b.-....-.E..2.
 40204170 09220c08 8c4331cc ff302220 380c3030  ."...C1..0" 8.00
 40204180 04c04311 3034c041 c9ff8033 114a33c0  ..C.04.A...3.J3.
 40204190 20002903 08712d0c d851c861 e841f831   .)..q-..Q.a.A.1
 402041a0 12c1200d f0000000 20081040 12c1f0c9  .. ..... ..@....
 402041b0 21026103 20c220bc 3245dfff 220c0a26  !.a. . .2E.."..&
 402041c0 320532a0 0d379207 0c031011 204513fd  2.2..7...... E..
 402041d0 220c0b26 22070cf3 37120266 12070c03  "..&"...7..f....
 402041e0 10112005 12fd2d0c 01f0ffc0 00000831  .. ...-........1
 402041f0 c82112c1 100df000 0000ffff 00000301  .!..............
 40204200 2800f03f 12c1f0c9 210931d9 11cd0216  (..?....!.1.....
 40204210 d208d802 568d0838 2221f7ff 20331021  ....V..8"!.. 3.!
 40204220 f7ff2793 4022a00f 4c83850d fd22a00d  ..'.@"..L...."..
 40204230 32a04805 0dfd41f2 ff0c43c0 20005804  2.H...A...C. .X.
 40204240 0c123055 20c02000 59043d0d 450bfd0c  ..0U . .Y.=.E...
 40204250 323d0d05 0bfd0cd2 224c0a0c f2224c0b  2=......"L..."L.
 40204260 060f0000 00000c12 32a0f885 09fd0c32  ........2......2
 40204270 32a0f805 09fd41e2 ff7cb3c0 20005804  2.....A..|.. .X.
 40204280 0cf23055 10c02000 59043d0d 4507fd0c  ..0U.. .Y.=.E...
 40204290 d23d0d05 07fd0c32 224c0a0c 12224c0b  .=.....2"L..."L.
 402042a0 0831c821 d81112c1 100df000 7cbcfe3f  .1.!........|..?
 402042b0 ac442040 2c452040 12c1f031 fcff0931  .D @,E @...1...1
 402042c0 29038c42 26121686 08000c12 85e10221  )..B&..........!
 402042d0 f8ff01ac fec00000 06050000 000085e0  ................
 402042e0 0221f4ff 01a8fec0 00008600 0085a9ff  .!..............
 402042f0 083112c1 100df000 21edff28 020df000  .1......!..(....
 40204300 0893fe3f 52a3e859 2251fdff 0c044912  ...?R..Y"Q....I.
 40204310 59023942 49524962 49724242 200df000  Y.9BIRIbIrBB ...
 40204320 51e3ff12 c1e0c961 6805cd02 28420971  Q......ah...(B.q
 40204330 d9514040 74679214 7cf22265 00326100  .Q@@tg..|."e.2a.
 40204340 42610145 a4ff284c 48113221 0045d6ff  Ba.E..(LH.2!.E..
 40204350 226c0516 b2053202 08163302 387c56e3  "l....2...3.8|V.
 40204360 0122a014 855100dd 0222a100 290dc552  ."...Q..."..)..R
 40204370 0032d201 291d293d 294d392d 285cd97c  .2..).)=)M9-(\.|
 40204380 2202099c e2286cdc a21c4245 4f00dd02  "....(l...BEO...
 40204390 22a10029 0d455000 32d20129 1d392d29  "..).EP.2..).9-)
 402043a0 3d294dd9 6c0c0222 4c200c12 10112045  =)M.l.."L .... E
 402043b0 e3fc0871 c861d851 12c1200d f0000000  ...q.a.Q.. .....
 402043c0 31bbff12 c1f0c921 4842cd02 28030931  1......!HB..(..1
 402043d0 d9112794 077cf222 6300c59a ff222c05  ..'..|."c....",.
 402043e0 85dcffd2 2c0716bd 00281d8c 12c54d00  ....,....(....M.
 402043f0 2d0d454c 00d86c16 fd00222d 018c12c5  -.EL..l..."-....
 40204400 4c002d0d 10112005 4b000831 0c02295c  L.-... .K..1..)\
 40204410 297c296c d811c821 12c1100d f0000000  )|)l...!........
 40204420 12c1f028 5209318c 1285ddff 083112c1  ...(R.1......1..
 40204430 100df000 12c1f048 52093130 30749cb4  .......HR.100t..
 40204440 8c832224 0005e7ff 46040000 3198ff48  .."$....F...1..H
 40204450 42280327 94067cf2 2903c592 ff083112  B(.'..|.).....1.
 40204460 c1100df0 28521622 00220209 0df00000  ....(R."."......
 40204470 28521622 00220208 0df00000 38524d02  (R."."......8RM.
 40204480 ac433203 090c0227 131f4864 58442834  .C2....'..HdXD(4
 40204490 27350c38 045052c0 0b235a22 0df00000  '5.8.PR..#Z"....
 402044a0 5022c00b 220df000 2d030df0 12c1f0c9  P".."...-.......
 402044b0 21c1a8f7 d91120d0 74285c09 31bcb222  !..... .t(\.1.."
 402044c0 0209dc02 060d0000 c0200048 06404075  ......... .H.@@u
 402044d0 4735f406 0c002d0c 05faffa6 121d669d  G5....-.......f.
 402044e0 0b380c2d 0c480332 a00dc004 00380c2d  .8.-.H.2.....8.-
 402044f0 0c48033d 0dc00400 46070000 61bafd52  .H.=....F...a..R
 40204500 a07e86f0 ff000021 e3fd669d 060cd3c0  .~.....!..f.....
 40204510 20003902 c02000d9 020831c8 21d81112   .9.. ....1.!...
 40204520 c1100df0 1c0f0060 000f0060 12c1f0c9  .......`...`....
 40204530 21c1cbf7 d91120d0 74285c09 31bca222  !..... .t(\.1.."
 40204540 0209dc02 c60c0000 c0200048 06404075  ......... .H.@@u
 40204550 4735f446 0b002d0c 05f2ffa6 121c669d  G5.F..-.......f.
 40204560 0b380c2d 0c480332 a00dc004 00380c2d  .8.-.H.2.....8.-
 40204570 0c48033d 0dc00400 86060061 eaff52a0  .H.=.......a..R.
 40204580 7ec6f0ff 21e9ff66 9d060cd3 c0200039  ~...!..f..... .9
 40204590 02c02000 d9020831 c821d811 12c1100d  .. ....1.!......
 402045a0 f0000000 48520c13 0c024023 930df000  ....HR....@#....
 402045b0 28723030 74acc248 42583257 340d6802  (r00t..HBX2W4.h.
 402045c0 4055c00b 665a5686 01000000 4055c00b  @U..fZV.....@U..
 402045d0 559c0532 44003842 48221b33 39424793  U..2D.8BH".39BG.
 402045e0 03381239 420df000 12c1f0c9 21cd0228  .8.9B.......!..(
 402045f0 520931d9 1116920b 386c1643 0b584348  R.1.....8l.C.XCH
 40204600 3340d5c0 47350246 28003803 4045c03a  3@..G5.F(.8.@E.:
 40204610 d4c62500 32020916 73092802 202004c0  ..%.2...s.(.  ..
 40204620 32112023 c03165f4 8022113a 22c02000  2. #.1e..".:". .
 40204630 48027cd3 303410c0 20003902 861c0032  H.|.04.. .9....2
 40204640 02090c05 57130985 5cff5d0d 273d015d  ....W...\.].'=.]
 40204650 029190fd 06130000 386c685c 78434833  ........8lh\xCH3
 40204660 47370540 77c08601 00280340 77c02a77  G7.@w....(.@w.*w
 40204670 9c171b74 88232204 00793387 97094813  ...t.#"..y3...H.
 40204680 49338600 0022a0ff 9c863206 099c3338  I3..."....2...38
 40204690 06303004 c0431130 34c08033 119a33c0  .00..C.04..3..3.
 402046a0 20002903 0b556605 ae460100 164df606   .)..Uf..F...M..
 402046b0 e3ff0831 c821d811 12c1100d f0000000  ...1.!..........
 402046c0 08000060 080f0060 100f0060 2122f712  ...`...`...`!"..
 402046d0 c1f03852 0931c921 16c30742 03081674  ..8R.1.!...B...t
 402046e0 0571f7ff c0200048 0707644c a16afd91  .q... .H..dL.j..
 402046f0 12fe0c18 3872c020 00680aac 93484358  ....8r. .h...HCX
 40204700 3340c5c0 57340a58 030b55ca 55c60000  3@..W4.X..U.U...
 40204710 00000b5c 9c056244 00484358 231b4449  ...\..bD.HCX#.DI
 40204720 43579403 48134943 c0200089 09c02000  CW..H.IC. .... .
 40204730 380707e3 be38529c d3320309 9c8341e0  8....8R..2....A.
 40204740 ff32a002 c0200048 0437040b 41fbfdc0  .2... .H.7..A...
 40204750 20003264 0005e9ff 2142f738 52169307   .2d....!B.8R...
 40204760 42030816 640571d7 ffc02000 48070764  B...d.q... .H..d
 40204770 4ba16dff 91d5ff0c 183872c0 2000680a  K.m......8r. .h.
 40204780 ac834843 583340c5 c0573409 58030b55  ..HCX3@..W4.X..U
 40204790 ca558600 00000b5c 9c056244 00484358  .U.....\..bD.HCX
 402047a0 231b4449 43579403 48134943 c0200089  #.DICW..H.IC. ..
 402047b0 09c02000 380707e3 bf38529c b3320309  .. .8....8R..2..
 402047c0 9c6341c0 ff0c23c0 20004804 37040a41  .cA...#. .H.7..A
 402047d0 beffc020 00390405 e1ff0831 c82112c1  ... .9.....1.!..
 402047e0 100df000 41dcf651 c6fe0c02 311df762  ....A..Q....1..b
 402047f0 a3e82914 69245904 29442954 29642974  ..).i$Y.)D)T)d)t
 40204800 2244200c 14291369 23590349 43295329  "D ..).i#Y.IC)S)
 40204810 63297322 43200df0 92a14090 11c030b3  c)s"C ....@...0.
 40204820 20a2a110 32a12030 9180a0a1 800c88c2   ...2. 0........
 40204830 614e32a1 00cd0242 61465261 474d0b5d  aN2....BaFRaGM.]
 40204840 09626148 7261496d 0a7d082d 0102614f  .baHraIm.}.-..aO
 40204850 926140a2 61418261 4285fd04 2d01019a  .a@.aA.aB...-...
 40204860 fbc00000 380c4d02 58132d0c 3d01c005  ....8.M.X.-.=...
 40204870 0002214f 92a140c2 214e9a11 0df00000  ..!O..@.!N......
 40204880 7cc33b22 12c1f030 22100931 0109fec0  |.;"...0"..1....
 40204890 00000831 12c1100d f0000000 7cc33b22  ...1........|.;"
 402048a0 12c1f030 22100931 0102fec0 00000831  ...0"..1.......1
 402048b0 12c1100d f0000000 12c1f002 6103013a  ............a..:
 402048c0 fec00000 083112c1 100df000 12c1f002  .....1..........
 402048d0 61030135 fec00000 083112c1 100df000  a..5.....1......
 402048e0 12c1f009 314581fc 12c1f009 31c580fc  ....1E......1...
 402048f0 12c1f009 314580fc 4093fe3f 5093fe3f  ....1E..@..?P..?
 40204900 8c4c2040 5893fe3f bc4c2040 6493fe3f  .L @X..?.L @d..?
 40204910 ec4c2040 6893fe3f 304d2040 7493fe3f  .L @h..?0M @t..?
 40204920 604d2040 7c93fe3f b04d2040 8893fe3f  `M @|..?.M @...?
 40204930 044e2040 9493fe3f 444e2040 a093fe3f  .N @...?DN @...?
 40204940 784e2040 082f2040 12c1c00c 4209f1c9  xN @./ @....B...
 40204950 e1d9d1e9 c1f9b185 f2ff0c23 0c44dd02  ...........#.D..
 40204960 852200e1 e5ff0c0c 31e5ff51 e5ff2d0e  ."......1..Q..-.
 40204970 4d0c6d0d 7d01c901 853cfe31 e2ff51e2  M.m.}....<.1..Q.
 40204980 ff2d0e4d 0c6d0d7d 01c90185 3bfe31df  .-.M.m.}....;.1.
 40204990 ff51dfff 2d0e4d0c 6d0d7d01 c901453a  .Q..-.M.m.}...E:
 402049a0 fe31dcff 51ddff2d 0e4d0c6d 0d7d01c9  .1..Q..-.M.m.}..
 402049b0 010539fe 31daff51 daff2d0e 4d0c6d0d  ..9.1..Q..-.M.m.
 402049c0 7d01c901 c537fe31 d7ff51d7 ffc9010c  }....7.1..Q.....
 402049d0 682d0e4d 0c6d0d7d 01824100 82610445  h-.M.m.}..A..a.E
 402049e0 36fe8841 c90131d1 ff51d1ff 0c9f2d0e  6..A..1..Q....-.
 402049f0 6d0d7d01 8241000c 1482a003 f2410182  m.}..A.......A..
 40204a00 41020534 fe31cbff 51ccffc9 010c282d  A..4.1..Q.....(-
 40204a10 0e6d0d7d 0142a001 82410085 32fe31c7  .m.}.B...A..2.1.
 40204a20 ff51c7ff c9012d0e 6d0d7d01 0c14f241  .Q....-.m.}....A
 40204a30 000531fe 31c4ff2d 0d852300 08f1c8e1  ..1.1..-..#.....
 40204a40 d8d1e8c1 f8b112c1 400df000 12c1f009  ........@.......
 40204a50 31c9210c 04cd0249 0c491c49 2c393c2d  1.!....I.I.I,9<-
 40204a60 0385e3ff 0831294c c82112c1 100df000  .....1)L.!......
 40204a70 12c1f028 42093116 220005e5 ff083112  ...(B.1.".....1.
 40204a80 c1100df0 00000000 12c1d0c9 a109b1cd  ................
 40204a90 02d991e9 81f9710c 025d0327 145df83c  ......q..].'.].<
 40204aa0 282cdd04 202fc047 b201dd02 281c20ef  (,.. /.G....(. .
 40204ab0 c0d73e1c 484c3d05 2a244d0d 0129f9c0  ..>.HL=.*$M..)..
 40204ac0 0000281c 2a2d279f 0222a000 291c8608  ..(.*-'.."..)...
 40204ad0 00684c3d 054d0e2a 26590101 21f9c000  .hL=.M.*&Y..!...
 40204ae0 005801e0 fdc0284c ea354d0f 011df9c0  .X....(L.5M.....
 40204af0 0000f91c 382c2d0d dad3d92c 08b1c8a1  ....8,-....,....
 40204b00 d891e881 f87112c1 300df000 12c1e0c9  .....q..0.......
 40204b10 610971cd 02d951e9 41f9310c 025d0327  a.q...Q.A.1..].'
 40204b20 1459282c dd04f83c 47b20220 d220380c  .Y(,...<G.. . 8.
 40204b30 30efc0d7 3e1b484c 2d053a34 4d0d0108  0...>.HL-.:4M...
 40204b40 f9c00000 280c2a2d 279f010c 02290c06  ....(.*-'....)..
 40204b50 0800284c 4d0e3a32 50252001 01f9c000  ..(LM.:2P% .....
 40204b60 00e0fdc0 384cea22 f04f2001 fdf8c000  ....8L.".O .....
 40204b70 00f90c38 2c2d0dd0 d3c0d92c 0871c861  ...8,-.....,.q.a
 40204b80 d851e841 f83112c1 200df000 12c1e0c2  .Q.A.1.. .......
 40204b90 610620c2 2022a004 09713901 491101ba  a. . "...q9.I...
 40204ba0 f6c00000 38014811 290cc52f 000871c8  ....8.H.)../..q.
 40204bb0 6112c120 0df00000 22220012 c1f00261  a.. ...."".....a
 40204bc0 03452f00 02210312 c1100df0 22220012  .E/..!......""..
 40204bd0 c1f00261 03852e00 02210312 c1100df0  ...a.....!......
 40204be0 22220012 c1f00261 03452e00 02210312  "".....a.E...!..
 40204bf0 c1100df0 22220012 c1f00261 03852e00  ...."".....a....
 40204c00 02210312 c1100df0 22220012 c1f00261  .!......"".....a
 40204c10 03852e00 02210312 c1100df0 22220012  .....!......""..
 40204c20 c1f00261 03c52e00 02210312 c1100df0  ...a.....!......
 40204c30 22220012 c1f03030 74026103 c52e0002  ""....00t.a.....
 40204c40 210312c1 100df000 22220012 c1f00261  !......."".....a
 40204c50 03c52f00 02210312 c1100df0 80550128  ../..!.......U.(
 40204c60 0212c1f0 50583109 31053200 083112c1  ....PX1.1.2..1..
 40204c70 100df000 12c1f030 23200261 03c53200  .......0# .a..2.
 40204c80 02210312 c1100df0 c893fe3f 12c1e010  .!.........?....
 40204c90 31200261 0705f2ff 4d028cb2 0c623d01  1 .a....M....b=.
 40204ca0 0c0485a2 fe460200 0031f7ff 22a00ac5  .....F...1.."...
 40204cb0 a1fe0221 0712c120 80000000 12c1e010  ...!... ........
 40204cc0 31200261 0785f1ff 4d028cb2 0c923d01  1 .a....M.....=.
 40204cd0 0c04859f fe460200 0031ebff 22a00ac5  .....F...1.."...
 40204ce0 9efe0221 0712c120 80000000 12c1e04b  ...!... .......K
 40204cf0 418b315d 010971c5 efff4d02 9cd28b31  A.1]..q...M....1
 40204d00 0c920c14 459cfe4b 310c920c 14c59bfe  ....E..K1.......
 40204d10 0c923d01 0c04459b fe460200 0031daff  ..=...E..F...1..
 40204d20 22a00a85 9afe0221 0712c120 80000000  "......!... ....
 40204d30 12c1e010 31200261 0705e9ff 4d028cb2  ....1 .a....M...
 40204d40 0c223d01 0c044598 fe460200 0031ceff  ."=...E..F...1..
 40204d50 22a00a85 97fe0221 0712c120 80000000  "......!... ....
 40204d60 12c1e08b 41cb314b 516d0109 7185e9ff  ....A.1KQm..q...
 40204d70 4d02ac72 cb310c92 0c140595 fe8b310c  M..r.1........1.
 40204d80 920c1485 94fe4b31 0c920c14 c593fe0c  ......K1........
 40204d90 623d010c 044593fe 86020000 0031baff  b=...E.......1..
 40204da0 22a00a85 92fe0221 0712c120 80000000  "......!... ....
 40204db0 12c1e072 230042c1 0832c10c 4b516d01  ...r#.B..2..KQm.
 40204dc0 097185e5 ff4d02ac 52cb310c 920c14c5  .q...M..R.1.....
 40204dd0 8ffe8b31 0c920c14 058ffe4b 310c920c  ...1.......K1...
 40204de0 14858efe 0c623d01 0c04058e fec60100  .....b=.........
 40204df0 31a6ff0c a2458dfe 087112c1 200df000  1....E...q.. ...
 40204e00 d093fe3f 12c1f002 61035203 08304320  ...?....a.R..0C 
 40204e10 48143803 80550150 583105e4 ff4d028c  H.8..U.PX1...M..
 40204e20 e231f7ff 0ca242a0 00058afe 86020000  .1....B.........
 40204e30 003195ff 22a00a45 89fe0221 0312c110  .1.."..E...!....
 40204e40 80000000 12c1f002 61033203 0005deff  ........a.2.....
 40204e50 2042208c e231eaff 0ca242a0 00c586fe   B ..1....B.....
 40204e60 86020000 003188ff 22a00a05 86fe0221  .....1.."......!
 40204e70 0312c110 80000000 380312c1 f0093185  ........8.....1.
 40204e80 dcff4d02 8cd231de ff0ca20c 04c583fe  ..M...1.........
 40204e90 86020000 00317cff 22a00a05 83fe0221  .....1|."......!
 40204ea0 0312c110 80000000 12c1f009 31451200  ............1E..
 40204eb0 083112c1 100df000 1ce22903 0c120df0  .1........).....
 40204ec0 7cf22243 000c120d f0000000 00005242  |."C..........RB
 40204ed0 41ffff0c 1249030d f0000000 cdcc4441  A....I........DA
 40204ee0 66663642 00009c42 21fdff29 0321fcff  ff6B...B!..).!..
 40204ef0 290421fc ff29050c 120df000 21f8ff29  ).!..)......!..)
 40204f00 0321f7ff 290421f7 ff29055c a229060c  .!..).!..).\.)..
 40204f10 120df000 21f2ff29 0321f1ff 290421f1  ....!..).!..).!.
 40204f20 ff290579 060c120d f0000000 12c1e032  .).y...........2
 40204f30 41001041 2032a000 52a00109 71450c00  A..A 2..R...qE..
 40204f40 08710c12 12c1200d f0000000 d493fe3f  .q.... ........?
 40204f50 12c1e00c 242d0109 71c96145 0c06c140  ....$-..q.aE...@
 40204f60 f531faff c02c2045 6f053d01 2d0c8579  .1..., Eo.=.-..y
 40204f70 052d0145 d0050871 0c02c861 12c1200d  .-.E...q...a.. .
 40204f80 f0000000 84bcfe3f e093fe3f 31feff12  .......?...?1...
 40204f90 c1f021fd ff480302 610332a0 fac00400  ..!..H..a.2.....
 40204fa0 08310c12 12c1100d f0000000 41f6ff29  .1..........A..)
 40204fb0 042d030d f0000000 31f3ff12 c1f04803  .-......1.....H.
 40204fc0 21f2ff02 610332a0 fac00400 083112c1  !...a.2......1..
 40204fd0 100df000 12c1f0d2 6101dd02 1c020261  ........a......a
 40204fe0 03c921c5 89ffcd02 8524002d 0cc90d0c  ..!......$.-....
 40204ff0 430c5405 25000831 c821d811 12c1100d  C.T.%..1.!......
 40205000 f0000000 12c1e0f2 610320f2 202802c9  ........a. . (..
 40205010 61e941cd 04ed0530 3164d951 0971e0dc  a.A....01d.Q.q..
 40205020 80853800 e61e1628 0f853f00 e0207408  ..8....(..?.. t.
 40205030 71c861d8 51e841f8 3112c120 0df0280f  q.a.Q.A.1.. ..(.
 40205040 320c0048 021bcc48 04c00400 d79cee06  2..H...H........
 40205050 f5ff0000 12c1f0e9 01ed0228 02d91130  ...........(...0
 40205060 3164dd04 504074c9 2109310c 0c452e00  1d..P@t.!.1..E..
 40205070 06040000 280e3802 3833c003 00ca3d22  ....(.8.83....="
 40205080 43001bcc 280e3802 3823c003 005632fe  C...(.8.8#...V2.
 40205090 0831c020 74d811c8 21e80112 c1100df0  .1. t...!.......
 402050a0 12c1f009 31661308 66340541 aaf44601  ....1f..f4.A..F.
 402050b0 00662313 41ebf442 62005035 20402420  .f#.A..Bb.P5 @$ 
 402050c0 1cc4c525 ffc60000 0c033902 083112c1  ...%......9..1..
 402050d0 100df000 12c1e0c9 61d951e9 41f93109  ........a.Q.A.1.
 402050e0 71ed04cd 0320f220 40d380a6 1411280f  q.... . @.....(.
 402050f0 320c0048 021bcc42 2400c004 00d79ced  2..H...B$.......
 40205100 08712d0e c861d851 e841f831 12c1200d  .q-..a.Q.A.1.. .
 40205110 f0000000 94bcfe3f 12c1e0d9 51dd0221  .......?....Q..!
 40205120 fdffe941 f9310971 c9612202 00fd03ed  ...A.1.q.a".....
 40205130 04564200 2d0e8607 001674ff 0c0c380d  .VB.-.....t...8.
 40205140 ca2f4803 3202002d 0dc00400 8c621bcc  ./H.2..-.....b..
 40205150 e79cea46 f7ff2d0c 0871c861 d851e841  ...F..-..q.a.Q.A
 40205160 f83112c1 200df000 b9bcfe3f babcfe3f  .1.. ......?...?
 40205170 21feff32 020021fd ff220200 2023c00d  !..2..!..".. #..
 40205180 f0000000 bcbcfe3f 31f9ff41 f7ff2203  .......?1..A..".
 40205190 00420400 47b20e51 fbff1b42 2a252202  .B..G..Q...B*%".
 402051a0 00424300 0df07cf2 0df00000 21f0ff31  .BC...|.....!..1
 402051b0 eeff2202 00320300 37b20931 f2ff2a23  .."..2..7..1..*#
 402051c0 2202000d f07cf20d f0000000 96bcfe3f  "....|.........?
 402051d0 95bcfe3f 31e6ff0c 02224300 31e3ff22  ...?1...."C.1.."
 402051e0 430031fa ff224300 31faff22 43000df0  C.1.."C.1.."C...
 402051f0 98bcfe3f 41c8ff5d 02420400 3030740c  ...?A..].B..00t.
 40205200 12ac8441 f3ff1cf7 62040067 b7052915  ...A....b..g..).
 40205210 0c020df0 61eeff81 f6ff7206 001b5750  ....a.....r...WP
 40205220 50747a78 32470052 46005244 000df000  Ptzx2G.RF.RD....
 40205230 f093fe3f 0c033912 32a3e839 2231fcff  ...?..9.2..9"1..
 40205240 39020df0 12c1f0c2 610220c2 20302074  9.......a. . 0 t
 40205250 40307402 610305eb fc380c2d 0c3853c0  @0t.a....8.-.8S.
 40205260 03000831 c82112c1 100df000 1c80fe3f  ...1.!.........?
 40205270 1880fe3f 21feff39 0221fdff 49020df0  ...?!..9.!..I...
 40205280 31fbff41 fbff3803 480412c1 f0093145  1..A..8.H.....1E
 40205290 fbff0831 12c1100d f0000000 31f4ff41  ...1........1..A
 402052a0 f4ff3803 480412c1 f0093185 f9ff0831  ..8.H.....1....1
 402052b0 12c1100d f0000000 31edff41 edff3803  ........1..A..8.
 402052c0 480412c1 f00931c5 f7ff0831 12c1100d  H.....1....1....
 402052d0 f0000000 12c1f030 23200261 03c5ddfc  .......0# .a....
 402052e0 02210312 c1100df0 12c1f0c9 21093140  .!..........!.1@
 402052f0 c42042a0 20302074 505074c7 b40240c4  . B. 0 tPPt...@.
 40205300 2031a0ff c04c2085 ecfcc030 74164200   1...L ....0t.B.
 40205310 c2a0003d 0c2195ff 0c044242 002192ff  ...=.!....BB.!..
 40205320 32420008 312d0cc8 2112c110 0df00000  2B..1-..!.......
 40205330 5070740c 160c0512 c1f07056 93303074  Ppt.......pV.00t
 40205340 40407409 3105faff 08312020 7412c110  @@t.1....1  t...
 40205350 0df00000 12c1f030 30744040 740c1509  .......00t@@t...
 40205360 3145f8ff 08312020 7412c110 0df00000  1E...1  t.......
 40205370 12c1f030 30740c15 0931c5f6 ff083120  ...00t...1....1 
 40205380 207412c1 100df000 7d050c16 0c0512c1   t......}.......
 40205390 f0705693 30307409 31c5f4ff 08312020  .pV.00t.1....1  
 402053a0 7412c110 0df00000 b8bcfe3f 415aff0c  t..........?AZ..
 402053b0 15524400 41fdff0c 02324400 3184ff22  .RD.A....2D.1.."
 402053c0 43003183 ff224300 0df00000 4152ff0c  C.1.."C.....AR..
 402053d0 15524400 41f5ff0c 02324400 317cff22  .RD.A....2D.1|."
 402053e0 4300317b ff224300 0df00000 12c1f0c9  C.1{."C.........
 402053f0 2121edff c177ff09 31420c00 30507422  !!...w..1B..0Pt"
 40205400 0200317b ff45d6fc 4171ff0c 03324400  ..1{.E..Aq...2D.
 40205410 4141ff32 4c003244 000831c8 2112c110  AA.2L.2D..1.!...
 40205420 0df00000 12c1f00c 13093105 fcff0831  ..........1....1
 40205430 12c1100d f0000000 0df00000 0df00000  ................
 40205440 0df00000 0df00000 ffff0f00 ffff0f80  ................
 40205450 ffffefff 0000f07f 0000f0ff 2480fe3f  ............$..?
 40205460 7df8b98f ce338640 5487fe3f ffffef47  }....3.@T..?...G
 40205470 ef39fafe 422e8640 7087fe3f 51302dd5  .9..B..@p..?Q0-.
 40205480 104987c0 7487fe3f 7c87fe3f ffffefc7  .I..t..?|..?....
 40205490 8087fe3f 381c1040 8487fe3f 8c87fe3f  ...?8..@...?...?
 402054a0 9087fe3f 9887fe3f fcd4b242 a087fe3f  ...?...?...B...?
 402054b0 9c131040 8071b142 b087fe3f b5f1cfc2  ...@.q.B...?....
 402054c0 28141040 b887fe3f c087fe3f c887fe3f  (..@...?...?...?
 402054d0 74131040 cc87fe3f d487fe3f bc131040  t..@...?...?...@
 402054e0 d887fe3f e087fe3f 00001080 0000f87f  ...?...?........
 402054f0 ffff7f7f ffff7f80 ffff7fff 0000807f  ................
 40205500 000080ff 12c1d0f9 b1fd0129 4f395f28  ...........)O9_(
 40205510 4f385f29 2f393f28 3f290f28 2f291f28  O8_)/9?(?).(/).(
 40205520 0fcc3228 1f16b200 380f21c0 f1279308  ..2(....8.!..'..
 40205530 281fcc32 0c228617 00280f31 c3ff27b3  (..2."...(.1..'.
 40205540 07280f31 b4f127b3 0f280f31 c0ff27b3  .(.1..'..(.1..'.
 40205550 0c280f31 bfff2733 040c4246 0e00280f  .(.1..'3..BF..(.
 40205560 31baff27 b30d280f d6d20022 2f0031b7  1..'..(...."/.1.
 40205570 ff273304 0c328607 00380f21 b6ff2793  .'3..2...8.!..'.
 40205580 03281f8c a2380f21 b4ff2793 08281fcc  .(...8.!..'..(..
 40205590 320c1246 00000c02 1d0ff8b1 12c1300d  2..F..........0.
 402055a0 f0000000 12c1e009 71f961fd 01290f39  ........q.a..).9
 402055b0 1f492f59 3f280f38 1f482f58 3fc5de04  .I/Y?(.8.H/X?...
 402055c0 1d0f0871 f86112c1 200df000 12c1b002  ...q.a.. .......
 402055d0 6113f261 1210f120 226f0c39 df28cf32  a..a... "o.9.(.2
 402055e0 2f0d85d9 04290f39 1f219cff 28022602  /....).9.!..(.&.
 402055f0 0828cf38 dfc5f0ff cc62280f 381fc624  .(.8.....b(.8..$
 40205600 0000222f 0c322f0d c5dd0041 95ff5195  .."/.2/....A..Q.
 40205610 ff018df1 c00000a6 127622a0 03292f21  .........v"..)/!
 40205620 92ff293f 0c0229af 28cf38df 296f397f  ..)?..).(.8.)o9.
 40205630 286f387f 294f395f 2189ff28 02ccb221  (o8.)O9_!..(...!
 40205640 77f1318a ff298f39 9fc60200 216df131  w.1..).9....!m.1
 40205650 81ff226f 08326f09 2181ff22 22006622  .."o.2o.!.."".f"
 40205660 0a85c904 2c233902 06040000 22cf0885  ....,#9....."...
 40205670 de005662 0045c804 2c233902 222f0a16  ..Vb.E..,#9."/..
 40205680 720085c7 04322f0a 3902288f 389fc600  r....2/.9.(.8...
 40205690 00280f38 1f1d0f02 2113f221 1212c150  .(.8....!..!...P
 402056a0 0df00000 12c1b002 6113f261 1210f120  ........a..a... 
 402056b0 226f0c32 6f0d28cf 38df05cb 04290f39  "o.2o.(.8....).9
 402056c0 1f2166ff 28026602 08280f38 1f064300  .!f.(.f..(.8..C.
 402056d0 000028cf 38df05d5 0016c20f 4165ff51  ..(.8.......Ae.Q
 402056e0 65ff28cf 38df0158 f1c00000 a612750c  e.(.8..X......u.
 402056f0 32292f21 61ff293f 0c0229af 28cf38df  2)/!a.)?..).(.8.
 40205700 296f397f 286f387f 294f395f 2154ff28  )o9.(o8.)O9_!T.(
 40205710 02ccb221 42f13155 ff298f39 9fc60200  ...!B.1U.).9....
 40205720 2138f131 4cff226f 08326f09 214cff22  !8.1L."o.2o.!L."
 40205730 22006622 0a45bc04 2c233902 06040000  ".f".E..,#9.....
 40205740 22cf0845 d1005662 0005bb04 2c233902  "..E..Vb....,#9.
 40205750 222f0a16 720045ba 04322f0a 3902288f  "/..r.E..2/.9.(.
 40205760 389fc61d 004145ff 5146ff22 2f0c322f  8....AE.QF."/.2/
 40205770 0d0136f1 c00000d6 e20522a0 04292f21  ..6......."..)/!
 40205780 3eff293f 0c0229af 28cf38df 296f397f  >.)?..).(.8.)o9.
 40205790 286f387f 294f395f 211af131 19f1298f  (o8.)O9_!..1..).
 402057a0 399f212e ff280266 220905b5 042c2339  9.!..(.f"....,#9
 402057b0 02c60300 22cf0805 ca005662 00c5b304  ....".....Vb....
 402057c0 2c233902 222f0a16 720005b3 04322f0a  ,#9."/..r....2/.
 402057d0 3902288f 389fc600 00280f38 1f1d0f02  9.(.8....(.8....
 402057e0 2113f221 1212c150 0df00000 12c1b002  !..!...P........
 402057f0 6113f261 1210f120 226f0c32 6f0d49ef  a..a... "o.2o.I.
 40205800 59ff28cf 38df48ef 58ff05b2 04290f39  Y.(.8.H.X....).9
 40205810 1f2112ff 28026602 08280f38 1f062700  .!..(.f..(.8..'.
 40205820 0000222f 00381f05 c00056b2 0828cf38  .."/.8....V..(.8
 40205830 df45bf00 16120822 2f0e322f 0f85be00  .E....."/.2/....
 40205840 1652070c 32292f21 0fff293f 0c0229af  .R..2)/!..)?..).
 40205850 28cf38df 294f395f 28ef38ff 296f397f  (.8.)O9_(.8.)o9.
 40205860 21fffe28 02ccb221 edf03100 ff298f39  !..(...!..1..).9
 40205870 9fc60200 21e3f031 f7fe226f 08326f09  ....!..1.."o.2o.
 40205880 21f7fe22 22006622 0a05a704 2c233902  !.."".f"....,#9.
 40205890 06040000 22cf0805 bc005662 00c5a504  ....".....Vb....
 402058a0 2c233902 222f0a16 720005a5 04322f0a  ,#9."/..r....2/.
 402058b0 3902288f 389fc600 00280f38 1f1d0f02  9.(.8....(.8....
 402058c0 2113f221 1212c150 0df00000 12c1b002  !..!...P........
 402058d0 6113f261 12fd0129 cf39df28 cf38dfc5  a..a...).9.(.8..
 402058e0 af04290f 391f21dd fe280226 021d28cf  ..).9.!..(.&..(.
 402058f0 322f0d05 c1ff9c22 28cf322f 0d41c0f0  2/....."(.2/.A..
 40205900 51c0f001 d1f0c000 00a61207 280f381f  Q...........(.8.
 40205910 062f0000 21ddfe29 3f0c0229 af28cf38  ./..!..)?..).(.8
 40205920 df294f39 5f28cf38 df296f39 7f21cbfe  .)O9_(.8.)o9.!..
 40205930 2802ccb2 21baf031 d5fe298f 399f4602  (...!..1..).9.F.
 40205940 0021aff0 31c5fe29 8f399f28 cf38df41  .!..1..).9.(.8.A
 40205950 acf051ab f001cffe c00000ec 920c2229  ..Q...........")
 40205960 2f21befe 28026622 0a059904 2c233902  /!..(.f"....,#9.
 40205970 86120000 22cf0805 ae005602 04c59704  ....".....V.....
 40205980 32a02239 02460d00 22a00122 6f0221b3  2."9.F..".."o.!.
 40205990 fe222200 66220945 96042c13 3902c603  ."".f".E..,.9...
 402059a0 0022cf08 05ab0056 62000595 042c1339  .".....Vb....,.9
 402059b0 0221b7fe 10112085 ad00298f 399f222f  .!.... ...).9."/
 402059c0 0a167200 45930432 2f0a3902 288f389f  ..r.E..2/.9.(.8.
 402059d0 1d0f0221 13f22112 12c1500d f0000000  ...!..!...P.....
 402059e0 12c1b002 6113f261 1210f120 226f0c39  ....a..a... "o.9
 402059f0 df28cf32 2f0d4596 04290f39 1f2197fe  .(.2/.E..).9.!..
 40205a00 28022602 0828cf38 df85afff cc52280f  (.&..(.8.....R(.
 40205a10 381f8637 0028cf38 df4179f0 5179f001  8..7.(.8.Ay.Qy..
 40205a20 89f0c000 00a61202 06310021 9bfe293f  .........1.!..)?
 40205a30 0c0229af 28cf38df 294f395f 28cf38df  ..).(.8.)O9_(.8.
 40205a40 296f397f 2186fe28 02ccb221 74f0318f  )o9.!..(...!t.1.
 40205a50 fe298f39 9fc60200 216af031 7ffe226f  .).9....!j.1.."o
 40205a60 08326f09 222f0c38 df4165f0 5165f001  .2o."/.8.Ae.Qe..
 40205a70 89fec000 00ec920c 22292f21 78fe2802  ........")/!x.(.
 40205a80 66220985 87042c23 39020613 0022cf08  f"....,#9...."..
 40205a90 459c0056 32044586 0432a022 3902060e  E..V2.E..2."9...
 40205aa0 000022a0 01226f02 216dfe22 22006622  ..".."o.!m."".f"
 40205ab0 0b858404 2c133902 46040000 0022cf08  ....,.9.F...."..
 40205ac0 45990056 62004583 042c1339 022173fe  E..Vb.E..,.9.!s.
 40205ad0 101120c5 9b00298f 399f222f 0a167200  .. ...).9."/..r.
 40205ae0 85810432 2f0a3902 288f389f 06010000  ...2/.9.(.8.....
 40205af0 280f381f 1d0f0221 13f22112 12c1500d  (.8....!..!...P.
 40205b00 f0000000 12c1b002 6113f261 1210f120  ........a..a... 
 40205b10 226f0c32 6f0d28cf 38df0580 04290f39  "o.2o.(.8....).9
 40205b20 1f214efe 28026602 08280f38 1f063200  .!N.(.f..(.8..2.
 40205b30 0000222f 00322f01 c58e0056 620b28cf  .."/.2/....Vb.(.
 40205b40 38df458e 0016c20a 0c32292f 2155fe29  8.E......2)/!U.)
 40205b50 3f0c0229 af28cf38 df296f39 7f286f38  ?..).(.8.)o9.(o8
 40205b60 7f294f39 5f213dfe 2802ec72 28cf38df  .)O9_!=.(..r(.8.
 40205b70 4124f051 23f00134 f0c00000 a6120821  A$.Q#..4.......!
 40205b80 27f0313a fe460100 2125f031 40fe298f  '.1:.F..!%.1@.).
 40205b90 399fc609 0028cf38 df4119f0 5119f001  9....(.8.A..Q...
 40205ba0 2af0c000 00a61208 2116f031 2afe4601  *.......!..1*.F.
 40205bb0 002113f0 3129fe22 6f08326f 092127fe  .!..1)."o.2o.!'.
 40205bc0 22220066 22094573 042c2339 02c60300  "".f".Es.,#9....
 40205bd0 22cf0845 88005662 00057204 2c233902  "..E..Vb..r.,#9.
 40205be0 222f0a16 72004571 04322f0a 3902288f  "/..r.Eq.2/.9.(.
 40205bf0 389fc600 00280f38 1f1d0f02 2113f221  8....(.8....!..!
 40205c00 1212c150 0df00000 12c1b002 6113f261  ...P........a..a
 40205c10 1210f120 226f0c39 df28cf32 2f0dc57c  ... "o.9.(.2/..|
 40205c20 04290f39 1f210dfe 28022602 0828cf38  .).9.!..(.&..(.8
 40205c30 df058dff cc52280f 381fc625 0028cf38  .....R(.8..%.(.8
 40205c40 df41efef 51efef01 01f0c000 00d60208  .A..Q...........
 40205c50 0c12292f 2114fe29 3f0c0229 af28cf38  ..)/!..)?..).(.8
 40205c60 df296f39 7f286f38 7f294f39 5f21fbfd  .)o9.(o8.)O9_!..
 40205c70 2802ccb2 21e3ef31 e2ef298f 399fc605  (...!..1..).9...
 40205c80 0021dfef 31dfef41 deef51dd ef01f0ef  .!..1..A..Q.....
 40205c90 c0000022 6f08326f 0921f0fd 22220066  ..."o.2o.!.."".f
 40205ca0 22098565 042c1339 02c60300 22cf0885  "..e.,.9...."...
 40205cb0 7a005662 00456404 2c133902 222f0a16  z.Vb.Ed.,.9."/..
 40205cc0 72008563 04322f0a 3902288f 389fc600  r..c.2/.9.(.8...
 40205cd0 00280f38 1f1d0f02 2113f221 1212c150  .(.8....!..!...P
 40205ce0 0df00000 12c1e009 71f961fd 01290f39  ........q.a..).9
 40205cf0 1f280f38 1f457104 1d0f0871 f86112c1  .(.8.Eq....q.a..
 40205d00 200df000 12c1b002 6113f261 1210f120   .......a..a... 
 40205d10 226f0c22 2f0c456e 04290f21 d0fd2802  "o."/.En.).!..(.
 40205d20 26020628 cf057f00 cc42280f 86260000  &..(.....B(..&..
 40205d30 222f0c45 780031dc fd01ddfd c00000e6  "/.Ex.1.........
 40205d40 12028620 0022a003 226f0221 d8fd293f  ... .".."o.!..)?
 40205d50 0c0229af 28cf015b f6c00000 296f397f  ..).(..[....)o9.
 40205d60 286f387f 294f395f 21bdfd28 02ccb221  (o8.)O9_!..(...!
 40205d70 abef31be fd298f39 9fc60200 21a1ef31  ..1..).9....!..1
 40205d80 b5fd226f 08326f09 21b5fd22 22006622  .."o.2o.!.."".f"
 40205d90 0a855604 2c233902 06040000 22cf0885  ..V.,#9....."...
 40205da0 6b005662 00455504 2c233902 222f0a16  k.Vb.EU.,#9."/..
 40205db0 72008554 04322f0a 3902288f 389f0116  r..T.2/.9.(.8...
 40205dc0 f4c00000 86000000 280f1d0f 022113f2  ........(....!..
 40205dd0 211212c1 500df000 12c1b002 6113f261  !...P.......a..a
 40205de0 1210f120 226f0c22 2f0c055a 04290f21  ... "o."/..Z.).!
 40205df0 9bfd2802 66020428 0f464600 222f0c45  ..(.f..(.FF."/.E
 40205e00 6e0016e2 1031abfd 222f0c01 a9fdc000  n....1.."/......
 40205e10 00e61202 46200022 a003292f 21a7fd29  ....F ."..)/!..)
 40205e20 3f0c0229 af28cf01 27f6c000 00296f39  ?..).(..'....)o9
 40205e30 7f286f38 7f294f39 5f2188fd 2802ccb2  .(o8.)O9_!..(...
 40205e40 2177ef31 8afd298f 399fc602 00216cef  !w.1..).9....!l.
 40205e50 3181fd22 6f08326f 092180fd 22220066  1.."o.2o.!.."".f
 40205e60 22098549 042c2339 02c60300 22cf0885  "..I.,#9...."...
 40205e70 5e005662 00454804 2c233902 222f0a16  ^.Vb.EH.,#9."/..
 40205e80 72008547 04322f0a 3902288f 389f01e2  r..G.2/.9.(.8...
 40205e90 f3c00000 861f0000 003188fd 222f0c01  .........1.."/..
 40205ea0 88fdc000 00d6b206 22a00422 6f022182  ........".."o.!.
 40205eb0 fd293f0c 0229af28 cf0102f6 c0000029  .)?..).(.......)
 40205ec0 6f397f28 6f387f29 4f395f21 4def314c  o9.(o8.)O9_!M.1L
 40205ed0 ef298f39 9f2161fd 28026622 0ac54104  .).9.!a.(.f"..A.
 40205ee0 2c233902 06040000 22cf08c5 56005662  ,#9....."...V.Vb
 40205ef0 00854004 2c233902 222f0a16 7200c53f  ..@.,#9."/..r..?
 40205f00 04322f0a 3902288f 389f01c3 f3c00000  .2/.9.(.8.......
 40205f10 86000000 280f1d0f 022113f2 211212c1  ....(....!..!...
 40205f20 500df000 12c1b002 6113f261 1210f120  P.......a..a... 
 40205f30 226f0c32 6f0d28cf 38df0540 04290f21  "o.2o.(.8..@.).!
 40205f40 47fd2802 66020528 0f462800 00222f00  G.(.f..(.F(.."/.
 40205f50 05590056 5209222f 0c855800 16c20828  .Y.VR."/..X....(
 40205f60 df055800 1642080c 32292f21 56fd293f  ..X..B..2)/!V.)?
 40205f70 0c0229af 28cf01d3 f5c00000 294f395f  ..).(.......)O9_
 40205f80 28df01d0 f5c00000 296f397f 2134fd28  (.......)o9.!4.(
 40205f90 02ccb221 22ef3135 fd298f39 9fc60200  ...!".15.).9....
 40205fa0 2118ef31 2cfd226f 08326f09 212cfd22  !..1,."o.2o.!,."
 40205fb0 22006622 0a453404 2c233902 06040000  ".f".E4.,#9.....
 40205fc0 22cf0845 49005662 00053304 2c233902  "..EI.Vb..3.,#9.
 40205fd0 222f0a16 72004532 04322f0a 3902288f  "/..r.E2.2/.9.(.
 40205fe0 389f018d f3c00000 86000000 280f1d0f  8...........(...
 40205ff0 022113f2 211212c1 500df000 12c1b002  .!..!...P.......
 40206000 6113f261 1210f120 226f0c22 2f0cc533  a..a... "o."/..3
 40206010 04290f21 12fd2802 26021428 cf854f00  .).!..(.&..(..O.
 40206020 8cc228cf 31f7ee01 22fdc000 00a61204  ..(.1...".......
 40206030 280f0631 002124fd 293f0c02 29af28cf  (..1.!$.)?..).(.
 40206040 01a1f5c0 0000296f 397f286f 387f294f  ......)o9.(o8.)O
 40206050 395f2102 fd2802cc d221f0ee 310cfd29  9_!..(...!..1..)
 40206060 8f399f46 03000000 21e6ee31 fbfc226f  .9.F....!..1.."o
 40206070 08326f09 222f0c31 e2ee0115 fdc00000  .2o."/.1........
 40206080 ec820c22 292f21f5 fc280266 2209c526  ...")/!..(.f"..&
 40206090 042c2339 02461200 22cf08c5 3b005602  .,#9.F.."...;.V.
 402060a0 04852504 32a02239 02460d00 22a00122  ..%.2."9.F..".."
 402060b0 6f0221ea fc222200 66220905 24042c13  o.!.."".f"..$.,.
 402060c0 3902c603 0022cf08 c5380056 6200c522  9...."...8.Vb.."
 402060d0 042c1339 0221fdfc 10112045 3b00298f  .,.9.!.... E;.).
 402060e0 399f222f 0a167200 05210432 2f0a3902  9."/..r..!.2/.9.
 402060f0 288f389f 0149f3c0 00001d0f 022113f2  (.8..I.......!..
 40206100 211212c1 500df000 12c1b002 6113f261  !...P.......a..a
 40206110 1210f120 226f0c22 2f0c0528 04290f21  ... "o."/..(.).!
 40206120 cffc2802 26020628 cfc53e00 cc62280f  ..(.&..(..>..b(.
 40206130 86360000 000028cf 31b2ee01 e8fcc000  .6....(.1.......
 40206140 00a61202 06310021 e3fc293f 0c0229af  .....1.!..)?..).
 40206150 28cf015c f5c00000 296f397f 286f387f  (..\....)o9.(o8.
 40206160 294f395f 21befc28 02ccb221 acee31c7  )O9_!..(...!..1.
 40206170 fc298f39 9fc60200 21a2ee31 b7fc226f  .).9....!..1.."o
 40206180 08326f09 222f0c31 9eee01d1 fcc00000  .2o."/.1........
 40206190 ec820c22 292f21b1 fc280266 2209c515  ...")/!..(.f"...
 402061a0 042c2339 02461200 22cf08c5 2a005602  .,#9.F.."...*.V.
 402061b0 04851404 32a02239 02460d00 22a00122  ....2."9.F..".."
 402061c0 6f0221a6 fc222200 66220905 13042c13  o.!.."".f"....,.
 402061d0 3902c603 0022cf08 c5270056 6200c511  9...."...'.Vb...
 402061e0 042c1339 0221bcfc 10112045 2a00298f  .,.9.!.... E*.).
 402061f0 399f28af 8c624510 0438af32 6200288f  9.(..bE..8.2b.(.
 40206200 389f0105 f3c00000 86000000 280f1d0f  8...........(...
 40206210 022113f2 211212c1 500df000 12c1b002  .!..!...P.......
 40206220 6113f261 1210f120 226f0c22 2f0cc519  a..a... "o."/...
 40206230 04290f21 8afc2802 66020528 0f463000  .).!..(.f..(.F0.
 40206240 00280f05 2a005662 0b28cf85 290016e2  .(..*.Vb.(..)...
 40206250 0a0c3229 2f21a2fc 293f0c02 29af28cf  ..2)/!..)?..).(.
 40206260 0119f5c0 0000296f 397f286f 387f294f  ......)o9.(o8.)O
 40206270 395f217a fc2802ec 2228cf31 61ee018c  9_!z.(.."(.1a...
 40206280 fcc00000 a6120821 65ee3178 fc460100  .......!e.1x.F..
 40206290 2163ee31 7efc298f 399f8608 0028cf31  !c.1~.).9....(.1
 402062a0 58ee0183 fcc00000 a6120821 55ee3169  X..........!U.1i
 402062b0 fc460100 2153ee31 68fc226f 08326f09  .F..!S.1h."o.2o.
 402062c0 2167fc22 22006622 0a050304 2c233902  !g."".f"....,#9.
 402062d0 06040000 22cf0805 18005662 00c50104  ....".....Vb....
 402062e0 2c233902 222f0a16 72000501 04322f0a  ,#9."/..r....2/.
 402062f0 3902288f 389f01c8 f2c00000 86000000  9.(.8...........
 40206300 280f1d0f 022113f2 211212c1 500df000  (....!..!...P...
 40206310 12c1b002 6113f261 1210f120 226f0c22  ....a..a... "o."
 40206320 2f0c8509 04290f21 4dfc2802 26020628  /....).!M.(.&..(
 40206330 cf451e00 cc52280f 86270000 0028cf31  .E...R(..'...(.1
 40206340 30ee015f fcc00000 d6c2080c 12292f21  0.._.........)/!
 40206350 65fc293f 0c0229af 28cf01da f4c00000  e.)?..).(.......
 40206360 296f397f 286f387f 294f395f 213cfc28  )o9.(o8.)O9_!<.(
 40206370 02ccb221 23ee3122 ee298f39 9fc60500  ...!#.1".).9....
 40206380 2120ee31 1fee411e ee511dee 0131eec0  ! .1..A..Q...1..
 40206390 0000226f 08326f09 2131fc22 22006622  .."o.2o.!1."".f"
 402063a0 0a85f503 2c133902 06040000 22cf0885  ....,.9....."...
 402063b0 0a005662 0045f403 2c133902 222f0a16  ..Vb.E..,.9."/..
 402063c0 720085f3 03322f0a 3902288f 389f0192  r....2/.9.(.8...
 402063d0 f2c00000 86000000 280f1d0f 022113f2  ........(....!..
 402063e0 211212c1 500df000 12c1c0f9 f1fd0129  !...P..........)
 402063f0 8f399f28 8f389f29 2f393f28 3f290f28  .9.(.8.)/9?(?).(
 40206400 8f389f29 4f395f38 0f2100ee 20231029  .8.)O9_8.!.. #.)
 40206410 5f284f38 5f298f39 9f288f38 9f1d0ff8  _(O8_).9.(.8....
 40206420 f112c140 0df00000 12c1d0f9 b1fd0129  ...@...........)
 40206430 4f395f28 4f385f29 2f393f28 3f290f38  O9_(O8_)/9?(?).8
 40206440 0f21f2ed 20331021 28fc2a23 202f051d  .!.. 3.!(.*# /..
 40206450 0ff8b112 c1300df0 12c1d009 b1f9a1fd  .....0..........
 40206460 01294f0c 02290f28 4f383228 22484f58  .)O..).(O82("HOX
 40206470 34482401 08fcc000 008c320c 02460000  4H$.......2..F..
 40206480 280f1d0f 08b1f8a1 12c1300d f0000000  (.........0.....
 40206490 12c1d0f9 b1fd0129 4f2114fc 293f0c02  .......)O!..)?..
 402064a0 292f282f 383f290f 391f280f 381f1d0f  )/(/8?).9.(.8...
 402064b0 f8b112c1 300df000 12c1d0f9 b1fd0129  ....0..........)
 402064c0 4f284f29 1f281f29 0f380f21 d0ed2023  O(O).(.).8.!.. #
 402064d0 10292f28 2f294f28 4f1d0ff8 b112c130  .)/(/)O(O......0
 402064e0 0df00000 12c1d0f9 b1fd0129 4f284f29  ...........)O(O)
 402064f0 1f281f29 0f380f21 c5ed2023 10290f0c  .(.).8.!.. #.)..
 40206500 12380f41 fbfb37a4 0222a000 2020741d  .8.A..7.."..  t.
 40206510 0ff8b112 c1300df0 12c1d0f9 b1fd0129  .....0.........)
 40206520 4f284f29 1f281f29 0f280f8c 62380f21  O(O).(.).(..b8.!
 40206530 bfed2793 040c2246 1700280f 31f8ec27  ..'..."F..(.1..'
 40206540 b307280f 31ebfb27 b30f280f 31eafb27  ..(.1..'..(.1..'
 40206550 b30d280f 31e9fb27 33050c42 060e0000  ..(.1..'3..B....
 40206560 280f8c62 280f31ed ec27b30f 280f31af  (..b(.1..'..(.1.
 40206570 ed27b30c 280f31df fb273304 0c328605  .'..(.1..'3..2..
 40206580 00380f21 defb2713 07380f21 ddfb2793  .8.!..'..8.!..'.
 40206590 040c1246 00000c02 1d0ff8b1 12c1300d  ...F..........0.
 402065a0 f0000000 a04b2340 604aff3f ec49ff3f  .....K#@`J.?.I.?
 402065b0 1885fe3f 904aff3f 6c4aff3f f049ff3f  ...?.J.?lJ.?.I.?
 402065c0 a884fe3f e849ff3f b04b2340 c04b2340  ...?.I.?.K#@.K#@
 402065d0 d04b2340 e04b2340 f04b2340 004c2340  .K#@.K#@.K#@.L#@
 402065e0 ac0a1040 a4180040 12c1f0c9 11d921e9  ...@...@......!.
 402065f0 31090132 12183c20 37b01521 eaff01f8  1..2..< 7..!....
 40206600 ffc00000 c811d821 e8310801 12c1100d  .......!.1......
 40206610 f0e1e5ff 622e0202 26004216 03565000  ....b...&.B..VP.
 40206620 c5642946 f7ff3202 16520217 4793d472  .d)F..2..R..G..r
 40206630 16049216 057795cb 820218a2 02199798  .....w..........
 40206640 c2b21606 d21607b7 9ab9c202 1a32021b  .............2..
 40206650 d79cb042 160852c0 ff4793a7 16351c72  ...B..R..G...5.r
 40206660 c0fe1667 1c51d1ff 26303b26 4046c1d0  ...g.Q..&0;&@F..
 40206670 ff265059 66608c22 a00005ad 0221cdff  .&PYf`.".....!..
 40206680 01d8eac0 000021cc ff01d5ea c0000082  ......!.........
 40206690 0c0016e8 f601c9ff 3d0c0800 0c32c000  ........=....2..
 402066a0 00053f29 06d7ff38 05661318 45f12946  ..?)...8.f..E.)F
 402066b0 d4ff0000 0048050b 4456d415 45f02946  .....H..DV..E.)F
 402066c0 d0ff0000 0005572a 06ceff00 00007805  ......W*......x.
 402066d0 02160e66 17288206 46dd0066 185322c6  ...f.(..F..f.S".
 402066e0 250162ef c0000038 2e521328 4d023a25  %.b....8.R.(M.:%
 402066f0 32c32522 c25d014e f0c00000 860c0022  2.%".].N......."
 40206700 16286a22 02425c68 2e1bd072 0646d0d0  .(j".B\h...r.F..
 40206710 f466171d 22c62501 55efc000 00382e52  .f..".%.U....8.R
 40206720 13284d02 3a2532c3 2522c25d 0141f0c0  .(M.:%2.%".].A..
 40206730 00002d0c 0c0342a0 6701aaff c0000068  ..-...B.g......h
 40206740 2e721628 019fff9c 570c0c0a 3c6a2c22  .r.(....W...<j,"
 40206750 025c1bcc 22439082 1628c0c0 f4873cea  .\.."C...(....<.
 40206760 3199ff32 03006613 082197ff 019dffc0  1..2..f..!......
 40206770 00002196 ff019aff c0000068 2e421628  ..!........h.B.(
 40206780 9cb40c0c 2193ff6a 3c32035c 0195ffc0  ....!..j<2.\....
 40206790 0000682e 1bcc4216 28c0c0f4 473ce421  ..h...B.(...G<.!
 402067a0 8dff018f ffc00000 682e2216 281b3230  ........h.".(.20
 402067b0 c0f4d7bc 1e382e21 88ffca33 32035c01  .....8.!...32.\.
 402067c0 88ffc000 001bccc0 c0f4c79d e7682e22  .............h."
 402067d0 16281b32 017bff30 c0f4d7bc 1a321628  .(.2.{.0.....2.(
 402067e0 6a2c2202 5c303cc0 1bcc3a30 22436fc0  j,".\0<...:0"Co.
 402067f0 c0f4c79d e7221628 6a323203 5c2177ff  .....".(j22.\!w.
 40206800 0178ffc0 0000582e 6215280c 645a6662  .x....X.b.(.dZfb
 40206810 065c624e 20490546 7affc541 2ac678ff  .\bN I.Fz..A*.x.
 40206820 00000085 7b298676 ff000000 859d2946  ....{).v......)F
 40206830 74ff0000 602f2340 bc8bfe3f 142eff3f  t...`/#@...?...?
 40206840 142cff3f 18511040 12c1f0c2 61010261  .,.?.Q.@....a..a
 40206850 0030c320 c5540a9c 0221f6ff 31f7ff42  .0. .T...!..1..B
 40206860 a0cc015f ffc00000 06ffff22 a00032a4  ..._......."..2.
 40206870 2c01a1ee c0000022 a00132a4 2c019eee  ,......"..2.,...
 40206880 c00000c5 8b0521ed ff2222cb c57515c5  ......!..""..u..
 40206890 f90d2d0c 450e1145 40103d0c 21e9ff85  ..-.E..E@.=.!...
 402068a0 93110c02 31e8ff0c 0401c7eb c000000c  ....1...........
 402068b0 120173eb c0000045 490fc1e1 ff858605  ..s....EI.......
 402068c0 2d0c056b 17455211 c8110801 12c1100d  -..k.ER.........
 402068d0 f0000000 822eff3f b12eff3f 6a30ff3f  .......?...?j0.?
 402068e0 00900100 d02eff3f 082eff3f 332eff3f  .......?...?3..?
 402068f0 e82a0040 32a0ff12 c1e0c911 d921e931  .*.@2........!.1
 40206900 e1f5ff09 0102deff 220082f9 41379204  ........"...A7..
 40206910 0c244240 82c50402 f2a00161 63ea52a0  .$B@.......ac.R.
 40206920 0ec1edff d1eeff02 0c80221d 7f073502  .........."...5.
 40206930 562000f2 4c802736 0572a063 27370822  V ..L.'6.r.c'7."
 40206940 a06482a0 64825d7f 32a06401 3aeac000  .d..d.].2.d.:...
 40206950 0031e3ff 2020f430 22821011 20c5d410  .1..  .0"... ...
 40206960 020c810c 0ff65002 66100df2 4c8121dd  ......P.f...L.!.
 40206970 ff4c0301 dfffc000 00620c83 420c820c  .L.......b..B...
 40206980 85b62402 f24c8292 ce868219 01921900  ..$..L..........
 40206990 00881190 882067b5 040c4772 4c836608  ..... g...GrL.f.
 402069a0 1521d1ff 2c4301d2 ffc00000 21d0ff4c  .!..,C......!..L
 402069b0 0301cfff c0000002 dcffa200 f4b20c87  ................
 402069c0 b62a02f2 40f402de fff24083 b66b040c  .*..@.....@..k..
 402069d0 12224c87 c811e831 f84122cd 7f22c257  ."L....1.A"..".W
 402069e0 02120122 12000000 11200020 f64001cc  ..."..... . .@..
 402069f0 e00c030c 3542cd7f 42c45752 54003254  ....5B..B.WRT.2T
 40206a00 01d82108 0112c120 0df00000 00feef3f  ..!.... .......?
 40206a10 12c1f009 01168206 7ce40c13 b1fcff21  ........|......!
 40206a20 c0ebc020 000222c0 400010c0 20000262  ... ..".@... ..b
 40206a30 c0c02000 a22b8130 aa20c020 00a26b81  .. ..+.0. . ..k.
 40206a40 0cb9c020 009262c1 0cd8c020 008262c2  ... ..b.... ..b.
 40206a50 3c87c020 006222c0 706620c0 20006262  <.. .b".pf . .bb
 40206a60 c07c95c0 20004222 c0504410 c0200042  .|.. .B".PD.. .B
 40206a70 62c0c020 000222c0 300020c0 20000262  b.. ..".0. . ..b
 40206a80 c0058c0f 080112c1 100df000 00000000  ................
 40206a90 000f0000 00feff5f 0000ff00 12c1e0d9  ......._........
 40206aa0 21f94109 01c911e9 31cd02ed 03015ce9  !.A.....1.....\.
 40206ab0 c00000dd 02f1f6ff 01f7ffc0 ffd10aff  ................
 40206ac0 c1f6ffc0 2000022f 87070c14 0155e9c0  .... ../.....U..
 40206ad0 0000d002 c0073e08 c0200032 2f87c783  ......>.. .2/...
 40206ae0 eac811d8 21e831f8 41080112 c1200df0  ....!.1.A.... ..
 40206af0 5c031040 c297fe3f bc97fe3f a097fe3f  \..@...?...?...?
 40206b00 c0a80401 ffffff00 c897fe3f 748c2240  ...........?t."@
 40206b10 14c7ff3f 000e0060 e02e2340 e02f2340  ...?...`..#@./#@
 40206b20 c88bfe3f d08bfe3f dc8bfe3f 00302340  ...?...?...?.0#@
 40206b30 00ff0000 0899fe3f 942dff3f 0499fe3f  .......?.-.?...?
 40206b40 54040040 44021040 682e0040 fc0e1040  T..@D..@h..@...@
 40206b50 a40e1040 22a00912 c1f0d261 02c26101  ...@"......a..a.
 40206b60 e931c1e3 ff09013d 0c01f5ff c000000c  .1.....=........
 40206b70 023d0c01 f3ffc000 000c223d 0c01f0ff  .=........"=....
 40206b80 c000000c 323d0c01 eeffc000 001cc23d  ....2=.........=
 40206b90 0c01ebff c000001c d23d0c01 e9ffc000  .........=......
 40206ba0 003d0c0c 8201e6ff c0000045 780de1d1  .=.........Ex...
 40206bb0 ff2d0e01 e4ffc000 0021cfff 3d0e45d3  .-.......!..=.E.
 40206bc0 0101d0ff c1ceff21 ceff291c 293c092c  .......!..).)<.,
 40206bd0 01deffc0 0000055f 1d052b1c c1cbff2d  ......._..+....-
 40206be0 0c017fe9 c000002d 0c31c8ff 0c04017a  .......-.1.....z
 40206bf0 e9c00000 2d0c1c93 0c140c15 0178e9c0  ....-........x..
 40206c00 000005cf ffc52c00 22a08001 29f5c000  ......,."...)...
 40206c10 0031bfff 3803dd02 28133833 0186e9c0  .1..8...(.83....
 40206c20 00003d0d 42a08040 221122d2 c0017cf3  ..=.B..@"."...|.
 40206c30 c0000001 99ff2197 ffc02000 32228737  ......!... .2".7
 40206c40 0008c020 00422287 0784f6c1 b2ffc020  ... .B"........ 
 40206c50 00522c47 570008c0 2000622c 470786f6  .R,GW... .b,G...
 40206c60 c567fb72 0d002657 1ad02d20 31abff42  .g.r..&W..- 1..B
 40206c70 a08001ef eec00000 e03e20d0 2d2085bc  .........> .- ..
 40206c80 ff860100 3d0e2d0d c5bbff2d 0d0146f5  ....=.-....-..F.
 40206c90 c0000021 a2ff31a2 ff41a2ff 51a3ff01  ...!..1..A..Q...
 40206ca0 50fec000 0021a1ff c0200032 2c9f51a0  P....!... .2,.Q.
 40206cb0 ff3030f5 c0200042 2cfe5044 10404841  .00.. .B,.PD.@HA
 40206cc0 c0200052 2cfe5050 740145fe c000001c  . .R,.PPt.E.....
 40206cd0 c20160ef c000001c c4cd02d1 96ff0c02  ..`.............
 40206ce0 3d0d019a ffc00000 480db654 0b2d0d0c  =.......H..T.-..
 40206cf0 031cc401 3cfec000 0022a000 c03c201c  ....<...."...< .
 40206d00 c40193ff c000002d 0c0127f5 c000000c  .......-..'.....
 40206d10 f76c0861 3effc020 00522680 80551070  .l.a>.. .R&..U.p
 40206d20 5520c020 00526680 0c1245ce ffc173ff  U . .Rf...E...s.
 40206d30 855cfbb2 a073d1fa eac02000 b26dc50c  .\...s.... ..m..
 40206d40 1a917dff a24c3cc2 09702d0c c55f1126  ..}..L<..p-.._.&
 40206d50 1c02663c 05101120 05f71626 2c02663c  ..f<... ...&,.f<
 40206d60 02855c12 661c0921 b6fe2842 280205ac  ..\.f..!..(B(...
 40206d70 1e059701 66120285 9b012170 ff28028c  ....f.....!p.(..
 40206d80 12c00200 c811d821 e8310801 12c1100d  .......!.1......
 40206d90 f0000000 fcff0000 20302340 30302340  ........ 0#@00#@
 40206da0 12c1e009 012951c9 11e931d9 21f941dd  .....)Q...1.!.A.
 40206db0 03fd02e1 f8ff3bc3 e0cc102d 0c01bcf4  ......;....-....
 40206dc0 c00000ed 024d0c40 2f113d0e 0115f3c0  .....M.@/.=.....
 40206dd0 0000acad f1f1ff0c 0c8bff2d 0fca3e32  ...........-..>2
 40206de0 030001ff fdc00000 1b4c4040 44cc7421  .........L@@D.t!
 40206df0 eaff01fb fdc00000 1bccc0c0 f4c79dda  ................
 40206e00 21e7ff01 f7fdc000 002d0e01 e7f4c000  !........-......
 40206e10 00c811d8 21e831f8 41080112 c1200df0  ....!.1.A.... ..
 40206e20 40302340 12c1f0c9 110901cd 0221fcff  @0#@.........!..
 40206e30 01ecfdc0 00001b2c 32a37045 f6ff2b2c  .......,2.pE..+,
 40206e40 32a370c5 f5ff3b2c 1cc345f5 ffc81108  2.p...;,..E.....
 40206e50 0112c110 0df00000 b84aff3f d895fe3f  .........J.?...?
 40206e60 61feff41 feff0c05 67b40752 44001b44  a..A....g..RD..D
 40206e70 6794f70d f0000000 e097fe3f 21ffff28  g..........?!..(
 40206e80 420df000 b84aff3f f8bfff3f 3086fe3f  B....J.?...?0..?
 40206e90 41feff7c 8561f8ff 71fbff79 568b3750  A..|.a..q..yV.7P
 40206ea0 33107044 c0504410 392651f8 ff491652  3.pD.PD.9&Q..I.R
 40206eb0 15003a24 5022c050 44c04946 29060c05  ..:$P".PD.IF)...
 40206ec0 59365902 59124913 29030df0 0000fcff  Y6Y.Y.I.).......
 40206ed0 00020060 41f0fe51 fdffc020 002224fe  ...`A..Q... ."$.
 40206ee0 5662ffc0 20003224 c05783ed b2a08071  Vb.. .2$.W.....q
 40206ef0 f8ffa1c6 fec02000 922a8ab0 9920c020  ...... ..*... . 
 40206f00 00926a8a 0c18c020 0062273f 806620c0  ..j.... .b'?.f .
 40206f10 20006267 3f0c35c0 20003224 ff503320   .bg?.5. .2$.P3 
 40206f20 c0200032 64ff2c02 c02000b2 24c720bb  . .2d.,.. ..$. .
 40206f30 20c02000 b264c77c eac02000 9224cba0   . ..d.|.. ..$..
 40206f40 9910c020 009264cb 0c68c020 007224cb  ... ..d..h. .r$.
 40206f50 807720c0 20007264 cb612ceb c0200052  .w . .rd.a,.. .R
 40206f60 24c66055 10c02000 5264c60d f0000000  $.`U.. .Rd......
 40206f70 41c9fe51 d6ffc020 002224fe 5662ffc0  A..Q... ."$.Vb..
 40206f80 20003224 c05783ed b2af7f71 d1ff7cea   .2$.W.....q..|.
 40206f90 919ffec0 20008229 8ab08810 c0200082  .... ..)..... ..
 40206fa0 698ac020 0062273f a06610c0 20006267  i.. .b'?.f.. .bg
 40206fb0 3f7cc5c0 20003224 ff503310 c0200032  ?|.. .2$.P3.. .2
 40206fc0 64ff22af dfc02000 b224c720 bb10c020  d."... ..$. ... 
 40206fd0 00b264c7 c0200092 24cba099 10c02000  ..d.. ..$..... .
 40206fe0 9264cb0c 68c02000 7224cb80 7720c020  .d..h. .r$..w . 
 40206ff0 007264cb 6106ebc0 20005224 c6605510  .rd.a... .R$.`U.
 40207000 c0200052 64c60df0 00000020 7ce681a1  . .Rd...... |...
 40207010 fec02000 b228cb60 bb10c020 00b268cb  .. ..(.`... ..h.
 40207020 0c6ac020 009228cb a09920c0 20009268  .j. ..(... . ..h
 40207030 cb68125a 7377b603 0c120df0 e6150286  .h.Zsw..........
 40207040 2600a1f1 ff91f9ea a6c53fa0 b320c020  &.........?.. . 
 40207050 00b268c1 c0200092 68c0c020 007228c0  ..h.. ..h.. .r(.
 40207060 8c77c020 002228c0 5662ff0c 028062a0  .w. ."(.Vb....b.
 40207070 c020001b 226226d0 69042020 744b4466  . .."b&.i.  tKDf
 40207080 82ea52c5 e032c320 c6120080 b501b0b3  ..R..2. ........
 40207090 20c02000 b268c1c0 20009268 c0c02000   . ..h.. ..h.. .
 402070a0 7228c08c 77c02000 2228c056 62ff5070  r(..w. ."(.Vb.Pp
 402070b0 14505221 1b657056 93505074 9c550c02  .PR!.epV.PPt.U..
 402070c0 8062a0c0 20001b22 6226d069 04202074  .b.. .."b&.i.  t
 402070d0 4b442795 ea0c05a6 150286da ff0c020d  KD'.............
 402070e0 f0000000 0880fe3f 31ffff0c 14202493  .......?1.... $.
 402070f0 2243000d f0000000 21fbff22 02000df0  "C......!.."....
 40207100 0498fe3f d0712040 90302340 ab98fe3f  ...?.q @.0#@...?
 40207110 12c1f0c2 61022261 00091145 f10eac72  ....a."a...E...r
 40207120 c1f8ffc2 ccfc320c 00dc1321 f5ff31f5  ......2....!..1.
 40207130 ff0c0401 29e8c000 000c1002 4c0085ed  ....).......L...
 40207140 0e020c18 9c622610 140c0286 01002801  .....b&.......(.
 40207150 2240847c f2c82108 1112c110 0df05630  "@.|..!.......V0
 40207160 0222a001 c5080f21 e6ff011d e8c00000  .".....!........
 40207170 21e4ff32 a00a0c04 0c150118 e8c00000  !..2............
 40207180 0c13324c 18020c19 0ca41b00 00007402  ..2L..........t.
 40207190 4c1907b4 0d21dcff 0112fdc0 00000ca0  L....!..........
 402071a0 024c1922 0c1a31d9 ff0a223a 020b22a6  .L."..1...":..".
 402071b0 929b3801 32407a06 e6ff0000 1098fe3f  ..8.2@z........?
 402071c0 3099fe3f 8898fe3f 1b98fe3f 700b1040  0..?...?...?p..@
 402071d0 12c1f0e9 310901d9 21c911c1 f8ff0c0d  ....1...!.......
 402071e0 020c09d2 4c081640 09e1f5ff 10112085  ....L..@...... .
 402071f0 e20ecc72 10112085 e30e56d2 07420c0a  ...r.. ...V..B..
 40207200 ea040200 00261060 26205426 30422640  .....&.`& T&0B&@
 40207210 36265027 66600b21 ebff320c e4858f01  6&P'f`.!..2.....
 40207220 420c0a02 0c091b44 4040740b 00000074  B......D@@t....t
 40207230 024c0966 943bd24c 0a060e00 220c7332  .L.f.;.L....".s2
 40207240 0c7485ca 00c6f5ff 01e1ffc0 000086f3  .t..............
 40207250 ff21ddff 320c7245 1b0186f0 ff000000  .!..2.rE........
 40207260 c54c0146 eeff0000 00855501 06ecff00  .L.F......U.....
 40207270 0000424c 0a5630f7 86000002 0c09e1a0  ..BL.V0.........
 40207280 ffdc602d 0e01d6e7 c0000008 01d24c08  ..`-..........L.
 40207290 e831c811 d82112c1 100df022 a00145f5  .1...!....."..E.
 402072a0 0ee02e20 01cfe7c0 0000e02e 200ca30c  ... ........ ...
 402072b0 040c1501 cae7c000 000c1d06 f3ff0000  ................
 402072c0 d8361040 12c1f009 0101fdff c0000008  .6.@............
 402072d0 0112c110 0df00000 22a00012 c1f00261  ........"......a
 402072e0 00c52006 2020f402 210012c1 100df000  .. .  ..!.......
 402072f0 12c1f002 6100055d 062020f4 02210012  ....a..].  ..!..
 40207300 c1108000 00000000 9836ff3f 12c1f009  .........6.?....
 40207310 0145a800 0d022911 26320429 11661204  .E....).&2.).f..
 40207320 c5a11608 11263002 66200510 1120c50e  .....&0.f ... ..
 40207330 1221f5ff 01abe7c0 000021f3 ff31a3ff  .!........!..1..
 40207340 0c0401a5 e7c00000 21f0ff32 a0640c04  ........!..2.d..
 40207350 0c1501a2 e7c00000 080112c1 100df000  ................
 40207360 00000000 fc2dff3f 22a37012 c1f0c261  .....-.?".p....a
 40207370 01026100 014ff3c0 000020c2 2032a0ff  ..a..O.... . 2..
 40207380 42a37001 98fcc000 002d0c31 f6ff0c84  B.p......-.1....
 40207390 0128edc0 00002d0c c5c9002d 0c0182f3  .(....-....-....
 402073a0 c00000c8 11080112 c1100df0 0c020c84  ................
 402073b0 12c1f03d 01092101 9af1c000 00220103  ...=..!......"..
 402073c0 08212024 4112c110 0df00000 7d2dff3f  .! $A.......}-.?
 402073d0 21ffff22 02802020 440df000 c0302340  !.."..  D....0#@
 402073e0 12c1f009 0185feff b6320d1c f0071208  .........2......
 402073f0 0c120801 12c1100d f021f8ff 0179fcc0  .........!...y..
 40207400 00000c02 86faff00 12c1f009 0105fdff  ................
 40207410 7cf041ee ff380142 048012c1 10404504  |.A..8.B.....@E.
 40207420 2004932d 000d030d f0000000 00100000   ..-............
 40207430 12c1f0c9 31c1e5ff 0921020c 80220c7f  ....1....!..."..
 40207440 000741dc 9027625b 220c8442 0c86320c  ..A..'b["..B..2.
 40207450 85004411 80331140 33203022 20860e00  ..D..3.@3 0" ...
 40207460 85f4ff29 11c51d00 dc2251f0 ff620c80  ...)....."Q..b..
 40207470 0c026060 4462c6e1 60259306 07000811  ..``Db..`%......
 40207480 0000748c f0e65002 e62030e6 7002e650  ..t...P.. 0.p..P
 40207490 30080146 00004c10 402011c8 31082112  0..F..L.@ ..1.!.
 402074a0 c1100df0 220c8142 0c83320c 82004411  ...."..B..2...D.
 402074b0 80331140 33203022 2086f7ff 02a08146  .3.@3 0" ......F
 402074c0 f5ff02a1 01c6f3ff 51c1ff52 05801cf6  ........Q..R....
 402074d0 502044a6 32076712 04502741 0df00c12  P D.2.g..P'A....
 402074e0 0df00000 e0302340 20312340 60312340  .....0#@ 1#@`1#@
 402074f0 40312340 00312340 12c1e009 21c931d9  @1#@.1#@....!.1.
 40207500 41cd02dd 0385edff 168204ec 8c0c023d  A..............=
 40207510 010c8401 43f1c000 00020103 00044116  ....C.........A.
 40207520 80072620 75263072 26406f21 eeff012c  ..& u&0r&@o!...,
 40207530 fcc00000 06070066 1c10c5ec ffec0221  .......f.......!
 40207540 eaff0127 fcc00000 06020021 e8ff0124  ...'.......!...$
 40207550 fcc00000 0c02c831 d8410821 12c1200d  .......1.A.!.. .
 40207560 f021e3ff 3d0d011e fcc00000 42a0bfd0  .!..=.......B...
 40207570 58413196 ffd060f5 d2438162 43832203  XA1...`..C.bC.".
 40207580 80524382 40221022 438022c3 7f85aa00  .RC.@"."C.".....
 40207590 85d7ff0c 1246efff 00000045 e9ff20c2  .....F.....E.. .
 402075a0 20d03d20 21d4ff01 0efcc000 0092a0fb   .= !...........
 402075b0 d02841c0 00f5c0b8 418184ff d030f5d2  .(A.....A....0..
 402075c0 48843248 86c24881 b2488202 4883a208  H.2H..H..H..H...
 402075d0 80224885 72087f22 c87f9077 10a0a064  ."H.r.."...w...d
 402075e0 a2488092 a0049077 2072487f 85a400c5  .H.....w rH.....
 402075f0 d1ff46e7 ff000000 7c2dff3f 12c1f0c9  ..F.....|-.?....
 40207600 110901cd 0285dcff b62c040c 02c60900  .........,......
 40207610 51faff26 22041cf0 079208c0 403402a0  Q..&".......@4..
 40207620 f0460100 c0401402 a0fc3205 800c1200  .F...@....2.....
 40207630 33104033 20324580 c8110801 12c1100d  3.@3 2E.........
 40207640 f0000000 12c1f009 0145d8ff 01ebff1c  .........E......
 40207650 f337121d 26221a02 00800040 1466140b  .7..&".....@.f..
 40207660 27e0170c 02080112 c1100df0 27e0f306  '...........'...
 40207670 02005200 80505034 6615e70c 1206f9ff  ..R..PP4f.......
 40207680 0098fe3f f6320a31 feff0c14 2243f546  ...?.2.1...."C.F
 40207690 00000c04 2d040df0 21faff22 02f50df0  ....-...!.."....
 402076a0 90312340 80312340 94312340 9c312340  .1#@.1#@.1#@.1#@
 402076b0 98312340 a0312340 a4312340 12c1f009  .1#@.1#@.1#@....
 402076c0 21c5d0ff 01efff29 110200f5 0c022620  !......)......& 
 402076d0 38860b00 22058059 01202034 0b2256e2  8..."..Y.  4."V.
 402076e0 0b21efff 01bffbc0 00000801 22008032  .!.........."..2
 402076f0 a0f03022 10224080 211bffc5 9300c5c0  ..0"."@.!.......
 40207700 ff0c1208 2112c110 0df021e6 ff01b4fb  ....!.....!.....
 40207710 c0000048 1151b8ff 2624b81c f66714b3  ...H.Q..&$...g..
 40207720 590192a0 80720580 82058170 00148080  Y....r.....p....
 40207730 64908820 82458127 e7106610 3521daff  d.. .E.'..f.5!..
 40207740 01a8fbc0 00000801 860c0066 103521d7  ...........f.5!.
 40207750 ff01a3fb c0000008 01220080 32a0fc30  ........."..2..0
 40207760 22102240 800c4342 a0fb4022 10302220  "."@..CB..@".0" 
 40207770 46e0ff21 cfff019a fbc00000 08012200  F..!..........".
 40207780 8006f8ff 21ccff01 96fbc000 00080122  ....!.........."
 40207790 008032a0 fc302210 0c133022 2046f0ff  ..2..0"...0" F..
 402077a0 21c6ff01 8ffbc000 00080122 008032a0  !.........."..2.
 402077b0 f0302210 0c133022 2006ceff 6c0c1040  .0"...0" ...l..@
 402077c0 12c1f022 61000261 01c55c00 20022029  ..."a..a..\. . )
 402077d0 2131abff 0c122243 f7263004 09216610  !1...."C.&0..!f.
 402077e0 04c55516 08212630 02662002 c5c21121  ..U..!&0.f ....!
 402077f0 c6fe017b e6c00000 21c4fe31 f0ff4221  ...{....!..1..B!
 40207800 000175e6 c0000021 c0fe32a0 6442a000  ..u....!..2.dB..
 40207810 52a00101 72e6c000 00081112 c1100df0  R...r...........
 40207820 8cd22612 0b262208 2642050c 042d040d  ..&..&".&B...-..
 40207830 f03193ff 0c142243 f606fcff 12c1f002  .1...."C........
 40207840 610005aa 09022100 12c11080 00000000  a.....!.........
 40207850 12c1f002 610005ab 09022100 12c11080  ....a.....!.....
 40207860 00000000 12c1f002 61000549 09022100  ........a..I..!.
 40207870 12c11080 00000000 042f0040 12c1f05c  ........./.@...\
 40207880 05090101 62fc5792 1b7ce3c0 20002220  ....b.W..|.. ." 
 40207890 85302210 c0200022 60852d05 01f7ffc0  .0".. ."`.-.....
 402078a0 00008607 0052a0a0 57921d2d 050c16c0  .....R..W..-....
 402078b0 20004220 85604420 c0200042 608501ee   .B .`D . .B`...
 402078c0 ffc00000 0c124600 000c0208 0112c110  ......F.........
 402078d0 0df00000 0c2f0040 12c1f009 0101fdff  ...../.@........
 402078e0 c0000020 20740801 12c1100d f0000000  ...  t..........
 402078f0 12c1f009 0105feff 5c000792 123160ff  ........\....1`.
 40207900 0c122243 f822a0a0 05f7ff0c 12460000  .."C.".......F..
 40207910 0c020801 12c1100d f0000000 12c1f009  ................
 40207920 0145fbff 02a0a007 92170155 ff2200f8  .E.........U."..
 40207930 66120e5c 020c0332 40f805f4 ff0c1246  f..\...2@......F
 40207940 00000c02 080112c1 100df000 51e6fd0c  ............Q...
 40207950 04424501 22a08431 f2e7c020 0029a30d  .BE."..1... .)..
 40207960 f0000000 000af23f 31ffffc0 20003223  .......?1... .2#
 40207970 802023c0 0df00000 8098fe3f d0312340  . #........?.1#@
 40207980 00322340 d04c0040 12c1a0c2 6114c1ac  .2#@.L.@....a...
 40207990 fb026113 c84c01f8 ffc80c72 201facac  ..a..L.....r ...
 402079a0 ac875802 281c082c 27950e68 03383c07  ..X.(..,'..h.8<.
 402079b0 96098804 37181446 0000383c 39b109a1  ....7..F..8<9...
 402079c0 29910c39 998122c1 20c00700 720c0862  )..9..". ...r..b
 402079d0 0c07520c 06420c05 320c04a2 0c09a901  ..R..B..2.......
 402079e0 920c0a99 11820c0b 8921220c 0c293121  .........!"..)1!
 402079f0 e3ff020c 0d0941b2 0c0eb951 a20c0fa9  ......A....Q....
 40207a00 6101f7fa c00000c1 8efb21dd ff01f4fa  a.........!.....
 40207a10 c0000021 49fc384c 0c500243 bab20271  ...!I.8L.P.C...q
 40207a20 42027066 1b346614 31cd0221 37fe01ec  B.pf.4f.1..!7...
 40207a30 e5c00000 0c14320c 7221cfff 00134022  ......2.r!....@"
 40207a40 02800c03 20500450 34830022 a10044a1  .... P.P4.."..D.
 40207a50 0033a10c 0501cbff c00000c2 21140221  .3..........!..!
 40207a60 1312c160 0df00000 0080fe3f 3086fe3f  ...`.......?0..?
 40207a70 10322340 3086fe3f d495fe3f 30322340  .2#@0..?...?02#@
 40207a80 50322340 00c0ff3f 70322340 21f9ff41  P2#@...?p2#@!..A
 40207a90 f7ff51f5 ff12c1f0 09013d05 5054c001  ..Q.......=.PT..
 40207aa0 d0fac000 0021f5ff 51f3ff41 f3ff3d05  .....!..Q..A..=.
 40207ab0 5054c001 cbfac000 0021f1ff 51e8fc41  PT.......!..Q..A
 40207ac0 e6fc3d05 5054c001 c6fac000 0021eeff  ..=.PT.......!..
 40207ad0 41edff61 ecfc51eb ff3d0660 55c001c0  A..a..Q..=.`U...
 40207ae0 fac00000 080112c1 100df000 12c1f002  ................
 40207af0 61008538 ff022100 12c11080 00000000  a..8..!.........
 40207b00 000000ff 41ffff21 c1fbc020 00322294  ....A..!... .2".
 40207b10 40331041 fcfbc020 00222295 10484040  @3.A... .""..H@@
 40207b20 22103022 810df000 12c1f002 610085dc  ".0"........a...
 40207b30 0c022100 12c11080 00000000 2179e7c0  ..!.........!y..
 40207b40 20002222 470df000 80bfb186 12c1d009   .""G...........
 40207b50 914921c9 a1d9b1cd 02d2c3fe e61d03ab  .I!.............
 40207b60 d30bc259 41696179 110c030c 020c0009  ...YAiay........
 40207b70 31295139 012d0c32 a19001ae e5c00000  1)Q9.-.2........
 40207b80 297132a0 642d0c01 abe5c000 0029810c  )q2.d-.......)..
 40207b90 c322a16f 202d8201 a7e5c000 000c0358  .".o -.........X
 40207ba0 71788148 21c06241 2a447066 c022a16d  qx.H!.bA*Dpf.".m
 40207bb0 202c826a 555a442a 2447b201 0c13d841   ,.jUZD*$G.....A
 40207bc0 0c051c84 c8310114 efc00000 3a3c2a2d  .....1......:<*-
 40207bd0 d7b2011b 33d8610c 053cc4c8 51010eef  ....3.a..<..Q...
 40207be0 c000003a 3c2a2dd7 b2011b33 c801d811  ...:<*-....3....
 40207bf0 0c053cc4 0109efc0 00002a4d 21d3ff3a  ..<.......*M!..:
 40207c00 0c2a24d7 b4011b00 32c0f1c8 a1d8b147  .*$.....2......G
 40207c10 b20232c0 f2089112 c1300df0 3199fe22  ..2......0..1.."
 40207c20 63410df0 21c4fb0d f0000000 12c1f002  cA..!...........
 40207c30 61034516 00261234 bc1201bf fb020064  a.E..&.4.......d
 40207c40 2610290c 12852402 0127fd9c 22220002  &.)...$..'..""..
 40207c50 ccd20c12 3d01855f 012d0145 2c190121  ....=.._.-.E,..!
 40207c60 fd0c1222 40020831 12c1100d f00c02c6  ..."@..1........
 40207c70 fcff0000 12c1f002 6100c511 0026122f  ........a....&./
 40207c80 16c20201 adfb0200 64261023 0c120520  ........d&.#... 
 40207c90 020114fd 8ca22200 02661205 05301901  ......"..f...0..
 40207ca0 11fd0c12 0c033240 02080112 c1100df0  ......2@........
 40207cb0 0c02c6fc ff000000 210bfd22 02020df0  ........!.."....
 40207cc0 12c1f002 6100050d 00262241 16e20301  ....a....&"A....
 40207cd0 9afb0200 64261035 22a00045 1b020c14  ....d&.5"..E....
 40207ce0 0101fd9c b2320003 dc635202 31076511  .....2...cR.1.e.
 40207cf0 0c066912 69226932 85d6170c 1401f9fc  ..i.i"i2........
 40207d00 cca24240 030c1208 0112c110 0df00c02  ..B@............
 40207d10 c6fcff00 12c1f002 6100c507 0026222f  ........a....&"/
 40207d20 16c20201 85fb0200 64261023 0c020516  ........d&.#....
 40207d30 0201ecfc 8ca23200 03661305 c5411801  ......2..f...A..
 40207d40 e9fc0c12 0c044240 03080112 c1100df0  ......B@........
 40207d50 0c02c6fc ff000000 21e3fc22 02030df0  ........!.."....
 40207d60 12c1f0d9 21c91109 01cd0266 1205217d  ....!......f..!}
 40207d70 fd860000 853500d2 0208b64d 010c2d26  .....5.....M..-&
 40207d80 1c050109 f1c00000 0801d020 74c811d8  ........... t...
 40207d90 2112c110 0df00000 0c1212c1 f0090105  !...............
 40207da0 fcff0801 12c1100d f0000000 0c0212c1  ................
 40207db0 f00901c5 faff0801 12c1100d f0000000  ................
 40207dc0 12c1f0c9 110901cd 020c10f6 42010c00  ............B...
 40207dd0 0c2200c2 93261c01 cc4c1011 20c56311  ."...&...L.. .c.
 40207de0 262c01cc 4c101120 45f5152d 0c101120  &,..L.. E..-... 
 40207df0 85551026 1c02663c 05101120 c5ec1526  .U.&..f<... ...&
 40207e00 2c02663c 02455211 661c0b21 8dfa2222  ,.f<.ER.f..!..""
 40207e10 04222200 85a11dc8 11080112 c1100df0  ."".............
 40207e20 a498fe3f b846ff3f 12c1f002 610085f6  ...?.F.?....a...
 40207e30 ff200220 66321c01 faff0200 80563001  . . f2.......V0.
 40207e40 0c02c504 0241f7ff 0c134804 0c202044  .....A....H..  D
 40207e50 c0400383 2d000801 12c1100d f0000000  .@..-...........
 40207e60 90322340 12c1f009 01168204 f6424541  .2#@.........BEA
 40207e70 ecff0c00 02448026 12162622 4566322b  .....D.&..&"Ef2+
 40207e80 45f1ff66 323731e6 ff0c3222 43808606  E..f271...2"C...
 40207e90 0045f0ff 26120505 f0ff6632 200168fa  .E..&.....f2 .h.
 40207ea0 02200416 70012220 0045981d 0c120801  . ..p." .E......
 40207eb0 12c1100d f021eaff 01caf9c0 00000c02  .....!..........
 40207ec0 86faff45 edff2622 05c5ecff 6632ee01  ...E..&"....f2..
 40207ed0 5cfa0850 1660fe28 0045951d 06f3ff00  \..P.`.(.E......
 40207ee0 00000000 842dff3f dc97fe3f 12c1f0c9  .....-.?...?....
 40207ef0 210911cd 02f64254 0110fb02 00643901  !.....BT.....d9.
 40207f00 2610490c 528520ff 66020d31 ddfd2801  &.I.R. .f..1..(.
 40207f10 c2438322 4384060a 0001f2ff 51f3ff42  .C."C.......Q..B
 40207f20 00805205 00c71419 09316615 062d0c05  ..R......1f..-..
 40207f30 e9ff0831 6801c240 80661605 210afd85  ...1h..@.f..!...
 40207f40 0f000c12 c8210811 12c1100d f00c0246  .....!.........F
 40207f50 fcff0000 0c1312c1 f0090105 f9ff0801  ................
 40207f60 12c1100d f0000000 0c0312c1 f00901c5  ................
 40207f70 f7ff0801 12c1100d f0000000 12c1f009  ................
 40207f80 019c9302 a0ef0c06 1b566a42 42040050  .........VjBB..P
 40207f90 60f40004 30000074 6793ec86 000002a0  `...0..tg.......
 40207fa0 ef2d0008 0112c110 0df00000 b0322340  .-...........2#@
 40207fb0 f4091040 200a1040 d4180040 12c1e0d9  ...@ ..@...@....
 40207fc0 31f95139 01496109 11e941c9 21ed02cd  1.Q9.Ia...A.!...
 40207fd0 052d0501 37f0c000 00f801dd 02f0fe82  .-..7...........
 40207fe0 86020021 f2ff3d0e 017ef9c0 00002d0e  ...!..=..~....-.
 40207ff0 01f0ffc0 00002d0f 38614d0c 01eeffc0  ......-.8aM.....
 40208000 00002d0f 3d0d4d0c 0186eec0 00002d0d  ..-.=.M.......-.
 40208010 38614d0c 01e9ffc0 00005652 fc2d0d01  8aM.......VR.-..
 40208020 62f0c000 00c821d8 31e841f8 51081112  b.....!.1.A.Q...
 40208030 c1200df0 aa55aa55 12c1d0d9 b1c9a109  . ...U.U........
 40208040 91cd0216 e20721b2 fa2802d8 3228123d  ......!..(..2(.=
 40208050 0d0178e4 c000001c c432c2fc 39710b22  ..x......2..9q."
 40208060 29813d01 d0228201 6eeec000 00520100  ).=.."..n....R..
 40208070 0c140c03 28715034 834d0c52 a3703241  ....(qP4.M.R.p2A
 40208080 003a221b 223d0d45 f3ff1cc4 0c167821  .:"."=.E......x!
 40208090 52010081 e8ff8911 1055a01b 77706793  R........U..wpg.
 402080a0 69214935 3201002d 0c1033a0 321306c5  i!I52..-..3.2...
 402080b0 ecff3d0d 4d019201 001cc510 99a02959  ..=.M.........)Y
 402080c0 288185ef ffc8a1d8 b1089112 c1300df0  (............0..
 402080d0 2190fa12 c1d0c981 d991e9a1 28020971  !...........(..q
 402080e0 e8322812 3d0e0153 e4c00000 d2c2fc22  .2(.=..S......."
 402080f0 a37001ef efc00000 3d01cd02 1cc43b2d  .p......=.....;-
 40208100 202e8201 47eec000 0042a370 2201000c   ...G....B.p"...
 40208110 13202393 2241003d 0c2a2d1b 22202e82  . #."A.=.*-." ..
 40208120 0140eec0 00000871 d8912d0c e8a1c881  .@.....q..-.....
 40208130 12c1300d f0000000 12c1e0c9 11f94109  ..0...........A.
 40208140 01d921e9 31dd02ed 03cc320c 02461c00  ..!.1.....2..F..
 40208150 661305c1 84fc0601 0045f7ff cd02083c  f........E.....<
 40208160 f2cc3766 0013cb2c 2c4301e1 f9c00000  ..7f...,,C......
 40208170 2d0f4c03 01dff9c0 0000220c a90c03b6  -.L.......".....
 40208180 2202324c a92d0d32 cc102c04 01a9e9c0  ".2L.-.2..,.....
 40208190 00003d0f 22cd204c 0401a5e9 c0000022  ..=.". L......."
 402081a0 cd6132a0 aa420ca9 424d603a 3c0c6401  .a2..B..BM`:<.d.
 402081b0 a0e9c000 00261e07 2d0c01fb efc00000  .....&..-.......
 402081c0 0c12c811 d821e831 f8410801 12c1200d  .....!.1.A.... .
 402081d0 f0000000 0c1312c1 f00901c5 f5ff0801  ................
 402081e0 12c1100d f0000000 0c0312c1 f0090185  ................
 402081f0 f4ff0801 12c1100d f0000000 942eff3f  ...............?
 40208200 c02eff3f c430ff3f 81fdff12 c1e0d931  ...?.0.?.......1
 40208210 f951e941 c9218961 8208a409 1116a808  .Q.A.!.a........
 40208220 02a0ff0c 0c0c0e29 01586172 a06452c5  .......).Xar.dR.
 40208230 2c707cc1 5a979209 80071960 2c0432a3  ,p|.Z......`,.2.
 40208240 2cf17ff9 0801d2a0 67d0dec1 0addfaf7  ,.......g.......
 40208250 3a3f2d0d 0177e9c0 000022cd 204c0432  :?-..w....". L.2
 40208260 a34c3a3f 0173e9c0 000022cd 61c0fcf0  .L:?.s....".a...
 40208270 3174f942 a5314a33 3a3f0c64 016de9c0  1t.B.1J3:?.d.m..
 40208280 000002a0 ff51deff 88611bee 61deffe0  .....Q...a..a...
 40208290 e0746a2f 22028022 4d608208 a472a064  .tj/".."M`...r.d
 402082a0 1bccc0c0 74873c88 4600000c 0e0811c8  ....t.<.F.......
 402082b0 21d8312d 0ef851e8 4112c120 0df00000  !.1-..Q.A.. ....
 402082c0 b82eff3f 12c1f0c9 110901cd 0285acff  ...?............
 402082d0 f66c23ac 0c26221e 9cb201f9 ff220080  .l#..&"......"..
 402082e0 c7120821 20fcc240 80c5d4ff 0c12c811  ...! ..@........
 402082f0 080112c1 100df00c 0246fcff b92eff3f  .........F.....?
 40208300 d42cff3f 0c2eff3f a62eff3f 12c1e0d9  .,.?...?...?....
 40208310 41490109 21e951c9 31f961cd 02f1f7ff  AI..!.Q.1.a.....
 40208320 ed03324f 800151e8 c000002c 003144f9  ..2O..Q....,.1D.
 40208330 d2a064e0 ddd1dad3 2730010d 023d0c2c  ..d.....'0...=.,
 40208340 04026dca 22a32c2a 2d0139e9 c000004c  ..m.".,*-.9....L
 40208350 0432cc20 22a34c2a 2d391101 35e9c000  .2. ".L*-9..5...
 40208360 0021e8ff 322dca41 e6ff4971 32644d3d  .!..2-.A..Iq2dM=
 40208370 0c2c0401 2fe9c000 00381121 5cf94c04  .,../....8.!\.L.
 40208380 d871012b e9c00000 62dfff0c 0372dd01  .q.+....b....r..
 40208390 0c122247 5e3246ba 41ceed51 def9c020  .."G^2F.A..Q... 
 402083a0 000198ff e0def042 65fd520c 600a0d66  .......Be.R.`..f
 402083b0 152f0c64 c2cc6182 dfff2248 ec3d0c22  ./.d..a..."H.=."
 402083c0 408021d1 ff011ae9 c0000032 a531211c  @.!........2.1!.
 402083d0 f90c643a 223d0c2a 2d0115e9 c0000006  ..d:"=.*-.......
 402083e0 020042df ff3244ec 32408058 01661505  ..B..2D.2@.X.f..
 402083f0 21ddfb45 c4ffc831 d841e851 f8610821  !..E...1.A.Q.a.!
 40208400 12c1200d f0000000 4099fe3f 12c1d0d9  .. .....@..?....
 40208410 51f97109 31c941e9 61cd03ed 028597ff  Q.q.1.A.a.......
 40208420 166e1002 c2fe1600 1016d20f 0c3205ce  .n...........2..
 40208430 fe660216 3d0e2164 fb42a067 01fde8c0  .f..=.!d.B.g....
 40208440 0000218f fcc24282 46330001 9dffd200  ..!...B.F3......
 40208450 80c92116 5d0a0c0c 090172ce 6182ce20  ..!.].....r.a.. 
 40208460 89817911 3d0e2c04 22a32cf1 f5f802a0  ..y.=.,.".,.....
 40208470 64000cc1 0aff2a2f 01d0fec0 00005662  d.....*/......Vb
 40208480 0438814c 0422a34c 2a2f01cb fec00000  .8.L.".L*/......
 40208490 fc42320e 600c1066 1320c03c f021e8f8  .B2.`..f. .<.!..
 402084a0 0c643a22 32a5313a 22381101 c3fec000  .d:"2.1:"8......
 402084b0 000c140c 00200483 c6ffff8c 90580152  ..... .......X.R
 402084c0 0581c060 74671550 1bccc0c0 74c79d93  ...`tg.P....t...
 402084d0 ac8d02a0 ff214aff 0c0cf2a0 64f0fcc1  .....!J.....d...
 402084e0 faf2f20f 80079f0b 3d0c2d0e 4821c5e1  ........=.-.H!..
 402084f0 ff060900 1bccc0c0 74c79ddd c1c3ff32  ........t......2
 40208500 0c00379d 040c0332 4c002d0e 4821c5df  ..7....2L.-.H!..
 40208510 ffd20c00 1bddd24c 000c12c8 41d851e8  .......L....A.Q.
 40208520 61f87108 3112c130 0df00c02 c6faff00  a.q.1..0........
 40208530 0c1312c1 f0090145 edff0801 12c1100d  .......E........
 40208540 f0000000 0c0312c1 f0090105 ecff0801  ................
 40208550 12c1100d f0000000 2169ff22 028032a0  ........!i."..2.
 40208560 ff371201 0df00c02 0df00000 a6122282  .7............".
 40208570 a0ff92a0 c80c0651 22ff72a0 642077d1  .......Q".r.d w.
 40208580 5a77a205 802b6687 9a109a55 7735f246  Zw...+f....Uw5.F
 40208590 00000c06 2796010c 020df00c 120df000  ....'...........
 402085a0 d0322340 12c1e009 21d941e9 51c931e1  .2#@....!.A.Q.1.
 402085b0 44ffcd02 d20e8005 7eff2622 0d8ca2d7  D.......~.&"....
 402085c0 bc08015d f9020064 66100e0c 02c831d8  ...]...df.....1.
 402085d0 41e85108 2112c120 0df0d02d 20c5f8ff  A.Q.!.. ...- ...
 402085e0 1672fe01 07ffd2a0 64c0ddd1 d261010a  .r......d....a..
 402085f0 dd220d80 32a0ff37 12d021e9 ff3d0c01  ."..2..7..!..=..
 40208600 f8f7c000 00020e81 c7900286 1f002c04  ..............,.
 40208610 018cf8c2 4e81313a ff390122 2d1f2263  ....N.1:.9."-."c
 40208620 4dd81121 38ff32a3 2c0add3a 3d0180e8  M..!8.2.,..:=...
 40208630 c0000021 aef84c04 32a34c3a 3d017ce8  ...!..L.2.L:=.|.
 40208640 c000000c 1ba2deff d8010c09 d2dd0192  ................
 40208650 4abbb24d 5e711eed 812ff9c0 2000212a  J..M^q.../.. .!*
 40208660 ff61e8fe c03cf052 a5317268 fd4174f8  .a...<.R.1rh.At.
 40208670 72deff5a 446a6362 06804a33 6247ed0c  r..ZDjcb..J3bG..
 40208680 64016be8 c00000c5 1300450a 000c1286  d.k.......E.....
 40208690 ceff0000 4232ff3f 12c1f002 61032261  ....B2.?....a."a
 402086a0 000167f8 32610108 400921c5 6eff2622  ..g.2a..@.!.n.&"
 402086b0 26ac3228 214120f9 9cc23204 64261317  &.2(!A ...2.d&..
 402086c0 28013811 61f4ff0c 05525600 459f150c  (.8.a....RV.E...
 402086d0 12083112 c1100df0 0c02c6fc ff000000  ..1.............
 402086e0 bc30ff3f 31ffff32 03800c14 f623014d  .0.?1..2.....#.M
 402086f0 03402074 0df00000 12c1f0c9 110901cd  .@ t............
 40208700 024569ff f62c2126 221e9cb2 01f5ff22  .Ei..,!&"......"
 40208710 0080c712 082113fb c24080c5 91ff0c12  .....!...@......
 40208720 c8110801 12c1100d f00c0246 fcff0000  ...........F....
 40208730 12c1f002 61010142 f8022004 02610085  ....a..B.. ..a..
 40208740 65ff2622 5d16a205 280131fb f8162205  e.&"]...(.1...".
 40208750 32036426 134c0c22 459bfe26 024f0138  2.d&.L."E..&.O.8
 40208760 f848400c 022244b8 38402243 b902207d  .H@.."D.8@"C.. }
 40208770 26003abc 7061a0ee 31e7f8c0 20005223  &.:.pa..1... .R#
 40208780 fd605510 5050f5c0 20003223 fd21f5fa  .`U.PP.. .2#.!..
 40208790 30307466 15110cd7 37b71d0c 03858615  00tf....7.......
 402087a0 8602000c 02060200 32a000c5 851522a0  ........2.....".
 402087b0 01022101 12c1100d f0c58415 86fbff00  ..!.............
 402087c0 00000000 12c1f0d2 6102c261 01d11cf8  ........a..a....
 402087d0 0901c84d 055cff02 c2fe1610 0816e207  ...M.\..........
 402087e0 16bc0721 d5f82202 64261272 0c120592  ...!..".d&.r....
 402087f0 fe26025d 784d0c04 4247b868 4d4246ba  .&.]xM..BG.hMBF.
 40208800 584d319f fb4245b9 3203f7cc a381b0ec  XM1..BE.2.......
 40208810 91c1f8c0 20008269 fd05f213 084da8b0  .... ..i.....M..
 40208820 8caa2d0d 0c030c04 85981406 020022c0  ..-...........".
 40208830 04016be2 c00000b2 2d04b20b bb17eb11  ..k.....-.......
 40208840 2d0c055f 010c020c 030c040c 050c0685  -.._............
 40208850 d90b0c12 c811d821 080112c1 100df00c  .......!........
 40208860 02c6fbff 12c1f009 1101f5f7 08400901  .............@..
 40208870 4552ff08 11262212 8cf22801 8cb221f0  ER...&"...(...!.
 40208880 f7284222 02ba12c1 100df022 a0ff06fd  .(B"......."....
 40208890 ff000000 8c722612 050c042d 040df031  .....r&....-...1
 402088a0 11fa0c14 22430406 fcff0000 210efa22  ...."C......!.."
 402088b0 02040df0 12c1f009 01c54dff 26120b26  ..........M.&..&
 402088c0 32081cf2 080112c1 100df001 ddf70220  2.............. 
 402088d0 04168001 32201e22 a01f8cc3 0c02c5ee  ....2 ."........
 402088e0 0b802201 20283146 f6ff86f5 ff1cf246  ..". (1F.......F
 402088f0 f4ff0000 12c1e0c9 11f94109 01d921e9  ..........A...!.
 40208900 31dd02ed 03164204 1613040c 6401c8e7  1.....B.....d...
 40208910 c000000c 0c0c2f2d 0d3d0e0c 64020e00  ....../-.=..d...
 40208920 e05c11f0 00205000 30024d00 01d1e6c0  .\... P.0.M.....
 40208930 0000cc62 1bccc0c0 7466dcda 0c12c811  ...b....tf......
 40208940 d821e831 f8410801 12c1200d f00c02c6  .!.1.A.... .....
 40208950 faff0000 ac2eff3f b02eff3f f88bfe3f  .......?...?...?
 40208960 142dff3f 0c1212c1 f03d0109 2185a600  .-.?.....=..!...
 40208970 01b4f721 22fe0220 a622021c 26000532  ...!".. ."..&..2
 40208980 a0ff3792 2421f3ff 2c4301d9 f7c00000  ..7.$!..,C......
 40208990 21f2ff31 f2ff4201 03520104 62010585  !..1..B..R..b...
 402089a0 210141ef ff0ca332 64660c12 082112c1  !.A....2df...!..
 402089b0 100df000 00000000 12c1d0d9 51e961f9  ............Q.a.
 402089c0 71c94109 31cd02cc 320c0286 2f003921  q.A.1...2.../.9!
 402089d0 661305d1 64fa0601 00456fff dd020c0f  f...d....Eo.....
 402089e0 e2cd7402 0ec222a0 d4b65002 062b000b  ..t..."...P..+..
 402089f0 3016730a 026c192a 4d498168 fe52a0b4  0.s..l.*MI.h.R..
 40208a00 1b661686 0a720e40 82a0ff80 77c016c7  .f...r.@....w...
 40208a10 095a0d2d 0c2c043d 000185e7 c0000038  .Z.-.,.=.......8
 40208a20 8122cc20 4c040182 e7c00000 08fe2c09  .". L.........,.
 40208a30 072902e6 1005f24c 60860000 024c6002  .).....L`....L`.
 40208a40 0ec10cea 073a01cc 000c1002 4c61020e  .....:......La..
 40208a50 c3f62001 fd00b114 e2f24c68 220ec40c  .. .......Lh"...
 40208a60 80273001 0d02024c 6902dd03 02103638  .'0....Li.....68
 40208a70 21073b05 22a06307 320202a0 64025c35  !.;.".c.2...d.\5
 40208a80 2613072d 0d01c8ed c000000c 12c841d8  &..-..........A.
 40208a90 51e861f8 71083112 c1300df0 f26c194c  Q.a.q.1..0...l.L
 40208aa0 032a2d29 810192f7 c0000006 d3ff22a0  .*-)..........".
 40208ab0 01103120 0592002c 4322a0b0 2a2d018c  ..1 ...,C"..*-..
 40208ac0 f7c00000 31a6ff42 01035201 04620105  ....1..B..R..b..
 40208ad0 22a0b42a 2d299105 0e010891 0ca339fe  "..*-)........9.
 40208ae0 c6cbff00 0c1312c1 f00901c5 ecff0801  ................
 40208af0 12c1100d f0000000 0c0312c1 f0090185  ................
 40208b00 ebff0801 12c1100d f0000000 7e98fe3f  ............~..?
 40208b10 112fff3f 40b80040 12c1e0e9 51f96109  ./.?@..@....Q.a.
 40208b20 21c931d9 41cd02dd 03c526ff 8ccc2612  !.1.A.....&...&.
 40208b30 0a8c7201 01f80200 64661004 0c020636  ..r.....df.....6
 40208b40 000c62d9 11855cfe 1b2256b2 0d3d0c21  ..b...\.."V..=.!
 40208b50 9df942a0 6c0136e7 c0000041 ecff3811  ..B.l.6....A..8.
 40208b60 32447646 2c00024d b0020c61 0ce50735  2DvF,..M...a...5
 40208b70 01cc000c 10024daf 020c68f6 20017d00  ......M...h. .}.
 40208b80 724db172 0c690c80 7730010d 0761c6e1  rM.r.i..w0...a..
 40208b90 024db222 1c352736 0872a063 27b70206  .M.".5'6.r.c'...
 40208ba0 500022a0 6402a064 814df732 a0640258  P.".d..d.M.2.d.X
 40208bb0 7f01a0e1 c0000031 4af72020 f4302282  .......1J.  .0".
 40208bc0 85ae0e42 2c19b624 34e02e20 0128e6c0  ...B,..$4.. .(..
 40208bd0 0000e6d2 28661f25 45d1fee0 2e203221  ....(f.%E.... 2!
 40208be0 0061cbff 2c07421d 16521d15 00441150  .a..,.B..R...D.P
 40208bf0 4420510e fa01c7ff c0000005 d2fe5811  D Q...........X.
 40208c00 66150521 d8f90543 ff610df7 62260516  f..!...C.a..b&..
 40208c10 56008580 10457110 0c12c831 d841e851  V....Eq....1.A.Q
 40208c20 f8610821 12c1200d f03d0cf1 4bff2c04  .a.!.. ..=..K.,.
 40208c30 2d0f01e1 fcc00000 e2cc2051 2af7f901  -......... Q*...
 40208c40 d2c5b216 120a022c 19f2a001 b62029e0  .......,..... ).
 40208c50 2e200106 e6c00000 e6820246 b7ffe02e  . .........F....
 40208c60 200102e6 c00000a6 d20e2d0e 31a9ff2c   .........-.1..,
 40208c70 04c5bc20 1b821628 ec920c00 02a0ff07  ... ...(........
 40208c80 990ba20c 01079a05 85cdff46 0b00020c  ...........F....
 40208c90 60cc902d 0c01f5e5 c0000020 00742c08  `..-....... .t,.
 40208ca0 2c1bb730 010d0828 013d0c02 5d152c04  ,..0...(.=..].,.
 40208cb0 0000f502 5d1601de e6c00000 3d0e4c04  ....].......=.L.
 40208cc0 2109f729 7101dae6 c000000c 07724d8e  !..)q........rM.
 40208cd0 022c19e8 71f65004 0b405684 e8724db0  .,..q.P..@V..rM.
 40208ce0 46a1ff0d 02c6afff 2d053d0e 4c0401b2  F.......-.=.L...
 40208cf0 fcc00000 022c1956 e2f4620d b067100f  .....,.V..b..g..
 40208d00 cc762620 39263036 2640330c 0fc6ceff  .v& 9&06&@3.....
 40208d10 620daf52 0c616795 20820db2 720c6987  b..R.ag. ...r.i.
 40208d20 9717a20d b1920c68 a7990ef1 ecf6b21c  .......h........
 40208d30 35f21f7f f0bbc016 dbed0c0f 06c3ff0c  5...............
 40208d40 1fc6c1ff 0c1312c1 f00901c5 dcff0801  ................
 40208d50 12c1100d f0000000 0c0312c1 f0090185  ................
 40208d60 dbff0801 12c1100d f0000000 12c1e0e9  ................
 40208d70 412961f9 51c921d9 31091101 20fdd1b0  A)a.Q.!.1... ...
 40208d80 f60200a0 d85d2b00 a620380c 1cfd0239  .....]+.. 8....9
 40208d90 01d0eca0 322e20ac 132d0f0c 640186fc  ....2. ..-..d...
 40208da0 c00000cc d2280132 2e202802 2263420c  .....(.2. (."cB.
 40208db0 12460400 0112fd02 00a02b00 1bccc0c0  .F........+.....
 40208dc0 74072ccc 0c02c821 d831e841 f8510811  t.,....!.1.A.Q..
 40208dd0 12c1200d f0000000 9c2dff3f 12c1e0d9  .. ......-.?....
 40208de0 21e931f9 41c911c1 96f60901 c85c85fa  !.1.A........\..
 40208df0 fe16dc07 26127a16 7207d1f7 ff0190f6  ....&.z.r.......
 40208e00 0c0251fe fc226062 7205a0d2 60632b67  ..Q.."`br...`c+g
 40208e10 a6264f0c 1dc0eda0 422e20bc 94f22442  .&O.....B. ...$B
 40208e20 bc2f1c02 010ce7c0 0000322e 20fd020c  ./........2. ...
 40208e30 644b2201 7fe6c000 0051f0fc 0c02422e  dK"......Q....B.
 40208e40 20017ff6 42244232 2063290f 493ff903   ...B$B2 c).I?..
 40208e50 7205a0f2 60632b67 1bddd0d0 74672db4  r...`c+g....tg-.
 40208e60 222062c8 11d821e8 31f84108 0112c120  " b...!.1.A.... 
 40208e70 0df00c02 c6faff00 12c1f009 01d921c9  ..............!.
 40208e80 11c16ff6 d1d5ff22 2c629c12 0802026c  ..o....",b.....l
 40208e90 62cc10d2 6c6301c4 ecc00000 c6f9ffc8  b...lc..........
 40208ea0 11d82108 0112c110 0df00000 12c1f0c9  ..!.............
 40208eb0 11c163f6 0901c85c c5edfebc 6c261234  ..c....\....l&.4
 40208ec0 bc1251ce fc0c1052 05a00c02 2b55a625  ..Q....R....+U.%
 40208ed0 181b32c0 40a04224 20303074 1b000000  ..2.@.B$ 00t....
 40208ee0 74402393 0795e946 00000c02 c8110801  t@#....F........
 40208ef0 12c1100d f00c0246 fcff0000 0c8cfe3f  .......F.......?
 40208f00 12c1e0c9 11f94109 01d921e9 31d14cf6  ......A...!.1.L.
 40208f10 ed02d85d 05e8fe0b f2165f09 16220916  ...]......_.."..
 40208f20 fd080105 f7020064 0b001640 08c22d1e  .......d...@..-.
 40208f30 222d2022 6d1e22cd 30ccce31 f0ff0c64  "- "m.".0..1...d
 40208f40 013ce6c0 0000c602 00e03e20 42a00601  .<........> B...
 40208f50 38e6c000 00d02d20 32a0c00c 24855012  8.....- 2...$.P.
 40208f60 01a7fcc2 6d1e0200 a00c1c2b 00a62030  ....m......+.. 0
 40208f70 d0fca032 2f209cf3 8cde2d0e 0c64010e  ...2/ ....-..d..
 40208f80 fcc00000 cc92322f 202d0d10 1120c520  ......2/ -... . 
 40208f90 16019afc 0200a02b 001bccc0 c074072c  .......+.....t.,
 40208fa0 ce0c12c8 11d821e8 31f84108 0112c120  ......!.1.A.... 
 40208fb0 0df00c02 c6faff00 502eff3f 21ffff22  ........P..?!.."
 40208fc0 22bc0df0 12c1f0c2 61020261 01cd0216  ".......a..a....
 40208fd0 1209b642 02c62200 01d8f631 18f60200  ...B.."....1....
 40208fe0 643223cb 66100246 1e002713 6b85dafe  d2#.f..F..'.k...
 40208ff0 4113f629 01c264cb 22c4e8c5 03ff51ba  A..)..d.".....Q.
 40209000 fb520500 66150585 d3140541 10c02c20  .R..f......A.., 
 40209010 85fd1281 0af60c07 7268c762 d8fe663c  ........rh.b..f<
 40209020 042d0605 511091b0 fba80192 0900cd0a  .-..Q...........
 40209030 66192526 1a02663a 0505c914 056fff26  f.%&..f:.....o.&
 40209040 2c02663c 02452e10 661c0d01 fdf50220  ,.f<.E..f...... 
 40209050 04164000 2800857d 1c0c12c8 21081112  ..@.(..}....!...
 40209060 c1100df0 0c0246fc ff000000 12c1f009  ......F.........
 40209070 01b63204 0c020602 00202074 85bc0b22  ..2......  t..."
 40209080 a0010221 0012c110 80000000 12c1f002  ...!............
 40209090 610045ca 0b022100 12c11080 00000000  a.E...!.........
 402090a0 a8601040 12c1f009 0101fdff c0000022  .`.@..........."
 402090b0 02060801 12c1100d f0000000 12c1f009  ................
 402090c0 010ce027 b0040c02 46040031 ddf52022  ...'....F..1.. "
 402090d0 903022a0 22c27885 e01422a0 01022100  .0".".x..."...!.
 402090e0 12c11080 00000000 00fef13f 12c1f009  ...........?....
 402090f0 010191f6 3d020200 640c02cc 10c60f00  ....=...d.......
 40209100 92a00141 f9ffc020 0082249b 908820c0  ...A... ..$... .
 40209110 20008264 9b72a002 c0200062 249b7066   ..d.r... .b$.pf
 40209120 20c02000 62649b52 a004c020 0022249b   . .bd.R... ."$.
 40209130 502220c0 20002264 9b0c0245 8c0e0c12  P" . ."d...E....
 40209140 080112c1 100df000 9c581040 12c1f022  .........X.@..."
 40209150 61000261 0105c4fe 0164fb02 00001640  a..a.....d.....@
 40209160 06661261 0c145174 f6280162 05641652  .f.a..Qt.(.b.d.R
 40209170 0b0b3616 330bc564 ff01f3ff c000007c  ..6.3..d.......|
 40209180 e0c02000 71d9ffb2 279b00bb 10c02000  .. .q...'..... .
 40209190 b2679b7c dac02000 92279ba0 9910c020  .g.|.. ..'..... 
 402091a0 0092679b 7cb8c020 0062279b 806610c0  ..g.|.. .b'..f..
 402091b0 20006267 9b5160f6 0c144245 6405c50e   .bg.Q`...BEd...
 402091c0 85c20ec6 15000c02 06150001 dfffc000  ................
 402091d0 0005d70e c0200031 c4ff7223 9b82a001  ..... .1..r#....
 402091e0 807720c0 20007263 9b0c26c0 20005223  .w . .rc..&. .R#
 402091f0 9b605520 c0200052 639b0c44 c0200022  .`U . .Rc..D. ."
 40209200 239b4022 20c02000 22639b0c 023139f6  #.@" . ."c...19.
 40209210 c57e0ea1 49f60c09 924a6405 bd0e0c12  .~..I....Jd.....
 40209220 081112c1 100df056 06fa2d04 06fcff00  .......V..-.....
 40209230 3114f922 634a0df0 a497fe3f a897fe3f  1.."cJ.....?...?
 40209240 ac97fe3f b097fe3f b497fe3f b897fe3f  ...?...?...?...?
 40209250 12c1f002 6100d261 02c26101 dd02cd03  ....a..a..a.....
 40209260 f62238bc 5385c200 16e20429 31220231  ."8.S......)1".1
 40209270 0762462d 0cd8310c 444b3d01 39e7c000  .bF-..1.DK=.9...
 40209280 004b2c8b 3d0c4401 36e7c000 008b2ccb  .K,.=.D.6.....,.
 40209290 3d0c4401 33e7c000 00060400 0c024603  =.D.3.........F.
 402092a0 00320002 66132929 0c291c29 2c0c12c8  .2..f.)).).),...
 402092b0 11d82108 0112c110 0df00c02 018af756  ..!............V
 402092c0 edfd4200 03661432 290c291c 292cc6f6  ..B..f.2).).),..
 402092d0 ff2d0c31 d9ff0c44 0122e7c0 00004b2c  .-.1...D."....K,
 402092e0 31d7ff0c 44011ee7 c000008b 2c31d4ff  1...D.......,1..
 402092f0 0c44011b e7c00000 46ecff2d 0c31d1ff  .D......F..-.1..
 40209300 0c440117 e7c00000 4b2c31cf ff0c4401  .D......K,1...D.
 40209310 14e7c000 008b2c31 cdff0c44 0111e7c0  ......,1...D....
 40209320 0000c6e1 ff000000 12c1f002 6100d261  ............a..a
 40209330 02c26101 dd02cd03 9ca3f622 1805b500  ..a........"....
 40209340 0d022168 f7cc4d32 02032613 08661d56  ..!h..M2..&..f.V
 40209350 42020266 14500c02 061000d2 210321b6  B..f.P......!.!.
 40209360 ffc03c20 42a00401 fee6c000 0021b3ff  ..< B........!..
 40209370 4b3c0c44 01fbe6c0 000021b1 ff8b3c0c  K<.D......!...<.
 40209380 4401f7e6 c000008c fd520d31 07650a2d  D........R.1.e.-
 40209390 0d3d0c4b 4c8b5c05 351c0c12 c811d821  .=.KL.\.5......!
 402093a0 080112c1 100df009 3156edfa 21a6ff3d  ........1V..!..=
 402093b0 0c0c44dd 0001eae6 c0000021 a3ff4b3c  ..D........!..K<
 402093c0 0c4401e7 e6c00000 21a1ff8b 3c0c4401  .D......!...<.D.
 402093d0 e4e6c000 0086ebff 12c1f002 6100c261  ............a..a
 402093e0 01d26102 cd02dd03 f622189c 5305aa00  ..a......"..S...
 402093f0 0d02acd2 2d0d0c64 32c02b01 0de5c000  ....-..d2.+.....
 40209400 00460400 0c028603 002d0d31 bbf50c64  .F.......-.1...d
 40209410 0108e5c0 00000c12 c811d821 080112c1  ...........!....
 40209420 100df056 2cfe2d0d 31b3f50c 640100e5  ...V,.-.1...d...
 40209430 c00000c6 f7ff0000 12c1e0e2 61030901  ............a...
 40209440 c911d921 cd03dd02 c594fe3d 02166c05  ...!.......=..l.
 40209450 f62d532d 0d394185 a300ed02 084156fd  .-S-.9A......AV.
 40209460 03262042 16f0033d 0cd1a2f5 0c642d0d  .& B...=.....d-.
 40209470 01d2fac0 00001602 072d0d3d 0c0c6401  .........-.=..d.
 40209480 ece4c000 00161e06 3d0c22ce 2b0c6401  ........=.".+.d.
 40209490 e8e4c000 00858a14 05831445 29ff0612  ...........E)...
 402094a0 00458ffe 66120e0c 02c811d8 21e83108  .E..f.......!.1.
 402094b0 0112c120 0df0c03c 20d18ff5 42a0062d  ... ...< ...B..-
 402094c0 0d01bdfa c000009c f22d0d3d 0c0c6401  .........-.=..d.
 402094d0 d8e4c000 009c1e3d 0c22ce2b 0c6401d4  .......=.".+.d..
 402094e0 e4c00000 45f30f45 e40f0c12 46eeff00  ....E..E....F...
 402094f0 852dff3f b1ffff0c 1a224b81 a24b82a2  .-.?....."K..K..
 40209500 4b8092ae cfc02000 88039088 10c02000  K..... ....... .
 40209510 89030c47 70741040 6014e077 11706620  ...Gpt.@`..w.pf 
 40209520 c06611c0 20005803 605520c0 20005903  .f.. .X.`U . .Y.
 40209530 0df00000 12c1f009 0101edff 22008066  ............"..f
 40209540 120d2171 f70c0332 40800125 dfc00000  ..!q...2@..%....
 40209550 080112c1 100df000 4108f90b 620c150c  ........A...b...
 40209560 03603583 3244800d f0000000 3145f822  .`5.2D......1E."
 40209570 633f0df0 f0322340 10332340 d00d0040  c?...2#@.3#@...@
 40209580 12c1f009 01b6330f 21fbff0c 330114f4  ......3.!...3...
 40209590 c000000c 02460400 9c549c35 32c31630  .....F...T.52..0
 402095a0 307401f6 ffc00000 0c120801 12c1100d  0t..............
 402095b0 f021f1ff 010bf4c0 000046f5 ff000000  .!........F.....
 402095c0 20a10700 22a00031 feff12c1 f0026100   ..."..1......a.
 402095d0 854cfd0c 1231faff 054cfd21 0cf582ae  .L...1...L.!....
 402095e0 cf62a100 51cfe0c0 2000a225 8280aa10  .b..Q... ..%....
 402095f0 c02000a2 6582c020 00922582 609920c0  . ..e.. ..%.`. .
 40209600 20009265 82c02000 72258480 7710c020   ..e.. .r%..w.. 
 40209610 00726584 c0200042 25846044 20c02000  .re.. .B%.`D . .
 40209620 4265840c 43c02000 02228a30 0020c020  Be..C. ..".0. . 
 40209630 0002628a 080112c1 100df000 22a00031  ..b........."..1
 40209640 e0ff12c1 f0026100 0545fd0c 1231dcff  ......a..E...1..
 40209650 8544fd0c 4021edf4 c0200002 628a0801  .D..@!... ..b...
 40209660 12c1100d f0000000 c88bfe3f 21ffff0d  ...........?!...
 40209670 f0000000 48731040 5d0212c1 f0293109  ....Hs.@]....)1.
 40209680 11280229 01669322 0ca301fa ffc00000  .(.).f."........
 40209690 29210ca3 280101e7 dec00000 58310821  )!..(.......X1.!
 402096a0 29052d00 081112c1 100df020 00342024  ).-........ .4 $
 402096b0 41c6faff 0c052cf8 68023c99 72060077  A.....,.h.<.r..w
 402096c0 b8127739 0f5055a0 1b666902 70559052  ..w9.PU..fi.pU.R
 402096d0 c5d086f9 ff2d050d f0000000 3486fe3f  .....-......4..?
 402096e0 12c1b0e9 b1f9c109 81d9a169 71c99170  ...........iq..p
 402096f0 6604cd02 dd032d04 3d0741f8 ff1c0708  f.....-.=.A.....
 40209700 14480470 93106040 932c0047 63077ce6  .H.p..`@.,.Gc.|.
 40209710 60331070 93103961 3c0a1763 0e9951d6  `3.p..9a<..c..Q.
 40209720 120f2020 602cd779 d1460100 99510c08  ..  `,.y.F...Q..
 40209730 89d1cc62 0c1fa241 00061100 0c0fed01  ...b...A........
 40209740 59e149f1 29416695 220ca301 caffc000  Y.I.)Af.".......
 40209750 00226110 0ca32841 01b7dec0 00002c00  ."a...(A......,.
 40209760 32211048 f158e13c 0a460100 20303420  2!.H.X.<.F.. 04 
 40209770 24414a93 1bff9209 00924e00 1bee56e2  $AJ.......N...V.
 40209780 fb58d11c 1e2871b8 61f022c0 e78b1a38  .X...(q.a."....8
 40209790 d18c33a6 12010b22 4d020b22 a6140ac7  ..3...."M.."....
 402097a0 3d02024c 001bcc46 fbff7851 8ca5c73d  =..L...F..xQ...=
 402097b0 060b226d 05624c00 1bccdca7 88613d00  .."m.bL......a=.
 402097c0 80800480 3a939d02 0b22a619 0ac73d02  ....:...."....=.
 402097d0 324c001b cc46fbff 1aef0bee ad0f0bff  2L...F..........
 402097e0 a61a0dc7 3d05b20e 00b24c00 1bcc06fa  ....=.....L.....
 402097f0 ffed020b 22a61e0a c73d0202 4c001bcc  ...."....=..L...
 40209800 46fbff08 81d8a1e8 b12d0cf8 c1c89112  F........-......
 40209810 c1500df0 f8612cb3 276f0439 d146c4ff  .P...a,.'o.9.F..
 40209820 0c060c88 807f1070 609369d1 86c0ff00  .......p`.i.....
 40209830 70d8ff3f ad0712c1 d0f99109 51e981c9  p..?........Q...
 40209840 61d971cd 02dd043a e24d060b ee27be01  a.q....:.M...'..
 40209850 7cfe620d 0029a19c d62c532c b72cdb29  |.b..)...,S,.,.)
 40209860 a1594149 3137161f c73e0262 4c001bcc  .YAI17...>.bL...
 40209870 620d011b dd56c6fe 28a10c00 c7be02c6  b....V..(.......
 40209880 3a00024c 00063a00 0c00620d 011bddb7  :..L..:...b.....
 40209890 960a1c09 90002000 007406fb ff779607  ...... ..t...w..
 402098a0 0c4ff000 2086fbff 66c6070c 82200020  .O.. ...f.... . 
 402098b0 c6f8ff2c 34479607 2c055000 2086f5ff  ...,4G..,.P. ...
 402098c0 3c088796 070c1990 002046f2 ff2cf267  <........ F..,.g
 402098d0 b21d3c95 6735180c 0f67b22d 67352a1b  ..<.g5...g.-g5*.
 402098e0 ddf0ffa0 60ff90f2 cfd0620d 0006faff  ....`.....b.....
 402098f0 2ca22796 121bdd1c 854d0a4b aaa7a502  ,.'......M.K....
 40209900 865b0048 31865c00 7cff42a0 68471672  .[.H1.\.|.B.hG.r
 40209910 82a06c87 166c0c04 3096c016 890f5c82  ..l..l..0.....\.
 40209920 27167652 c69d1695 0f82a064 87165d92  '.vR.......d..].
 40209930 a0699716 5722c691 16b21552 c6901695  .i..W".....R....
 40209940 1782c68d 16f81b92 a0759716 4722a078  .........u..G".x
 40209950 27164e1b 0cc73e05 324c0062 0d00cd00  '.N...>.2L.b....
 40209960 16b6221b c0073e02 62400046 c0ff024e  .."...>.b@.F...N
 40209970 000851d8 71e88120 2cc0f891 c86112c1  ..Q.q.. ,....a..
 40209980 300df04d 061bdd62 0d0086e2 ff0c2220  0..M...b......" 
 40209990 00200000 740ca546 02004c02 20002000  . ..t..F..L. . .
 402099a0 00741c05 62a06c67 940d1c88 4d0a4baa  .t..b.lg....M.K.
 402099b0 a7283848 31060f00 92a06897 94130091  .(8H1.....h.....
 402099c0 041c824d 0a4baaa7 a2028633 00483186  ...M.K.....3.H1.
 402099d0 34001c86 4d0a4baa a7260448 31060500  4...M.K..&.H1...
 402099e0 1c884728 012c4a48 41060200 1c894729  ..G(.,JHA.....G)
 402099f0 012c4a48 41a9014a 4a42d4ff 42243f6d  .,JHA..JJB..B$?m
 40209a00 0f2d0c3d 0e7d0085 cdffcd02 a8012c53  .-.=.}........,S
 40209a10 2cdb2cb7 0696ffc7 be020694 ff324c00  ,.,..........2L.
 40209a20 8692ff47 e0110bff a61f0cc7 3e042c05  ...G........>.,.
 40209a30 524c001b cc46fbff 1c864d0a 4baaa726  RL...F....M.K..&
 40209a40 04083106 02001c88 4728012c 4a0841c7  ..1.....G(.,J.A.
 40209a50 3e0a0a9a 92d9ff92 293f924c 001bcc0b  >.......)?.L....
 40209a60 ffe61f02 0682ffc7 3ef22c00 024c0086  ........>.,..L..
 40209a70 faff1c82 4722012c 4a48414a faf2dfff  ....G".,JHAJ....
 40209a80 f22f3f62 0d00d6af 00f0f060 1c022000  ./?b.......`.. .
 40209a90 20000074 869cff0c 85c6c1ff 1c864726   ..t..........G&
 40209aa0 012c4a48 414a4a42 d4ff4214 7ea90100  .,JHAJJB..B.~...
 40209ab0 84118080 31904893 c6d0ff4d 0a1c854b  ....1.H....M...K
 40209ac0 aa660f09 0c8f0c12 20002000 0074a725  .f...... . ..t.%
 40209ad0 064831a9 01860200 1c864726 012c4a48  .H1.......G&.,JH
 40209ae0 41a9016d 0f2d0c3d 0e58017d 004a451c  A..m.-.=.X.}.JE.
 40209af0 0542d4ff 42243f85 beffcd02 a8012c53  .B..B$?.......,S
 40209b00 2cdb2cb7 065aff1c 864d0a4b aaa72608  ,.,..Z...M.K..&.
 40209b10 4831a901 09210603 0009211c 88472801  H1...!....!..G(.
 40209b20 2c4a4841 a9012801 9142ff4a 2222d2ff  ,JHA..(..B.J""..
 40209b30 22223f20 29832911 014de2c0 0000a801  ""? ).)..M......
 40209b40 2c532cdb 48212cb7 47e4135d 0f0bff57  ,S,.H!,.G..]...W
 40209b50 a20cc73e 042c0662 4c001bcc c6faffa6  ...>.,.bL.......
 40209b60 12150c04 08111b44 c73e0582 0000824c  .......D.>.....L
 40209b70 001bcc1b 004792ed 9d0f0bff 97220246  .....G.......".F
 40209b80 3bffc73e 042c0002 4c001bcc 06faff0b  ;..>.,..L.......
 40209b90 ddc636ff 9d0412c1 d0090159 714d0369  ..6........YqM.i
 40209ba0 817cf399 616d0578 815d0985 c8ff0801  .|..am.x.]......
 40209bb0 12c1300d f0000000 12c1d079 91698159  ..0........y.i.Y
 40209bc0 71093149 610c8042 c1104901 5d044911  q.1Ia..B..I.].I.
 40209bd0 09216d00 c5fbff08 3112c130 0df00000  .!m.....1..0....
 40209be0 12c1f0c9 110901cd 020c0245 2a00080c  ...........E*...
 40209bf0 3d02dcb0 c81c8c82 08432d0c c0000086  =........C-.....
 40209c00 0300222c 0401aef5 c00000c0 2c20c5ee  ..",........, ..
 40209c10 1bc22101 080112c1 100df000 12c1f0c9  ..!.............
 40209c20 110901cd 020c1285 2600080c 3d02dcb0  ........&...=...
 40209c30 c81c8c82 08432d0c c0000086 0300222c  .....C-.......",
 40209c40 04019ff5 c00000c0 2c2005eb 1bc22101  ........, ....!.
 40209c50 080112c1 100df000 32a0b242 a5dc0c65  ........2..B...e
 40209c60 52422a42 52143242 310c020d f0000000  RB*BR.2B1.......
 40209c70 00382240 8ca82140 4499fe3f 1c9c2040  .8"@..!@D..?.. @
 40209c80 603b2240 589c2040 0a80fe3f 50332340  `;"@X. @...?P3#@
 40209c90 70332340 a0332340 e09b2040 12c1c0e9  p3#@.3#@.. @....
 40209ca0 f139b1d9 e1c9d109 c1cd0208 02dd04cc  .9..............
 40209cb0 a03cc201 ffe8c000 00ed0229 0cc26e07  .<.........)..n.
 40209cc0 32210b41 ebff21eb ff52a077 62a06562  2!.A..!..R.wb.eb
 40209cd0 4e32524e 33226e06 495e22ce 2b0c6401  N2RN3"n.I^".+.d.
 40209ce0 d4e2c000 00722c2c dc17c506 fe0bb256  .....r,,.......V
 40209cf0 eb0d0c0d d981d991 d9a1463f 0022c120  ..........F?.". 
 40209d00 d03d200c 440196e4 c0000022 c1244b3d  .= .D......".$K=
 40209d10 0c440193 e4c00000 22c1288b 3d0c4401  .D......".(.=.D.
 40209d20 90e4c000 002d0e32 c12042c1 2452c128  .....-.2. B.$R.(
 40209d30 459b1b5c 0201dee8 c000001c d30ca501  E..\............
 40209d40 ceff4d02 291021cd ff010cfe c000006d  ..M.).!........m
 40209d50 0c71ccff 32c12042 c12421c9 ff52c128  .q..2. B.$!..R.(
 40209d60 29012d0e 85911b31 c8ff3203 00161305  ).-....1..2.....
 40209d70 2d0dc51a 1721c5ff 011af2c0 000021c4  -....!........!.
 40209d80 ff720124 62012352 01224201 21320120  .r.$b.#R."B.!2. 
 40209d90 02012509 01d20126 d911c201 27c921b2  ..%....&....'.!.
 40209da0 0128b931 a20129a9 4192012a 99518201  .(.1..).A..*.Q..
 40209db0 2b896101 0bf2c000 0021b6ff 0109f2c0  +.a......!......
 40209dc0 000008c1 c8d12d0e d8e1e8f1 12c1400d  ......-.......@.
 40209dd0 f022c120 d03d2042 a0040161 e4c00000  .". .= B...a....
 40209de0 22c12432 cd040c44 015ee4c0 00008b3d  ".$2...D.^.....=
 40209df0 22c1280c 44015ae4 c000005c 0201ace8  ".(.D.Z....\....
 40209e00 c000004d 021cc321 9cff0ca5 490221a2  ...M...!....I.!.
 40209e10 ff01dafd c000006d 0c719aff 2d0e42c1  .......m.q..-.B.
 40209e20 243197ff 52c12839 0132c120 05851bc6  $1..R.(9.2. ....
 40209e30 e3ff0000 12c1f0c2 610120c2 2022222c  ........a. . "",
 40209e40 026100dc 12280c85 8c1b218b ff280201  .a...(....!..(..
 40209e50 d6e8c000 00c60700 318cff32 03008c43  ........1..2...C
 40209e60 101120c5 1317222c 00458a1b 2183ff22  .. ...",.E..!.."
 40209e70 220101cd e8c00000 222c008c 8201cae8  ".......",......
 40209e80 c000000c 03390cc8 11080112 c1100df0  .....9..........
 40209e90 416cf2cc 622844dc 320c020d f066120b  Al..b(D.2....f..
 40209ea0 28548c22 28020df0 0c020df0 0df02802  (T."(.........(.
 40209eb0 0df00000 ac134202 00ac041b 42303280  ......B.....B02.
 40209ec0 6d043794 042024c0 0df01b44 0b545205  m.7.. $....D.TR.
 40209ed0 0056b5fe 2026c00d f02d030d f02d040d  .V.. &...-...-..
 40209ee0 f0000000 4202009c 14303074 3794040d  ....B....00t7...
 40209ef0 f0371409 1b224202 005644ff 2d040df0  .7..."B..VD.-...
 40209f00 5202004d 020c0230 30742715 0e5053c0  R..M...00t'..PS.
 40209f10 50248342 c4015204 005605ff 0df00000  P$.B..R..V......
 40209f20 12c1f0e9 01ed04c9 21d91109 31cd0230  ........!...1..0
 40209f30 d320014e e1c00000 ac8e320d 002a6c32  . .N......2..*l2
 40209f40 4600220d 009cb21b 5dea4d06 04000000  F.".....].M.....
 40209f50 8205001b 66824600 7207001b 558c377d  ....f.F.r...U.7}
 40209f60 054795eb 08312d0c d811c821 e80112c1  .G...1-....!....
 40209f70 100df000 12c1e0c9 61cd022d 03097132  ........a..-..q2
 40209f80 6100013a e1c00000 38014d02 2d0c05f9  a..:....8.M.-...
 40209f90 ff0871c8 6112c120 0df00000 5099fe3f  ..q.a.. ....P..?
 40209fa0 982a0040 12c1d0e9 81f97109 b1c9a1d9  .*.@......q.....
 40209fb0 914901ed 02fd03cc 62168406 e804168e  .I......b.......
 40209fc0 0616bf06 dd0e0c0c 46030000 00620d00  ........F....b..
 40209fd0 22050040 c0f42716 0e2d0f01 24e1c000  "..@..'..-..$...
 40209fe0 00ca5f1b 4c273ce4 1bdd220d 005652fd  .._.L'<..."..VR.
 40209ff0 2801c1ea ffd90228 0c8c4201 6be8c000  (......(..B.k...
 4020a000 00e0ddc0 3b3d22af fc202310 0129e8c0  ....;=".. #..)..
 4020a010 00005d02 3d0e4d0d 590c01e1 ffc00000  ..].=.M.Y.......
 4020a020 280c0603 002801c6 01002d0e 86000000  (....(....-.....
 4020a030 2d0f08b1 c8a1d891 e881f871 12c1300d  -..........q..0.
 4020a040 f0000000 4c99fe3f 12c1f0c9 21c1fdff  ....L..?....!...
 4020a050 0931c04c 20c5f4ff 0831290c c82112c1  .1.L ....1)..!..
 4020a060 100df000 6d021c97 52060022 c5bf27b7  ....m...R.."..'.
 4020a070 16420300 22c4bf27 b7154025 c0dc521b  .B.."..'..@%..R.
 4020a080 661b3356 14fe0df0 52c52086 f8ff0000  f.3V....R. .....
 4020a090 42c420c6 f8ff0df0 12c1f009 31c921d9  B. .........1.!.
 4020a0a0 11e90120 d22001f1 e0c00000 4d024b32  ... . ......M.K2
 4020a0b0 7cc22023 10e2c401 01fee7c0 0000cd02  |. #............
 4020a0c0 8c823d0d 4d0e01da e1c00000 08312d0c  ..=.M........1-.
 4020a0d0 d811c821 e80112c1 100df000 1f008000  ...!............
 4020a0e0 188cfe3f 12c1e0c9 610971cd 02220200  ...?....a.q.."..
 4020a0f0 1c7752c2 f757b702 462a0061 f8ff5756  .wR..W..F*.a..WV
 4020a100 02c62900 46270057 d602c625 00c62600  ..).F'.W...%..&.
 4020a110 26240526 9413c61a 00420c00 16840742  &$.&.....B.....B
 4020a120 c4d00c02 b6244cc6 1b002cd4 4792061b  .....$L...,.G...
 4020a130 cc7cf746 03000c15 22c2d50c 04204583  .|.F....".... E.
 4020a140 7d054acc 420c0016 d40442c4 d00c960c  }.J.B.....B.....
 4020a150 0247b605 86100047 36101bcc 520c0020  .G.....G6...R.. 
 4020a160 22a04022 9042c5d0 56b5fe20 2782060a  ".@".B..V.. '...
 4020a170 00f62425 1bcc520c 00402290 42c5d056  ..$%..R..@".B..V
 4020a180 e5fe0605 0021d6ff 39010115 f1c00000  .....!..9.......
 4020a190 0c023801 86000000 2d04c903 0871c861  ..8.....-....q.a
 4020a1a0 12c1200d f05672f6 86fbff00 1bcc220c  .. ..Vr.......".
 4020a1b0 0052c2f7 5737ed06 d3ff0000 0000f0bf  .R..W7..........
 4020a1c0 0000f03f 9a999999 9999b93f 8c731040  ...?.......?.s.@
 4020a1d0 12c1c009 f1c9e1d9 d1e9c1f9 b1420200  .............B..
 4020a1e0 1c7672c4 f7392177 b6028638 0051bbff  .vr..9!w...8.Q..
 4020a1f0 775502c6 37008635 000037d5 02c63300  wU..7..5..7...3.
 4020a200 86340088 21317ede 2908217d dec63400  .4..!1~.).!}..4.
 4020a210 2cd33794 1a817ade 91e9ff1b 22890199  ,.7...z....."...
 4020a220 110c0e61 77de7176 defd0246 22000000  ...aw.qv...F"...
 4020a230 42c4d50c 030c1581 72de91e1 ff403583  B.......r....@5.
 4020a240 89019911 3a22c6f5 ff2ce997 18650c98  ....:"...,...e..
 4020a250 c7b81498 21480158 11f9092d 063d0701  ....!H.X...-.=..
 4020a260 7ddec000 00c61e00 017bdec0 00006d02  }........{....m.
 4020a270 2d0c6931 394101d5 ffc00000 68317841  -.i19A......h1xA
 4020a280 4d025d03 2d063d07 0175dec0 00006d02  M.].-.=..u....m.
 4020a290 7d0341cc ff51ccff 28013811 9c6e6931  }.A..Q..(.8..ni1
 4020a2a0 7941016c dec00000 29013911 68317841  yA.l....).9.h1xA
 4020a2b0 86000000 0c1e1bff 820f0041 51de515c  ...........AQ.Q\
 4020a2c0 de2d063d 07c2c8d0 56d8f706 e1ff0000  .-.=....V.......
 4020a2d0 56c4f306 cbff1b22 42020032 c4f73736  V......"B..2..76
 4020a2e0 ee46c5ff 08f1c8e1 d8d1e8c1 f8b112c1  .F..............
 4020a2f0 400df000 488cfe3f 5499fe3f 12c1f0c9  @...H..?T..?....
 4020a300 21c1fdff 21fcff38 0c093101 b5f0c000  !...!..8..1.....
 4020a310 0008312d 0cc82112 c1100df0 12c1f009  ..1-..!.........
 4020a320 31057efb 083112c1 100df000 12c1f009  1.~..1..........
 4020a330 31854bfb 083112c1 100df000 12c1f009  1.K..1..........
 4020a340 3105befb 083112c1 100df000 12c1f009  1....1..........
 4020a350 3185cafb 083112c1 100df000 12c1f009  1....1..........
 4020a360 31c567fb 083112c1 100df000 12c1f009  1.g..1..........
 4020a370 310533fb 083112c1 100df000 12c1f009  1.3..1..........
 4020a380 318524fb 083112c1 100df000 12c1f009  1.$..1..........
 4020a390 3145a4fb 083112c1 100df000 12c1f009  1E...1..........
 4020a3a0 3145d6fb 083112c1 100df000 12c1f009  1E...1..........
 4020a3b0 31051ffb 083112c1 100df000 12c1f009  1....1..........
 4020a3c0 31c5f4fb 083112c1 100df000 12c1f009  1....1..........
 4020a3d0 3185e4fb 083112c1 100df000 12c1f009  1....1..........
 4020a3e0 31854efb 083112c1 100df000 12c1f009  1.N..1..........
 4020a3f0 314581fb 083112c1 100df000 12c1f009  1E...1..........
 4020a400 310590fb 083112c1 100df000 12c1f009  1....1..........
 4020a410 31058dfb 083112c1 100df000 9c8cfe3f  1....1.........?
 4020a420 b88cfe3f 12c1f0c2 61020261 03cd0222  ...?....a..a..."
 4020a430 02066612 1231f9ff 21c7df45 30004538  ..f..1..!..E0.E8
 4020a440 fe8527fd 46020000 21c3df31 f5ff052f  ..'.F...!..1.../
 4020a450 00222c0b 0155e7c0 000022a0 00226c0b  .",..U....".."l.
 4020a460 2d0c0151 e7c00000 0831c821 12c1100d  -..Q.....1.!....
 4020a470 f0000000 3c86fe3f 24a42040 c0d40100  ....<..?$. @....
 4020a480 e48cfe3f fc8cfe3f 088dfe3f 208dfe3f  ...?...?...? ..?
 4020a490 2c8dfe3f 508efe3f 6c8efe3f 12c1d0d9  ,..?P..?l..?....
 4020a4a0 913c820c 0d09b1c9 a1e981d9 41d951d2  .<..........A.Q.
 4020a4b0 61060168 e1c00000 cd0221ee ff32c11c  a..h......!..2..
 4020a4c0 82020072 02016202 02520203 0c442d0c  ...r..b..R...D-.
 4020a4d0 d9dc8241 1c72411d 62411e52 411f01d4  ...A.rA.bA.RA...
 4020a4e0 e0c00000 5c03325c 0231e3ff 28bc39cc  ....\.2\.1..(.9.
 4020a4f0 31e3ff32 6c0ad792 0a22a400 0156e1c0  1..2l...."...V..
 4020a500 000029bc c513fd56 2202d192 df31dcff  ..)....V"....1..
 4020a510 d02d2045 30fae2c1 1031daff e02e2042  .- E0....1.... B
 4020a520 a00a01c3 e0c00000 46090000 004511fd  ........F....E..
 4020a530 e2c110d1 88df6612 1731d3ff d02d2085  ......f..1...- .
 4020a540 2dfa31d2 ffe02e20 42a00a01 b9e0c000  -.1.... B.......
 4020a550 00320c03 520c0032 61005c03 3911620c  .2..R..2a.\.9.b.
 4020a560 01720c02 28bc31ca ff4d0ec5 64ff2d0c  .r..(.1..M..d.-.
 4020a570 456f24cc a231c7ff 2d0d451c 00460200  Eo$..1..-.E..F..
 4020a580 0031c5ff d02d2085 1b000221 0bc2210a  .1...- ....!..!.
 4020a590 d891e881 12c1300d f0000000 12c1e0f9  ......0.........
 4020a5a0 310971c9 61d951e9 41fd029c d4dd03cd  1.q.a.Q.A.......
 4020a5b0 04e2a000 280f320d 0048022d 0fc00400  ....(.2..H.-....
 4020a5c0 0bcc2aee 1bdd56ac fe460000 ed040871  ..*...V..F.....q
 4020a5d0 2d0ec861 d851e841 f83112c1 200df000  -..a.Q.A.1.. ...
 4020a5e0 30501450 43c04804 d0551112 c1f00005  0P.PC.H..U......
 4020a5f0 40404091 c921d911 e9010931 40d074ed  @@@..!.....1@.t.
 4020a600 02c2c301 ac8dd2a0 00280e40 30744802  .........(.@0tH.
 4020a610 2d0ec004 00c03014 304cc048 04d03311  -.....0.0L.H..3.
 4020a620 00034040 40914030 742add1b cc5683fd  ..@@@.@0t*...V..
 4020a630 08312d0d c821d811 e80112c1 100df000  .1-..!..........
 4020a640 58024d03 12c1f058 15380348 240931c0  X.M....X.8.H$.1.
 4020a650 05000831 12c1100d f0000000 12c1e0c9  ...1............
 4020a660 610971cd 020c0227 13162d03 39010116  a.q....'..-.9...
 4020a670 e4c00000 580c3801 58154d02 2d0cc005  ....X.8.X.M.-...
 4020a680 000871c8 6112c120 0df00000 480212c1  ..q.a.. ....H...
 4020a690 f0480402 61033030 74c00400 083112c1  .H..a.00t....1..
 4020a6a0 100df000 f88cfe3f 12c1f009 31c921d9  .......?....1.!.
 4020a6b0 11cd02c5 f2ffdd02 280c31fa ff58120c  ........(.1..X..
 4020a6c0 242d0cc0 05000831 da22c821 d81112c1  $-.....1.".!....
 4020a6d0 100df000 480312c1 f05d0248 0409312d  ....H....].H..1-
 4020a6e0 033d05c0 04000831 12c1100d f0000000  .=.....1........
 4020a6f0 480212c1 f0581431 ebff0931 0c24c005  H....X.1...1.$..
 4020a700 00083112 c1100df0 12c1f058 02c921cd  ..1........X..!.
 4020a710 022d0348 22380358 150931d9 112d0cc0  .-.H"8.X..1..-..
 4020a720 0500dd02 280c31df ff58120c 242d0cc0  ....(.1..X..$-..
 4020a730 05000831 da22c821 d81112c1 100df000  ...1.".!........
 4020a740 12c1e0c9 61d95109 710c0dcd 02d71319  ....a.Q.q.......
 4020a750 2d033901 01dde3c0 0000580c 38015815  -.9.......X.8.X.
 4020a760 2042202d 0cc00500 dd02280c 31ceff58   B -......(.1..X
 4020a770 120c242d 0cc00500 0871da22 c861d851  ..$-.....q.".a.Q
 4020a780 12c1200d f0000000 12c1f0c9 21cd0228  .. .........!..(
 4020a790 02093148 02d91130 3074c02c 20c00400  ..1H...00t., ...
 4020a7a0 dd02280c 31c0ff58 120c242d 0cc00500  ..(.1..X..$-....
 4020a7b0 0831da22 c821d811 12c1100d f0000000  .1.".!..........
 4020a7c0 4d033803 12c1f058 030931c9 21d911cd  M.8....X..1.!...
 4020a7d0 023d022d 04c00500 dd02280c 31b2ff58  .=.-......(.1..X
 4020a7e0 120c242d 0cc00500 0831da22 c821d811  ..$-.....1.".!..
 4020a7f0 12c1100d f0000000 12c1a0c2 611640c0  ............a.@.
 4020a800 740c04d2 6115e261 14026117 f2611342  t...a..a..a..a.B
 4020a810 412029c1 ed03dd0c f62c040c add0cd20  A )......,..... 
 4020a820 f2c1203d 0d2d0e01 83dac000 00c032c1  .. =.-........2.
 4020a830 0c95304e c0404074 32c4370b ff62c430  ..0N.@@t2.7..b.0
 4020a840 30307447 35026030 74324f00 8c52ed02  00tG5.`0t2O..R..
 4020a850 c6f3ff00 002d0f01 9ce3c000 0058c14d  .....-.......X.M
 4020a860 0238052d 0568133d 0fc00600 022117c2  .8.-.h.=.....!..
 4020a870 2116d221 15e22114 f2211312 c1600df0  !..!..!..!...`..
 4020a880 12c1e0c9 61d95109 71e941cd 02dd03cc  ....a.Q.q.A.....
 4020a890 e4380242 2300d030 74c00400 860c0000  .8.B#..0t.......
 4020a8a0 00669427 d6d30128 022cd358 0249012d  .f.'...(.,.X.I.-
 4020a8b0 0cc00500 4801ed02 d030602d 0c85f3ff  ....H....0`-....
 4020a8c0 ea220603 0005f3ff 86010000 40407485  ."..........@@t.
 4020a8d0 f2ff0871 c861d851 e84112c1 200df000  ...q.a.Q.A.. ...
 4020a8e0 12c1f009 3185f9ff 083112c1 100df000  ....1....1......
 4020a8f0 12c1f009 31c921d9 11cd0245 f8ffdd02  ....1.!....E....
 4020a900 280c3168 ff58120c 242d0cc0 05000831  (.1h.X..$-.....1
 4020a910 da22c821 d81112c1 100df000 12c1f009  .".!............
 4020a920 31c921d9 11cd0285 f5ffdd02 280c315d  1.!.........(.1]
 4020a930 ff58120c 242d0cc0 05000831 da22c821  .X..$-.....1.".!
 4020a940 d81112c1 100df000 12c1f009 31ccb448  ............1..H
 4020a950 02303074 4804c004 00460100 40407485  .00tH....F..@@t.
 4020a960 e9ff0831 12c1100d f0000000 12c1f030  ...1...........0
 4020a970 30740261 0305fdff 083112c1 100df000  0t.a.....1......
 4020a980 12c1f030 30740931 c921d911 cd0285fb  ...00t.1.!......
 4020a990 ffdd0228 0c3143ff 58120c24 2d0cc005  ...(.1C.X..$-...
 4020a9a0 000831da 22c821d8 1112c110 0df00000  ..1.".!.........
 4020a9b0 12c1f009 3105f9ff 083112c1 100df000  ....1....1......
 4020a9c0 12c1f009 31c921d9 11cd02c5 f7ffdd02  ....1.!.........
 4020a9d0 280c3134 ff58120c 242d0cc0 05000831  (.14.X..$-.....1
 4020a9e0 da22c821 d81112c1 100df000 12c1f009  .".!............
 4020a9f0 31c921d9 11cd0205 f5ffdd02 280c3129  1.!.........(.1)
 4020aa00 ff58120c 242d0cc0 05000831 da22c821  .X..$-.....1.".!
 4020aa10 d81112c1 100df000 2093fe3f 2493fe3f  ........ ..?$..?
 4020aa20 2893fe3f 0092fe3f 12c1d0c2 610a5035  (..?...?....a.P5
 4020aa30 2020c220 2d04d991 e98109b1 f9714901    . -........qI.
 4020aa40 ed0560d0 74c5abfa dc22280c 31f3ff58  ..`.t...."(.1..X
 4020aa50 120c342d 0cc00500 06640000 00002221  ..4-.....d...."!
 4020aa60 00e03e20 c5a9fa66 1212222c 0031ebff  ..> ...f..",.1..
 4020aa70 58120c34 2d0cc005 00c65b00 00280141  X..4-.....[..(.A
 4020aa80 67dc5167 dc3d0e01 70dcc000 00e61213  g.Qg.=..p.......
 4020aa90 28014162 dc5163dc e03e2001 6cdcc000  (.Ab.Qc..> .l...
 4020aaa0 00d62201 280c31de ff581242 a003c02c  ..".(.1..X.B...,
 4020aab0 20c00500 064d0028 014151dc 5151dce0   ....M.(.AQ.QQ..
 4020aac0 3e200162 dcc00000 d6520138 0c2d0c48  > .b.....R.8.-.H
 4020aad0 032cd3c0 04002911 2155dc20 ee30c600  .,....).!U. .0..
 4020aae0 000c0229 1116fd0d 2146dc31 46dc0c0f  ...)....!F.1F...
 4020aaf0 4144dc51 4fdc0156 dcc00000 1b8f80f0  AD.QO..V........
 4020ab00 74d79feb c6150000 514adc41 3ddc2d06  t.......QJ.A=.-.
 4020ab10 3d070150 dcc00000 7d036d02 69217931  =..P....}.m.i!y1
 4020ab20 014edcc0 0000fd02 0ca43d0f c02c2005  .N........=.., .
 4020ab30 d5ff2add 2d0f01a5 fdc00000 68217831  ..*.-.......h!x1
 4020ab40 4d025d03 2d063d07 0148dcc0 00000b8e  M.].-.=..H......
 4020ab50 80e0746d 027d0356 defa2d0d 06230068  ..tm.}.V..-..#.h
 4020ab60 014d025d 03602620 3d0e013c dcc00000  .M.].`& =..<....
 4020ab70 6d027d03 69217931 013adcc0 0000dd02  m.}.i!y1.:......
 4020ab80 0139dcc0 00006821 78315d03 4d023d07  .9....h!x1].M.=.
 4020ab90 2d060135 dcc00000 6d027d03 0ca43d0d  -..5....m.}...=.
 4020aba0 2d0c6921 793105c5 ffdd0228 0c319dff  -.i!y1.....(.1..
 4020abb0 58120c14 2d0cc005 0038112a 2d3ad2ed  X...-....8.*-:..
 4020abc0 0f682178 31c6cfff 410edc51 0edc2801  .h!x1...A..Q..(.
 4020abd0 3d0e0122 dcc00000 0122dcc0 00003d02  =.."....."....=.
 4020abe0 0ca4c02c 2005c1ff 38113a22 08b1c8a1  ..., ...8.:"....
 4020abf0 d891e881 f87112c1 300df000 12c1f060  .....q..0......`
 4020ac00 60740261 0305e2ff 083112c1 100df000  `t.a.....1......
 4020ac10 12c1f060 60740931 c921d911 cd0285e0  ...``t.1.!......
 4020ac20 ffdd0228 0c319ffe 58120c24 2d0cc005  ...(.1..X..$-...
 4020ac30 000831da 22c821d8 1112c110 0df00000  ..1.".!.........
 4020ac40 0c044902 49124922 78036813 58237902  ..I.I.I"x.h.X#y.
 4020ac50 69125922 49034913 49230df0 0c044902  i.Y"I.I.I#....I.
 4020ac60 49124922 78036813 58237902 69125922  I.I"x.h.X#y.i.Y"
 4020ac70 49034913 49230df0 280212c1 f0093101  I.I.I#..(.....1.
 4020ac80 4ae5c000 00083112 c1100df0 12c1f0c9  J.....1.........
 4020ac90 21cd0228 02093116 52000143 e5c00000  !..(..1.R..C....
 4020aca0 08310c02 290c292c 291cc821 12c1100d  .1..).),)..!....
 4020acb0 f0000000 9c081040 12c1f0c9 21cd0228  .......@....!..(
 4020acc0 02d91109 31dd038c 32381cd7 b3151b3d  ....1...28.....=
 4020acd0 01f9ffc0 00008cc2 382c290c d26c01cc  ........8,)..l..
 4020ace0 13324200 0c120831 c821d811 12c1100d  .2B....1.!......
 4020acf0 f0000000 12c1f0c9 21cd0228 02d911dd  ........!..(....
 4020ad00 031b3302 610301eb ffc00000 8c42290c  ..3.a........B).
 4020ad10 d91c0c12 0831c821 d81112c1 100df000  .....1.!........
 4020ad20 bc101040 12c1f0e9 01ed033d 04c921d9  ...@.......=..!.
 4020ad30 110931cd 02dd0405 f8ffdc32 280c8c42  ..1........2(..B
 4020ad40 011ae5c0 00000c02 290c292c 291cc602  ........).),)...
 4020ad50 00280cd9 2c3d0e01 f2ffc000 0008312d  .(..,=........1-
 4020ad60 0cd811c8 21e80112 c1100df0 12c1e0c9  ....!...........
 4020ad70 6109710c 04490249 124922cd 02471313  a.q..I.I.I"..G..
 4020ad80 2d033901 0151e2c0 00003801 4d02c02c  -.9..Q....8.M..,
 4020ad90 2005f9ff 0871c861 12c1200d f0000000   ....q.a.. .....
 4020ada0 12c1f0e9 01ed033d 04c921d9 110931cd  .......=..!...1.
 4020adb0 02dd0445 f0ffdc32 280c8c42 01fbe4c0  ...E...2(..B....
 4020adc0 00000c02 290c292c 291c8603 00222c00  ....).),)....",.
 4020add0 418fdbd2 6c02e03e 2005f900 08312d0c  A...l..> ....1-.
 4020ade0 d811c821 e80112c1 100df000 12c1f0d9  ...!............
 4020adf0 11dd0228 02c92109 31cd039c f2481d38  ...(..!.1....H.8
 4020ae00 23373413 380c01c6 ffc00000 282c292d  #74.8.......(,)-
 4020ae10 0c02292c 86060000 01e4e4c0 0000282c  ..),..........(,
 4020ae20 480c381c 292d490d 391d0c02 290c291c  H.8.)-I.9...).).
 4020ae30 292c0831 c821d811 12c1100d f0000000  ),.1.!..........
 4020ae40 12c1f0c9 210931cd 02371221 58038ca5  ....!.1..7.!X...
 4020ae50 48235035 20c5ecff 86040000 28028c42  H#P5 .......(..B
 4020ae60 01d2e4c0 00000c02 290c292c 291c0831  ........).),)..1
 4020ae70 2d0cc821 12c1100d f0000000 12c1f009  -..!............
 4020ae80 310c0449 02491249 2245fbff 083112c1  1..I.I.I"E...1..
 4020ae90 100df000 12c1f0c9 21093120 c2203712  ........!.1 . 7.
 4020aea0 0285f4ff 08312d0c c82112c1 100df000  .....1-..!......
 4020aeb0 12c1f0c9 21093120 c2202713 02c5f2ff  ....!.1 . '.....
 4020aec0 08312d0c c82112c1 100df000 12c1e0c9  .1-..!..........
 4020aed0 610971cd 029c732d 03390101 fbe1c000  a.q...s-.9......
 4020aee0 00380120 4220c02c 2085e3ff 86040000  .8. B ., .......
 4020aef0 28028c42 01ade4c0 00000c02 290c292c  (..B........).),
 4020af00 291c0871 2d0cc861 12c1200d f0000000  )..q-..a.. .....
 4020af10 12c1e009 710c0432 41004902 3d014912  ....q..2A.I.=.I.
 4020af20 49224241 0145faff 087112c1 200df000  I"BA.E...q.. ...
 4020af30 12c1e009 71c9610c 05cd0259 0c591c59  ....q.a....Y.Y.Y
 4020af40 2c302074 40407410 312045ba f62d0c3d  ,0 t@@t.1 E..-.=
 4020af50 0185f7ff 0871c861 12c1200d f0000000  .....q.a.. .....
 4020af60 12c1c002 610fc261 0e52a000 cd02590c  ....a..a.R....Y.
 4020af70 591c592c 2d034040 743d01c5 a4f62d0c  Y.Y,-.@@t=....-.
 4020af80 3d0185f4 ff08f1c8 e112c140 0df00000  =..........@....
 4020af90 12c1c002 610fc261 0e52a000 cd02590c  ....a..a.R....Y.
 4020afa0 591c592c 2d034040 743d0145 b4f62d0c  Y.Y,-.@@t=.E..-.
 4020afb0 3d0185f1 ff08f1c8 e112c140 0df00000  =..........@....
 4020afc0 12c1c002 610fc261 0e52a000 cd02590c  ....a..a.R....Y.
 4020afd0 591c592c 2d034040 743d0105 a8f62d0c  Y.Y,-.@@t=....-.
 4020afe0 3d0185ee ff08f1c8 e112c140 0df00000  =..........@....
 4020aff0 12c1c002 610fc261 0e52a000 cd02590c  ....a..a.R....Y.
 4020b000 591c592c 2d034040 743d01c5 b6f62d0c  Y.Y,-.@@t=....-.
 4020b010 3d0185eb ff08f1c8 e112c140 0df00000  =..........@....
 4020b020 12c1c009 f1c9e1d9 d1cd020c 02290c29  .............).)
 4020b030 1c292c2d 0340d074 01a3e1c0 00002b4d  .),-.@.t......+M
 4020b040 8044015d 0d6d0140 483105c2 f63d022d  .D.].m.@H1...=.-
 4020b050 0c85e7ff 08f1c8e1 d8d112c1 400df000  ............@...
 4020b060 60607412 c1c082c6 0202610f c2610e0c  ``t.......a..a..
 4020b070 07cd0280 88013d05 790c791c 792c5d06  ......=.y.y.y,].
 4020b080 2d046d01 80483145 bef63d02 2d0cc5e3  -.m..H1E..=.-...
 4020b090 ff08f1c8 e112c140 0df00000 12c1f0c9  .......@........
 4020b0a0 21d91109 31dd03cd 029c3331 d8da2d0d  !...1.....31..-.
 4020b0b0 45c4004d 023d0d2d 0c45ceff 86040000  E..M.=.-.E......
 4020b0c0 28028c42 0139e4c0 00000c02 290c292c  (..B.9......).),
 4020b0d0 291c0831 2d0cd811 c82112c1 100df000  )..1-....!......
 4020b0e0 12c1f009 310c0449 02491249 22c5faff  ....1..I.I.I"...
 4020b0f0 083112c1 100df000 12c1e0c9 61e94109  .1..........a.A.
 4020b100 71ed03d9 51f931cd 023822cc 3e0c0d46  q...Q.1..8".>..F
 4020b110 07000c1d 9c843af4 3d0fc5b9 ff16c2fe  ......:.=.......
 4020b120 480c282c 3d0e2a24 01fefec0 0000f92c  H.(,=.*$.......,
 4020b130 08712d0d c861d851 e841f831 12c1200d  .q-..a.Q.A.1.. .
 4020b140 f0000000 4d034824 380312c1 f0093185  ....M.H$8.....1.
 4020b150 faff0831 12c1100d f0000000 12c1e0c9  ...1............
 4020b160 610971cd 020c0227 13122d03 39010156  a.q....'..-.9..V
 4020b170 e1c00000 38014d02 2d0cc5f7 ff0871c8  ....8.M.-.....q.
 4020b180 6112c120 0df00000 12c1e032 41000c05  a.. .......2A...
 4020b190 3d010c14 09715241 01c5f5ff 087112c1  =....qRA.....q..
 4020b1a0 200df000 12c1e0c9 610ca4cd 02302074   .......a....0 t
 4020b1b0 3d010971 0581f62d 010143e1 c000004d  =..q...-..C....M
 4020b1c0 023d012d 0c05f3ff 0871c861 12c1200d  .=.-.....q.a.. .
 4020b1d0 f0000000 12c1e0c2 610642a0 0a20c220  ........a.B.. . 
 4020b1e0 2d033d01 0971057e f62d0101 37e1c000  -.=..q.~.-..7...
 4020b1f0 004d023d 012d0c05 f0ff0871 c86112c1  .M.=.-.....q.a..
 4020b200 200df000 12c1e0c2 610642a0 0a20c220   .......a.B.. . 
 4020b210 2d033d01 0971858d f62d0101 2be1c000  -.=..q...-..+...
 4020b220 004d023d 012d0c05 edff0871 c86112c1  .M.=.-.....q.a..
 4020b230 200df000 12c1e0c2 610642a0 0a20c220   .......a.B.. . 
 4020b240 2d033d01 09714581 f62d0101 1fe1c000  -.=..qE..-......
 4020b250 004d023d 012d0c05 eaff0871 c86112c1  .M.=.-.....q.a..
 4020b260 200df000 12c1e0c2 610642a0 0a20c220   .......a.B.. . 
 4020b270 2d033d01 09710590 f62d0101 13e1c000  -.=..q...-......
 4020b280 004d023d 012d0c05 e7ff0871 c86112c1  .M.=.-.....q.a..
 4020b290 200df000 12c1d0d9 91dd022d 0309b1c9   ..........-....
 4020b2a0 a10108e1 c000006d 010c440c 25c59bf6  .......m..D.%...
 4020b2b0 cd020105 e1c00000 4d023d0c 2d0d85e3  ........M.=.-...
 4020b2c0 ff08b1c8 a1d89112 c1300df0 12c1d06d  .........0.....m
 4020b2d0 013d05d9 910c25dd 022d040c 4409b1c9  .=....%..-..D...
 4020b2e0 a18598f6 cd0201f8 e0c00000 4d023d0c  ............M.=.
 4020b2f0 2d0d45e0 ff08b1c8 a1d89112 c1300df0  -.E..........0..
 4020b300 12c1e0c9 61e94109 71d951f9 31cd0320  ....a.A.q.Q.1.. 
 4020b310 e220cc33 0c0d860b 00302320 313cdad2  . .3.....0# 1<..
 4020b320 a001459d 003d029c d2f82e2d 0efaf33d  ..E..=.....-...=
 4020b330 0f4598ff 16c2fd48 0e282e3d 0c202480  .E.....H.(.=. $.
 4020b340 4133da85 a200f92e 08712d0d c861d851  A3.......q-..a.Q
 4020b350 e841f831 12c1200d f0000000 4d034824  .A.1.. .....M.H$
 4020b360 380312c1 f0c92109 31cd02c5 d8ffdc02  8.....!.1.......
 4020b370 280c8c42 018de3c0 00000c02 290c292c  (..B........).),
 4020b380 291c0831 2d0cc821 12c1100d f0000000  )..1-..!........
 4020b390 12c1e0c9 610971cd 02ac832d 03390101  ....a.q....-.9..
 4020b3a0 cae0c000 0038014d 022d0cc5 d4ff9c32  .....8.M.-.....2
 4020b3b0 46060000 017de3c0 00000c02 290c292c  F....}......).),
 4020b3c0 291cc601 00280c56 92fe06fb ff08712d  )....(.V......q-
 4020b3d0 0cc86112 c1200df0 12c1e032 41000c05  ..a.. .....2A...
 4020b3e0 3d010c14 c9610971 cd025241 0185d0ff  =....a.q..RA....
 4020b3f0 dc02280c 8c42016c e3c00000 0c02290c  ..(..B.l......).
 4020b400 292c291c 08712d0c c86112c1 200df000  ),)..q-..a.. ...
 4020b410 12c1f030 3074c921 093120c2 2045d8ff  ...00t.!.1 . E..
 4020b420 dc02280c 8c420160 e3c00000 0c02290c  ..(..B.`......).
 4020b430 292c291c 08312d0c c82112c1 100df000  ),)..1-..!......
 4020b440 12c1f0c9 210931cd 0285d8ff dc02280c  ....!.1.......(.
 4020b450 8c420155 e3c00000 0c02290c 292c291c  .B.U......).),).
 4020b460 08312d0c c82112c1 100df000 12c1f0c9  .1-..!..........
 4020b470 210931cd 02c5d8ff dc02280c 8c42014a  !.1.......(..B.J
 4020b480 e3c00000 0c02290c 292c291c 08312d0c  ......).),)..1-.
 4020b490 c82112c1 100df000 12c1f0c9 210931cd  .!..........!.1.
 4020b4a0 0205d9ff dc02280c 8c42013f e3c00000  ......(..B.?....
 4020b4b0 0c02290c 292c291c 08312d0c c82112c1  ..).),)..1-..!..
 4020b4c0 100df000 12c1f0c9 210931cd 0245d9ff  ........!.1..E..
 4020b4d0 dc02280c 8c420134 e3c00000 0c02290c  ..(..B.4......).
 4020b4e0 292c291c 08312d0c c82112c1 100df000  ),)..1-..!......
 4020b4f0 12c1f0c9 210931cd 0285d9ff dc02280c  ....!.1.......(.
 4020b500 8c420129 e3c00000 0c02290c 292c291c  .B.)......).),).
 4020b510 08312d0c c82112c1 100df000 12c1f0c9  .1-..!..........
 4020b520 210931cd 0245daff dc02280c 8c42011e  !.1..E....(..B..
 4020b530 e3c00000 0c02290c 292c291c 08312d0c  ......).),)..1-.
 4020b540 c82112c1 100df000 12c1f0c9 210931cd  .!..........!.1.
 4020b550 02c5daff dc02280c 8c420113 e3c00000  ......(..B......
 4020b560 0c02290c 292c291c 08312d0c c82112c1  ..).),)..1-..!..
 4020b570 100df000 12c1f048 0209318c 543803ec  .......H..1.T8..
 4020b580 13c60400 58032d04 ac053823 9cc32205  ....X.-...8#..".
 4020b590 00202060 06050000 58222d03 8cc52204  .  `....X"-...".
 4020b5a0 00c60100 2d0401a8 dec00000 083112c1  ....-........1..
 4020b5b0 100df000 12c1f058 224823c9 210931c2  .......X"H#.!.1.
 4020b5c0 a0004795 0ac5faff 0c1320c3 83c0c074  ..G....... ....t
 4020b5d0 08312d0c c82112c1 100df000 12c1f048  .1-..!.........H
 4020b5e0 220931dc 348cc332 03000c12 30428340  ".1.4..2....0B.@
 4020b5f0 20748609 000c1246 08002802 ccc34202   t.....F..(...B.
 4020b600 000c1240 23932020 74c60300 018fdec0  ...@#.  t.......
 4020b610 00000c03 0c142034 83302074 083112c1  ...... 4.0 t.1..
 4020b620 100df000 12c1f009 3185f4ff 0831202f  ........1....1 /
 4020b630 0512c110 0df00000 12c1f009 3145f3ff  ............1E..
 4020b640 203f3108 312023c0 202f0512 c1100df0   ?1.1 #. /......
 4020b650 12c1f009 31c5f1ff 0b320831 20232020  ....1....2.1 #  
 4020b660 2f0512c1 100df000 12c1f009 3145f0ff  /...........1E..
 4020b670 7cf30831 20233020 2f0512c1 100df000  |..1 #0 /.......
 4020b680 70121040 12c1f009 31c921d9 11e90137  p..@....1.!....7
 4020b690 12365822 68230c04 6795340c 14acf5c8  .6X"h#..g.4.....
 4020b6a0 02d80306 06000000 01f6ffc0 0000ed02  ................
 4020b6b0 220d00d2 cd0101f2 ffc00000 279e0e32  "...........'..2
 4020b6c0 0c001bcc 2d0356e3 fd0c1446 00000c04  ....-.V....F....
 4020b6d0 08312d04 c821d811 e80112c1 100df000  .1-..!..........
 4020b6e0 58236822 12c1f0c9 21093150 66c00c0c  X#h"....!.1Pf...
 4020b6f0 47361c28 02c71217 3803c713 124a2250  G6.(....8....J"P
 4020b700 452001ae ddc00000 0c1320c3 83c0c074  E ........ ....t
 4020b710 08312d0c c82112c1 100df000 12c1f068  .1-..!.........h
 4020b720 22582309 3142a000 57360445 fbff4d02  "X#.1B..W6.E..M.
 4020b730 08312d04 12c1100d f0000000 12c1f058  .1-............X
 4020b740 224823c9 2109310c 0c47351c 2802c712  "H#.!.1..G5.(...
 4020b750 173803c7 13124045 c04a2201 3bdec000  .8....@E.J".;...
 4020b760 000c1320 c383c0c0 7408312d 0cc82112  ... ....t.1-..!.
 4020b770 c1100df0 58220c04 57b30928 02471204  ....X"..W..(.G..
 4020b780 3a324203 002d040d f0000000 58224040  :2B..-......X"@@
 4020b790 7457b307 28023032 80424300 0df00000  tW..(.02.BC.....
 4020b7a0 88bcfe3f 482247b3 0648023a 24567400  ...?H"G..H.:$Vt.
 4020b7b0 21fcff0c 03324200 0df00000 58220c04  !....2B.....X"..
 4020b7c0 57b30928 02471204 3a324203 002d040d  W..(.G..:2B..-..
 4020b7d0 f0000000 00111040 0c170c06 12c1f040  .......@.......@
 4020b7e0 6783c921 0931d911 606074cd 03ecf630  g..!.1..``t....0
 4020b7f0 6783eca6 38223735 06624c00 06080000  g...8"75.bL.....
 4020b800 5033c00b d4d7b301 dd033802 4d0d2d0c  P3........8.M.-.
 4020b810 50338001 f0ffc000 00dacc0c 02224c00  P3..........."L.
 4020b820 0831c821 d81112c1 100df000 12c1f052  .1.!...........R
 4020b830 22020261 03c26102 30307457 b411c802  "..a..a.00tW....
 4020b840 4a2c056a fec0c2c0 7cf3203c 93460000  J,.j....|. <.F..
 4020b850 7cf30831 2d03c821 12c1100d f0000000  |..1-..!........
 4020b860 12c1f030 30740c04 093105fc ff083112  ...00t...1....1.
 4020b870 c1100df0 12c1f058 220931c9 2157b416  .......X".1.!W..
 4020b880 c8023803 4a2c015d dcc00000 c0c2c07c  ..8.J,.].......|
 4020b890 f3203c93 4600007c f308312d 03c82112  . <.F..|..1-..!.
 4020b8a0 c1100df0 12c1f00c 04093185 fcff0831  ..........1....1
 4020b8b0 12c1100d f0000000 12c1e0c9 61cd0228  ............a..(
 4020b8c0 220971d9 51e941f2 61033030 74273405  ".q.Q.A.a.00t'4.
 4020b8d0 7cf24609 0000222c 00d2c401 d022800c  |.F...",....."..
 4020b8e0 04f20200 424200e8 0c2d0eda de0561fe  ....BB...-....a.
 4020b8f0 f24d0016 92fd380c 3022c008 71c861d8  .M....8.0"..q.a.
 4020b900 51e841f8 3112c120 0df00000 482212c1  Q.A.1.. ....H"..
 4020b910 f0303074 0b440261 03c5f9ff 083112c1  .00t.D.a.....1..
 4020b920 100df000 12c1d058 23d99109 b1c9a1e9  .......X#.......
 4020b930 81f971dd 04bc9548 22bc5457 3433473d  ..q....H".TW43G=
 4020b940 02d2c4ff c802daec c73e267c f2f22300  .........>&|..#.
 4020b950 226100c0 3c202d03 3d0f0128 dcc00000  "a..< -.=..(....
 4020b960 c042c01b 328cf247 3d014901 37bee646  .B..2..G=.I.7..F
 4020b970 01007cf2 86000000 280108b1 c8a1d891  ..|.....(.......
 4020b980 e881f871 12c1300d f0000000 58224823  ...q..0.....X"H#
 4020b990 12c1f040 45c00261 0385f8ff 083112c1  ...@E..a.....1..
 4020b9a0 100df000 4c8efe3f 12c1d0c9 a1d991e9  ....L..?........
 4020b9b0 81f97109 b1cd04fd 05dd02ed 0347b503  ..q..........G..
 4020b9c0 cd05fd04 31f8ff2d 0d053aff 282e27bc  ....1..-..:.(.'.
 4020b9d0 24f7b201 fd02280e 0c03fa22 42020032  $.....(...."B..2
 4020b9e0 4200380e 2d0dca33 4901054e ff280e48  B.8.-..3I..N.(.H
 4020b9f0 01faf242 4f0008b1 2d0dc8a1 d891e881  ...BO...-.......
 4020ba00 f87112c1 300df000 28023030 74404074  .q..0...(.00t@@t
 4020ba10 cc924603 00379502 4242001b 22520200  ..F..7..BB.."R..
 4020ba20 5615ff0d f0000000 4ce00040 582212c1  V.......L..@X"..
 4020ba30 c0c9e1d9 d1e9c109 f1f9b159 21ed02dd  ...........Y!...
 4020ba40 03cd0416 a5124823 49111634 12f82c58  ......H#I..4..,X
 4020ba50 02402fc0 2901ec22 06030000 380c0140  .@/.).."....8..@
 4020ba60 ddc00000 f82cfa5e 380d2d05 01e4dbc0  .....,.^8.-.....
 4020ba70 0000ed02 4d0f562e fe063d00 380196a3  ....M.V...=.8...
 4020ba80 00480df8 2149312d 05c61700 8d058609  .H..!I1-........
 4020ba90 00007941 0133ddc0 0000380c 482c2d0f  ..yA.3....8.H,-.
 4020baa0 0130ddc0 0000282e 3801882c 582d7841  .0....(.8..,X-xA
 4020bab0 3a228a8f 5a57292e 380d2d05 59518941  :"..ZW).8.-.YQ.A
 4020bac0 01cfdbc0 00005851 884150f2 c07d024d  ......XQ.AP..}.M
 4020bad0 0f3d052d 08faf856 77fb0191 fcc00000  .=.-...Vw.......
 4020bae0 46230000 48113801 4a223aff 38315951  F#..H.8.J":.81YQ
 4020baf0 01c3dbc0 00005851 5682fe48 21471f70  ......XQV..H!G.p
 4020bb00 281ef7b2 262d0532 cf01016a fcc00000  (...&-.2...j....
 4020bb10 16d20529 0ef91e48 2ec60300 003d0d2d  ...)...H.....=.-
 4020bb20 0e05e0ff fd02d6a2 00061100 0b44d6b4  .............D..
 4020bb30 fe060f00 482d280e 782e5801 4a4f4a22  ....H-(.x.X.JOJ"
 4020bb40 3d024047 c05a2201 b8ffc000 00282e58  =.@G.Z"......(.X
 4020bb50 01380e2a 25292e2a 230c0332 4200280e  .8.*%).*#..2B.(.
 4020bb60 482c380c fa2201fe dcc00000 0b4f6604  H,8..".......Of.
 4020bb70 ab08f1c8 e1d8d1e8 c1f8b112 c1400df0  .............@..
 4020bb80 12c1f0c9 21cd0228 2209315d 0327b32b  ....!..(".1].'.+
 4020bb90 ac843062 c067b401 6d04380c 6042c05a  ..0b.g..m.8.`B.Z
 4020bba0 66492c5a 235044c0 60338001 0affc000  fI,Z#PD.`3......
 4020bbb0 00380c28 2c2a230c 03324200 0831c821  .8.(,*#..2B..1.!
 4020bbc0 12c1100d f0000000 12c1f07c f4093105  ...........|..1.
 4020bbd0 fbff0831 12c1100d f0000000 12c1f0c9  ...1............
 4020bbe0 21c80209 31ccfcc6 04000000 0001a4fe  !...1...........
 4020bbf0 c0000022 4c001bcc 220c0056 e2fe0831  ..."L..."..V...1
 4020bc00 c82112c1 100df000 80121040 12c1f0c9  .!.........@....
 4020bc10 21c80209 31ccfcc6 04000000 0001faff  !...1...........
 4020bc20 c0000022 4c001bcc 220c0056 e2fe0831  ..."L..."..V...1
 4020bc30 c82112c1 100df000 24121040 12c1e0e9  .!......$..@....
 4020bc40 41e802f9 310971c9 61d951fd 02167e05  A...1.q.a.Q...~.
 4020bc50 d822cd0e cc4d8613 00001bcc 220c0001  ."...M......"...
 4020bc60 f6ffc000 005612ff 0bdddade c6000000  .....V..........
 4020bc70 000bdd22 0d0001f0 ffc00000 ccc21bdd  ..."............
 4020bc80 c04dc049 2fc7be18 c6010000 c7bde1c6  .M.I/...........
 4020bc90 faff002d 0e3d0c01 b2dcc000 00482fe8  ...-.=.......H/.
 4020bca0 0f4a4e0c 02224400 0871c861 d851e841  .JN.."D..q.a.Q.A
 4020bcb0 f83112c1 200df000 12c1f032 22000261  .1.. ......2"..a
 4020bcc0 0322a000 2713042d 0305cbf5 083112c1  ."..'..-.....1..
 4020bcd0 100df000 12c1f032 22000261 0321c8d7  .......2"..a.!..
 4020bce0 16a3002d 0385caf5 014cdcc0 00000831  ...-.....L.....1
 4020bcf0 12c1100d f0000000 8d020c02 27134180  ............'.A.
 4020bd00 40144058 c05805d0 44110004 40504091  @.@X.X..D...@P@.
 4020bd10 40407427 94150df0 38051b44 00074030  @@t'....8..D..@0
 4020bd20 30913030 74cc7380 26c00df0 1b483a28  0.00t.s.&....H:(
 4020bd30 405014d0 75116d04 5054c027 94d98024  @P..u.m.PT.'...$
 4020bd40 c00df000 20522040 738016a4 01304014  .... R @s....0@.
 4020bd50 4063c068 06d04411 00044060 40914245  @c.h..D...@`@.BE
 4020bd60 001b331b 557793e4 0df00000 5d029ce4  ..3.Uw......]...
 4020bd70 30701470 63c06806 d0771100 07406060  0p.pc.h..w...@``
 4020bd80 91606074 6245000b 441b331b 5556d6fd  .``tbE..D.3.UV..
 4020bd90 0df00000 5202008c d5205220 1b556205  ....R.... R .Ub.
 4020bda0 005676ff 86000000 5d02ac44 30701470  .Vv.....]..D0p.p
 4020bdb0 63c06806 d0771100 07406060 911b5560  c.h..w...@``..U`
 4020bdc0 60740b75 6247000b 441b338c 1656b4fd  `t.ubG..D.3..V..
 4020bdd0 8c360c03 3245000d f0000000 6d021644  .6..2E......m..D
 4020bde0 07302014 2053c098 05d02211 52060000  .0 . S....".R...
 4020bdf0 02409090 91902074 0c182025 c00c0520  .@.... t.. %... 
 4020be00 58935070 748a338a 5656b704 90907490  X.Ppt.3.VV....t.
 4020be10 78835627 042d074a 469d0706 0a007807  x.V'.-.JF.....x.
 4020be20 22050000 06407060 91607074 7022c07d  "....@p`.`ptp".}
 4020be30 09207893 60607470 7074ad08 60a7931b  . x.``tppt..`...
 4020be40 551b33dc 17ccfa30 60146073 c0d06611  U.3....0`.`s..f.
 4020be50 4795ca0d f0002d04 0df00000 12c1d0d9  G.....-.........
 4020be60 9109b1c9 a1e981f9 71dd0416 7405fd02  ........q...t...
 4020be70 cd03e2a0 01220f00 0bdd0101 fec00000  ....."..........
 4020be80 c030146d 02302cc0 2802d033 11000340  .0.m.0,.(..3...@
 4020be90 20209120 20746901 01fafdc0 00006801    .  ti.......h.
 4020bea0 4d024030 74602074 3022c00c 03203e93  M.@0t` t0"... >.
 4020beb0 40407430 30745d0e 405393cc 93cc751b  @@t00t].@S....u.
 4020bec0 ff1bcc56 edfa2d0d 08b1c8a1 d891e881  ...V..-.........
 4020bed0 f87112c1 300df000 12c1c0e9 c1ed0222  .q..0.........."
 4020bee0 c110c9e1 2911c149 d722c120 29010c42  ....)..I.". )..B
 4020bef0 39515971 09f1d9d1 49616981 79912921  9QYq....Iai.y.)!
 4020bf00 ca3e5d0e 50401440 25c02802 d0441100  .>].P@.@%.(..D..
 4020bf10 04402040 91404074 564405c6 15000000  .@ @.@@tVD......
 4020bf20 30701470 23c06802 d0771100 07406060  0p.p#.h..w...@``
 4020bf30 91606074 2d086029 93624500 0b442060  .``t-.`).bE..D `
 4020bf40 742d0840 29932020 741b331b 558c1656  t-.@).  t.3.U..V
 4020bf50 d2fc3221 00422101 5221022d 0d01a0e9  ..2!.B!.R!.-....
 4020bf60 c00000cd 02ac7d2d 0d0596f8 06080000  ......}-........
 4020bf70 52c50137 958de025 c022c201 c591f820  R..7...%."..... 
 4020bf80 d2203d0e 5d024d0c 0c190c08 06e4ff00  . =.].M.........
 4020bf90 08f12d0c d8d1c8e1 e8c112c1 400df000  ..-.........@...
 4020bfa0 12c1d0e9 81e119d7 c9a1d991 29316911  ............)1i.
 4020bfb0 09b1f971 cd04dd03 59017921 ea642d04  ...q....Y.y!.d-.
 4020bfc0 20301430 52c05805 d0331100 03405030   0.0R.X..3...@P0
 4020bfd0 91303074 564305c6 15000000 50201420  .00tVC......P . 
 4020bfe0 75c07807 d0221100 02407070 91707074  u.x.."...@pp.ppt
 4020bff0 2d047028 93724300 0b667d04 60789320  -.p(.rC..f}.`x. 
 4020c000 20747070 741b551b 338c1256 d7fc5221   tppt.U.3..V..R!
 4020c010 00622101 78212831 3d0d4d0f 4581fdcd  .b!.x!(1=.M.E...
 4020c020 02ac7f2d 0f458af8 06080000 22c20167  ...-.E......"..g
 4020c030 928dc022 c022c201 0586f820 f2205d0c  ..."."..... . ].
 4020c040 3d026d0e 0c180c04 06e4ff00 08b12d0c  =.m...........-.
 4020c050 d891c8a1 e881f871 12c1300d f0000000  .......q..0.....
 4020c060 12c1c0a2 c11092c1 200cc859 71698179  ........ ..Yqi.y
 4020c070 915d096d 0a7d0809 f1a91199 01892105  .].m.}........!.
 4020c080 f2ff08f1 12c1400d f0000000 e0bcfe3f  ......@........?
 4020c090 12c1f009 0101fdff 08008042 01080040  ...........B...@
 4020c0a0 2831c000 00080112 c1100df0 12c1f009  (1..............
 4020c0b0 0101f6ff 08000860 c0000008 0112c110  .......`........
 4020c0c0 0df00000 12c1f0c9 110901cd 0301efff  ................
 4020c0d0 80320108 00302831 08003d0c c0000001  .2...0(1..=.....
 4020c0e0 ebff0800 08602d0c c00000c8 11080112  .....`-.........
 4020c0f0 c1100df0 12c1f009 0101e4ff 08008032  ...............2
 4020c100 01082030 2831c000 00080112 c1100df0  .. 0(1..........
 4020c110 12c1f009 0101ddff 08000830 c0000008  ...........0....
 4020c120 0112c110 0df00000 12c1f009 0101d7ff  ................
 4020c130 08000840 c0000008 0112c110 0df00000  ...@............
 4020c140 12c1f009 0101d1ff 08000850 c0000008  ...........P....
 4020c150 0112c110 0df00000 12c1f009 0101cbff  ................
 4020c160 08000860 c0000008 0112c110 0df00000  ...`............
 4020c170 12c1f009 0101c5ff 08000870 c0000008  ...........p....
 4020c180 0112c110 0df00000 f0bcfe3f 0c2312c1  ...........?.#..
 4020c190 e0c931d9 41d1fcff 0921080d cd020220  ..1.A....!..... 
 4020c1a0 2c0c32c0 00000c13 080d2901 02202c0c  ,.2.......).. ,.
 4020c1b0 22c00000 0c13c049 04080dc0 5804c066  "......I....X..f
 4020c1c0 042911c0 77040c32 e07711d0 6611f055  .)..w..2.w..f..U
 4020c1d0 1102202b 50442070 6620c053 04c07404  .. +PD pf .S..t.
 4020c1e0 a05511b0 77117055 20c07504 c0771170  .U..w.pU .u..w.p
 4020c1f0 55206055 20504420 4040f4c0 00000c32  U `U PD @@.....2
 4020c200 0c23080d 480152a1 c7504410 02202bc0  .#..H.R..PD.. +.
 4020c210 5024d055 11504420 4040f4c0 00000c22  P$.U.PD @@....."
 4020c220 0c13080d 481152a1 85504410 02202bc0  ....H.R..PD.. +.
 4020c230 5b34d055 11504420 c05a04f0 55115044  [4.U.PD .Z..U.PD
 4020c240 204040f4 c00000c8 31d84108 2112c120   @@.....1.A.!.. 
 4020c250 0df00000 00000008 009a0060 00000040  ...........`...@
 4020c260 12c1e0d9 21e93109 01c911f9 414d00f1  ....!.1.....AM..
 4020c270 bdedc117 ebc02000 222ce507 e241c020  ...... .",...A. 
 4020c280 00522f9c 176538d1 c0ff080d 02201dc0  .R/..e8...... ..
 4020c290 00000c52 01fdd3c0 0000e2a1 84080d0c  ...R............
 4020c2a0 2202202c 0c13c000 00e7c2f0 080d0c32  ". ,...........2
 4020c2b0 02202c0c 23c00000 0c633022 106662dc  . ,.#....c0".fb.
 4020c2c0 91e5ff81 e5ffc020 00722842 907720c0  ....... .r(B.w .
 4020c2d0 20007268 42c02000 522ce50c 16605520   .rhB. .R,...`U 
 4020c2e0 c0200052 6ce5c020 00422f9c 01dcff17  . .Rl.. .B/.....
 4020c2f0 6411c020 00a22ce8 e7fa08c0 2000b22c  d.. ..,..... ..,
 4020c300 e8070bf6 c811d821 e831f841 080112c1  .......!.1.A....
 4020c310 200df000 0c1342a0 8112c1f0 c911d921   .....B........!
 4020c320 d19aff09 01080dcd 0202202b 0c22c000  .......... +."..
 4020c330 000c7208 0d0c1302 202bc045 41c00000  ..r..... +.EA...
 4020c340 c0404408 0d0c0202 202b0c13 c000000c  .@D..... +......
 4020c350 12080d0c 1302202b 42a07fc0 00000c62  ...... +B......b
 4020c360 080d0c13 02202b42 a07fc000 00c811d8  ..... +B........
 4020c370 21080112 c1100df0 0000f000 ffff0fff  !...............
 4020c380 12c1e029 11392109 41493141 fbff017e  ...).9!.AI1A...~
 4020c390 ff31cfea c0200022 23f24022 20c02000  .1... ."#.@" . .
 4020c3a0 08000220 372263f2 c0000028 21381148  ... 7"c....(!8.H
 4020c3b0 315d0105 79000174 ff080002 20382d01  1]..y..t.... 8-.
 4020c3c0 c0000001 71ff0800 022036c0 0000856e  ....q.... 6....n
 4020c3d0 0041eaff c0200031 beea2223 f2402210  .A... .1.."#.@".
 4020c3e0 c0200022 63f20841 12c1200d f0000000  . ."c..A.. .....
 4020c3f0 0c130c54 0c750c06 12c1e0d9 21f941c9  ...T.u......!.A.
 4020c400 11e931e1 61ff0901 080ecd02 02202522  ..1.a........ %"
 4020c410 a062c000 000c0dfd 0232aeac 20229030  .b.......2.. ".0
 4020c420 22b032a0 e30167d5 c0000000 52110cf4  ".2...g.....R...
 4020c430 0d045050 312d0d50 25b3e6b2 010d0232  ..PP1-.P%......2
 4020c440 a0cff02f 90f022f0 22c21d00 f011f0f0  .../..".".......
 4020c450 31015cd5 c0000098 0e004211 0cf30d03  1.\.......B.....
 4020c460 40403192 292740d4 b3e6bd01 0d0d00d0  @@1.)'@.........
 4020c470 11d0d031 b63c1c0c 82a68f01 7c820c03  ...1.<......|...
 4020c480 0c440c35 0c062a7f 70707422 a064c009  .D.5..*.ppt".d..
 4020c490 00060400 f0707422 a0640c03 0c440c35  .....pt".d...D.5
 4020c4a0 0c06c009 00980e0c 80922927 b62c1aa6  ..........)'.,..
 4020c4b0 8d017c80 22a0640c 030c740c 350c060a  ..|.".d...t.5...
 4020c4c0 7d707074 c0090006 0400d070 7422a064  }ppt.......pt".d
 4020c4d0 0c030c74 0c350c06 c0090098 0e922927  ...t.5........)'
 4020c4e0 ac6c22a0 610c130c 540c350c 260c37c0  .l".a...T.5.&.7.
 4020c4f0 090022a0 610c130c 540c1508 0e0c0602  ..".a...T.......
 4020c500 20270c37 c0000006 090022a0 610c130c   '.7......".a...
 4020c510 540c350c 260c07c0 090022a0 610c130c  T.5.&.....".a...
 4020c520 540c1508 0e0c0602 20270c07 c00000c8  T....... '......
 4020c530 11d821e8 31f84108 0112c120 0df00000  ..!.1.A.... ....
 4020c540 22a06112 c1f00901 0110ff0c 1308000c  ".a.............
 4020c550 84022026 1c15c000 000c0245 e9ff0801  .. &.......E....
 4020c560 12c1100d f0000000 000a0060 12c1f009  ...........`....
 4020c570 0172afdf 21fdffc0 20006222 d4706610  .r..!... .b".pf.
 4020c580 c0200062 62d4514d ddc02000 4222d750  . .bb.QM.. .B".P
 4020c590 4420c020 004262d7 31d8e3c0 20000222  D . .Bb.1... .."
 4020c5a0 d7300010 c0200002 62d722a0 c80136d3  .0... ..b."...6.
 4020c5b0 c0000022 a06c0c23 0c0401f3 fe0c6508  ...".l.#......e.
 4020c5c0 000c6602 20270c07 c0000022 a06c0c23  ..f. '.....".l.#
 4020c5d0 0c0401ed fe0c6508 000c6602 20270c17  ......e...f. '..
 4020c5e0 c000002c 04c02000 31e0ff22 23d44022  ...,.. .1.."#.@"
 4020c5f0 20c02000 0c240c75 01e4fe0c 06080022   . ..$.u......."
 4020c600 63d422a0 6c022025 0c23c000 00080112  c.".l. %.#......
 4020c610 c1100df0 ffffdfff 12c1d0d2 6107d1da  ............a...
 4020c620 fe026105 022d00c9 61022028 e981c000  ..a..-..a. (....
 4020c630 00080d0c 6202202c 0c13c000 000c230c  ....b. ,......#.
 4020c640 940c250c 06080ded 02022025 22a06bc0  ..%....... %".k.
 4020c650 00000c23 0c040c55 0c56080d 29410220  ...#...U.V..)A. 
 4020c660 2522a06c c000000c 13080dcd 020c240c  %".l..........$.
 4020c670 62404e20 02202b40 40f4c000 0022a06b  b@N . +@@....".k
 4020c680 0c230c94 0c750c76 080d0c17 022027c9  .#...u.v..... '.
 4020c690 91c00000 22a06b0c 230c940c 25080d0c  ....".k.#...%...
 4020c6a0 06022027 0c07c000 000c2c22 a06c0c23  .. '......,".l.#
 4020c6b0 0c040c55 080d0c56 0220270c 17c00000  ...U...V. '.....
 4020c6c0 91fddc31 a9ffc020 008223d7 908820c0  ...1... ..#... .
 4020c6d0 20008263 d771cfff c0200062 23d77066   ..c.q... .b#.pf
 4020c6e0 10c02000 6263d77c d5c02000 4223d450  .. .bc.|.. .B#.P
 4020c6f0 4410c020 004263d4 c0200022 23d4c022  D.. .Bc.. ."#.."
 4020c700 20c02000 2263d41c 9201dfd2 c000002d   . ."c.........-
 4020c710 01c50406 0c000c0c 2d011b40 20309032  ........-..@ 0.2
 4020c720 13004000 74cac3c0 c0f46680 ece040f4  ..@.t.....f...@.
 4020c730 080d0c62 02202b0c 13c00000 22a06b0c  ...b. +.....".k.
 4020c740 230c940c 75080d0c 76022027 0c07c000  #...u...v. '....
 4020c750 00e89122 a06b0c23 0c940c25 0c06080d  ...".k.#...%....
 4020c760 78410220 27707074 c00000e0 707422a0  xA. 'ppt....pt".
 4020c770 6c0c230c 04080d0c 55022027 0c56c000  l.#.....U. '.V..
 4020c780 00080d02 202fc000 000851d8 71602c11  .... /....Q.q`,.
 4020c790 e881c861 22d20820 2cf412c1 300df000  ...a".. ,...0...
 4020c7a0 e4befe3f 330d0000 00bdfe3f 32a0ff12  ...?3......?2...
 4020c7b0 c1e0c921 d931e941 e1faff09 11020e6c  ...!.1.A.......l
 4020c7c0 29013790 0705e5ff dd020606 001c1507  ).7.............
 4020c7d0 b5102c46 07360bd2 a066d0d0 d1d0d0f4  ..,F.6...f......
 4020c7e0 860000d1 f0ff01ef ff0c0c07 3d02060b  ............=...
 4020c7f0 00c165fe 080c2d0d 08e00c33 c000000c  ..e...-....3....
 4020c800 33080ccd 0208e021 e7ffc000 0020ccc0  3......!..... ..
 4020c810 f0cc1100 cc11c0c0 312bccc0 c221c5d4  ........1+...!..
 4020c820 ff0c0038 0151e0ff cac300cc 11c0c031  ...8.Q.........1
 4020c830 5a601b70 ea404204 24700074 4a4c4246  Z`.p.@B.$p.tJLBF
 4020c840 326660eb e84102af 81007d11 806211d8  2f`..A....}..b..
 4020c850 312d0c7a 66072c01 0d0c0070 74c82108  1-.zf.,....pt.!.
 4020c860 117a6662 651512c1 200df000 12c1f009  .zfbe... .......
 4020c870 01c911d9 21cd020c 0d161d04 261d2066  ....!.......&. f
 4020c880 2d5622a0 6b0c230c 240c6501 3ffe0c46  -V".k.#.$.e.?..F
 4020c890 0800da7c 02202772 0700c000 00060e00  ...|. 'r........
 4020c8a0 22a06b0c 230c240c 350137fe 0c060800  ".k.#.$.5.7.....
 4020c8b0 da7c0220 27720700 c0000086 060022a0  .|. 'r........".
 4020c8c0 6b0c230c 140c3501 30fe0c06 0800da7c  k.#...5.0......|
 4020c8d0 02202772 0700c000 001bddd0 d074663d  . 'r.........tf=
 4020c8e0 97c811d8 21080112 c1100df0 12c1e009  ....!...........
 4020c8f0 113901c9 21d931e9 41dd02ed 04c122fe  .9..!.1.A.....".
 4020c900 16220f22 a0770c03 1cc40c05 080c0c06  .".".w..........
 4020c910 0220270c 07c00000 22a0770c 031ca40c  . '.....".w.....
 4020c920 45080c0c 46022027 0c07c000 0022a077  E...F. '.....".w
 4020c930 0c031ca4 0c45080c 0c460220 270c17c0  .....E...F. '...
 4020c940 000022a0 770c031c a40c5508 0c0c5602  ..".w.....U...V.
 4020c950 20270c07 c0000022 a0770c03 1ca40c55   '.....".w.....U
 4020c960 080c0c56 0220270c 17c00000 22a0770c  ...V. '.....".w.
 4020c970 030c040c 750c0608 0c780102 2027707c  ....u....x.. 'p|
 4020c980 74c00000 22a0770c 030c140c 750c0608  t...".w.....u...
 4020c990 0c780102 20277074 74c00000 22a0770c  .x.. 'ptt...".w.
 4020c9a0 030c240c 350c0608 0c780102 20277070  ..$.5....x.. 'pp
 4020c9b0 34c00000 22a0770c 030c440c 75080c0c  4...".w...D.u...
 4020c9c0 06022027 e07074c0 000022a0 770c030c  .. '.pt...".w...
 4020c9d0 340c7508 0c0c0602 2027e078 74c00000  4.u..... '.xt...
 4020c9e0 e0703522 a0770c03 0c24080c 0c750220  .p5".w...$...u. 
 4020c9f0 270c46c0 00000cf4 0c350c36 d030040c  '.F......5.6.0..
 4020ca00 12080c0c 0e022027 30e2837d 0e22a077  ...... '0..}.".w
 4020ca10 0c03c000 007d0e22 a0770c03 1c84080c  .....}.".w......
 4020ca20 0c050220 270c06c0 00007d0d 22a0770c  ... '.....}.".w.
 4020ca30 031cc408 0c0c0502 20270c06 c00000c8  ........ '......
 4020ca40 21d831e8 41081112 c1200df0 22a0620c  !.1.A.... ..".b.
 4020ca50 130c040c 6512c1f0 c911c1cb fd090108  ....e...........
 4020ca60 0c0c6602 20270c17 c0000022 a0620c13  ..f. '.....".b..
 4020ca70 0c040c55 080c0c56 0220270c 07c00000  ...U...V. '.....
 4020ca80 22a0620c 130c040c 55080c0c 56022027  ".b.....U...V. '
 4020ca90 0c17c000 0022a062 0c130c04 0c65080c  .....".b.....e..
 4020caa0 0c660220 270c07c0 0000c811 080112c1  .f. '...........
 4020cab0 100df000 b0332340 12c1e009 01d921e9  .....3#@......!.
 4020cac0 31c911f9 410c0cf2 a063e2a0 64d1aefd  1...A....c..d...
 4020cad0 1c4201ed d1c00000 22a0620c 130c7408  .B......".b...t.
 4020cae0 0d0c7502 20250c76 c00000dc 22f79c08  ..u. %.v...."...
 4020caf0 21f1ff01 bbe6c000 001bccc0 c074e79c  !............t..
 4020cb00 cec811d8 21e831f8 41080112 c1200df0  ....!.1.A.... ..
 4020cb10 00002042 0000c041 0000d041 00008043  .. B...A...A...C
 4020cb20 00000840 00008044 000000c2 98681040  ...@...D.....h.@
 4020cb30 fc691040 3c661040 f86a1040 b8741040  .i.@<f.@.j.@.t.@
 4020cb40 24671040 12c1e0d9 310911c9 21e941cd  $g.@....1...!.A.
 4020cb50 05e1efff 8cd32613 08662308 e1eeff86  ......&..f#.....
 4020cb60 0000e1ed ffd1edff 6022112a 24e02211  ........`".*$.".
 4020cb70 013dd4c0 000051ea ff0c0401 35d4c000  .=....Q.....5...
 4020cb80 0001a5d8 c0000029 0131e6ff 2d0e01e7  .......).1..-...
 4020cb90 ffc00000 3d022801 01e6ffc0 000031e2  ....=.(.......1.
 4020cba0 ff01e4ff c00000ed 0201e3ff c0000022  ..............."
 4020cbb0 4c002020 7401e1ff c000003d 022d0e01  L.  t......=.-..
 4020cbc0 e0ffc000 003d0d01 d9ffc000 00ed0201  .....=..........
 4020cbd0 daffc000 00224c01 20207401 d8ffc000  ....."L.  t.....
 4020cbe0 003d022d 0e01d6ff c000003d 0d01cfff  .=.-.......=....
 4020cbf0 c0000001 d1ffc000 000811d8 31224c02  ............1"L.
 4020cc00 e841c821 12c1200d f0000000 adcc2040  .A.!.. ....... @
 4020cc10 b4090000 0bcd2040 ebcd2040 6c090000  ...... @.. @l...
 4020cc20 a8090000 a3090000 9e090000 99090000  ................
 4020cc30 94090000 8f090000 8a090000 85090000  ................
 4020cc40 80090000 7b090000 76090000 71090000  ....{...v...q...
 4020cc50 12c1d0c9 31498169 110921f9 61d941e9  ....1I.i..!.a.A.
 4020cc60 51dd02ed 03fd04a6 120e0cd0 2720090b  Q...........' ..
 4020cc70 22202074 2971c600 000cd339 7141befd  "  t)q.....9qA..
 4020cc80 c142fd31 93e8c020 002223f2 402220c0  .B.1... ."#.@" .
 4020cc90 2000080c 02203722 63f2c000 000ce557   .... 7"c......W
 4020cca0 bd3471da ffd06d90 7a66a006 00860900  .4q...m.zf......
 4020ccb0 06650046 76000674 00c67100 866f0046  .e.Fv..t..q..o.F
 4020ccc0 6d00066b 00c66800 86660046 64000662  m..k..h..f.Fd..b
 4020ccd0 00c65f00 865d00c1 ceff567f 05f62e54  .._..]....V....T
 4020cce0 3cb00b8e 56080e42 afb7b2af 83a2a076  <...V..B.......v
 4020ccf0 5ce35cd9 5cc65cb8 0ce2273d 02466900  \.\.\.\...'=.Fi.
 4020cd00 71c5ffd0 5d907a55 a00500c6 6500c649  q...].zU....e..I
 4020cd10 00466800 06930086 8f00c68b 00c66800  .Fh...........h.
 4020cd20 46880006 84000680 00867c00 467800c6  F.........|.Fx..
 4020cd30 74004671 002d0c3d 0e4d0f5d 0145e0ff  t.Fq.-.=.M.].E..
 4020cd40 820102a8 119871b2 0101a099 a0a20100  ......q.........
 4020cd50 80bb1100 aa11b0aa 20a08820 89090190  ........ .. ....
 4020cd60 feb2006e 0ce2076b 1b279d18 4d0f3d0e  ...n...k.'..M.=.
 4020cd70 5d01d200 70c2006f 80dd11da ccc0c0f4  ]...p..o........
 4020cd80 2d0c05dc ffe100fd 080ed151 e8022038  -..........Q.. 8
 4020cd90 2d01c000 00080e02 2036c000 00220130  -....... 6...".0
 4020cda0 8c1245d1 ff2d0c41 75fdc020 00322df2  ..E..-.Au.. .2-.
 4020cdb0 403310c0 2000c831 e851326d f2f861d8  @3.. ..1.Q2m..a.
 4020cdc0 41082112 c1300df0 3c043c1a 3c2232a0  A.!..0..<.<.<"2.
 4020cdd0 66b2af91 62afbb6c 691c180c e557bd34  f...b..li....W.4
 4020cde0 518effd0 7d905a77 a0070086 0900060f  Q...}.Zw........
 4020cdf0 00c60900 063a0046 3a00863d 00460800  .....:.F:..=.F..
 4020ce00 862400c6 2400c638 00462400 863000c6  .$..$..8.F$..0..
 4020ce10 30008605 004d0282 afccbd08 6d080d0b  0....M......m...
 4020ce20 ad043d06 4d0a0241 01060100 4d023241  ..=.M..A....M.2A
 4020ce30 010d0342 41000602 00824100 22afb122  ...BA.....A.".."
 4020ce40 41010241 0246c5ff c175ffc6 a2ffc174  A..A.F...u.....t
 4020ce50 ff46a1ff c174ffc6 9fffc173 ff469eff  .F...t.....s.F..
 4020ce60 c173ffc6 9cffc172 ff469bff c172ffc6  .s.....r.F...r..
 4020ce70 99ffc171 ff4698ff c171ffc6 96ffc170  ...q.F...q.....p
 4020ce80 ff4695ff c170ffc6 93ffc16f ff4692ff  .F...p.....o.F..
 4020ce90 c16fffc6 90ff8d03 bd083d08 9d0b4d0a  .o........=...M.
 4020cea0 92410186 e2ff0d0a 62a0625c f7724100  .A......b.b\.rA.
 4020ceb0 624101c6 e2ff8241 0002afdf 7c299241  bA.....A....|).A
 4020cec0 0146dfff 62410002 a06f7c9a a24101c6  .F..bA...o|..A..
 4020ced0 dbff6d08 0d063d06 4d020241 0106d4ff  ..m...=.M..A....
 4020cee0 3d069d03 6d030d09 ad0406cd ff3d069d  =...m........=..
 4020cef0 0346eaff 6d080d06 86c9ff32 410022af  .F..m......2A.".
 4020cf00 c46cc006 ceff3241 00b24101 4c8006cc  .l....2A..A.L...
 4020cf10 ff324100 02afa44c 1bb24101 86c8ff0c  .2A....L..A.....
 4020cf20 00024101 324100c6 c5ff0d08 3d0922af  ..A.2A......=.".
 4020cf30 be224101 06fbff92 410002a0 7c024101  ."A.....A...|.A.
 4020cf40 0d0406bf ff924100 1c34c6fb ff624100  ......A..4...bA.
 4020cf50 42410102 afcb06ba ff624100 a241012c  BA.......bA..A.,
 4020cf60 7046b7ff 0d0b6241 003c4332 410106b4  pF....bA.<C2A...
 4020cf70 ff000000 03d02040 00800c00 00200d00  ...... @..... ..
 4020cf80 08520000 00600000 12c1d0f9 91c96109  .R...`........a.
 4020cf90 51d971e9 81dd02ed 070101fe 00c51102  Q.q.............
 4020cfa0 0071c0c0 31076022 39a169b1 176004a6  .q..1.`"9.i..`..
 4020cfb0 1c010c0c 2d0c0c33 0183d2c0 000068b1  ....-..3......h.
 4020cfc0 38a100f2 11f0f031 c600000c 0f0c0c4d  8......1.......M
 4020cfd0 0c721118 0201345d 0621f3fd 6d0ed242  .r....4].!..m..B
 4020cfe0 302d0d09 0185c6ff 41eefd29 41020471  0-......A..)A..q
 4020cff0 0ce30070 0437bd34 61dfffd0 5d906a55  ...p.7.4a...].jU
 4020d000 a0050086 0900463c 00864d00 464b0006  ......F<..M.FK..
 4020d010 4900c646 00864400 46420006 4000c63d  I..F..D.FB..@..=
 4020d020 00863b00 46390006 3700c634 00c2a06a  ..;.F9..7..4...j
 4020d030 169708e1 55fc814b eac02000 82289c98  ....U..K.. ..(..
 4020d040 0e17e82e 92292717 601222a0 670c430c  .....)'.`.".g.C.
 4020d050 440c450c 061c37c0 0900c603 0022a067  D.E...7......".g
 4020d060 0c430c44 0c450c06 1c47c009 0001ccfd  .C.D.E...G......
 4020d070 02007131 c2ff21c0 ff005104 2a4f080e  ..q1..!...Q.*O..
 4020d080 50329302 201f0c12 c0000022 a0770c03  P2.. ......".w..
 4020d090 1cc40c65 080e0c66 0220270c 17c00000  ...e...f. '.....
 4020d0a0 22a0770c 031cc40c 55080e0c 56022027  ".w.....U...V. '
 4020d0b0 0c17c000 000c5201 74d0c000 0041b1ff  ......R.t....A..
 4020d0c0 51b0ff31 65fc505c 80f05501 c0200022  Q..1e.P\..U.. ."
 4020d0d0 23452020 c4502220 402220c0 20002263  #E  .P" @" . ."c
 4020d0e0 45d02d20 3841c532 02856802 c861d871  E.- 8A.2..h..a.q
 4020d0f0 e881f891 085112c1 300df0c2 a2e186cb  .....Q..0.......
 4020d100 ffc2a0d1 06caffc2 a0fc86c8 ffc2a127  ...............'
 4020d110 06c7ffc2 a15386c5 ffc2a17e 06c4ffc2  .....S.....~....
 4020d120 a1aa86c2 ffc2a1d6 06c1ffc2 a20286bf  ................
 4020d130 ffc2a22e 06beffc2 a25a86bc ffc2a287  .........Z......
 4020d140 06bbffc2 a2b486b9 ff000000 58bffe3f  ............X..?
 4020d150 12c1f051 93fd0901 42057101 fcff2764  ...Q....B.q...'d
 4020d160 0b320572 80330130 3831d033 11325000  .2.r.3.081.3.2P.
 4020d170 80220120 28310501 00080112 c1100df0  .". (1..........
 4020d180 a0c0fe3f 7cbefe3f 41feff32 a00112c1  ...?|..?A..2....
 4020d190 e0c26106 02610501 84fdcd02 08003244  ..a..a........2D
 4020d1a0 00577007 0c4205df 06460100 453d0122  .Wp..B...F..E=."
 4020d1b0 6104617d fd71f3ff 42a0640c 1251e3ff  a.a}.q..B.d..Q..
 4020d1c0 3178fd52 95003203 01291149 012d0c0c  1x.R..2..).I.-..
 4020d1d0 0445dbff 2d0c451c 026173fd 68065776  .E..-.E..as.h.Wv
 4020d1e0 090c420c 0345ee06 46010022 21040535  ..B..E..F.."!..5
 4020d1f0 01c22106 02210512 c1200df0 4dbefe3f  ..!..!... ..M..?
 4020d200 12c1e002 6106c261 0782a400 71d7fc20  ....a..a....q.. 
 4020d210 c220c020 006227d0 806620c0 20000c04  . . .b'..f . ...
 4020d220 0c0022a0 64315efd 6267d051 c8ff615e  ..".d1^.bg.Q..a^
 4020d230 fd71d4ff 52950032 03012901 09112d0c  .q..R..2..)...-.
 4020d240 45d4ff31 eeffc02c 903a2205 62ffc020  E..1...,.:".b.. 
 4020d250 7432c110 057001c8 71086112 c1200df0  t2...p..q.a.. ..
 4020d260 fffffff7 00000002 00000030 ffffffe0  ...........0....
 4020d270 0000001c ffffffcf 00000010 0000000c  ................
 4020d280 61f8ff12 c1f00911 2901c921 d9315110  a.......)..!.1Q.
 4020d290 e7d1a3d1 c1bdfbc0 20004225 fa604410  ........ .B%.`D.
 4020d2a0 c0200042 65fa31ef ffc02000 222d4430  . .Be.1... ."-D0
 4020d2b0 2220c020 000c230c 042c7508 0c226d44  " . ..#..,u.."mD
 4020d2c0 02202622 a06ac000 0071e7ff 81a6e9c0  . &".j...q......
 4020d2d0 2000622d 44706620 c0200062 6d4451e3   .b-Dpf . .bmDQ.
 4020d2e0 ff41e3ff c02000b1 fae6322b e8503310  .A... ....2+.P3.
 4020d2f0 403320c0 2000326b e821deff 01dfffc0  @3 . .2k.!......
 4020d300 2000a22b e620aa10 00aa20c0 2000a26b   ..+. .... . ..k
 4020d310 e67cd9c0 20007228 9c907710 c0200072  .|.. .r(..w.. .r
 4020d320 689c0c22 01d9cfc0 0000080c 022028c0  h.."......... (.
 4020d330 00000c22 080c0c13 02202b42 a081c000  ..."..... +B....
 4020d340 0031ceff c0200022 2d443022 20c02000  .1... ."-D0" . .
 4020d350 080c0220 32226d44 c0000022 a06a0c23  ... 2"mD...".j.#
 4020d360 080c0c04 0220262c 45c00000 080c0220  ..... &,E...... 
 4020d370 31c00000 22a06a0c 23080c0c 04022026  1...".j.#..... &
 4020d380 2c55c000 00080c02 202fc000 0042a9ff  ,U...... /...B..
 4020d390 3176fcc0 20002223 d0402210 c020000c  1v.. ."#.@".. ..
 4020d3a0 040c450c 060c8708 0c2263d0 22a06202  ..E......"c.".b.
 4020d3b0 20270c13 c0000001 fcfc5800 b7f50728   '........X....(
 4020d3c0 0145dcff c6020022 00308022 01202831  .E.....".0.". (1
 4020d3d0 c5e2ff08 0c022023 c0000022 a06b0c23  ...... #...".k.#
 4020d3e0 080c0c14 0220264c 85c00000 080c0220  ..... &L....... 
 4020d3f0 22c00000 22a06c0c 230c040c 05080c0c  "...".l.#.......
 4020d400 06022027 0c17c000 0022a06c 0c230c04  .. '.....".l.#..
 4020d410 0c25080c 0c260220 270c17c0 0000080c  .%...&. '.......
 4020d420 022013c0 000022a0 770c031c a40c4508  . ....".w.....E.
 4020d430 0c0c4602 20270c07 c0000022 a0770c03  ..F. '.....".w..
 4020d440 1ca40c55 080c0c56 0220270c 07c00000  ...U...V. '.....
 4020d450 22a0770c 031ca40c 45080c0c 46022027  ".w.....E...F. '
 4020d460 0c17c000 0022a077 0c031ca4 0c55080c  .....".w.....U..
 4020d470 0c560220 270c17c0 00000c02 c821d831  .V. '........!.1
 4020d480 081112c1 100df000 001ffeff 61c7fc1c  ............a...
 4020d490 8b92065c 718fe680 99019098 319094c0  ...\q.......1...
 4020d4a0 bc220c02 30a31131 f8ff7062 a0c02000  ."..0..1..pb.. .
 4020d4b0 8226c130 58109088 c0505a20 80807480  .&.0X....PZ ..t.
 4020d4c0 5520c020 005266c1 1b222020 74b792d9  U . .Rf.."  t...
 4020d4d0 91b6fc42 495c0df0 000000fe 00008f03  ...BI\..........
 4020d4e0 00008001 d0332340 ffff0000 ffff7ffe  .....3#@........
 4020d4f0 12c1c0d9 91e9a109 71f9b1c9 81f174e6  ........q.....t.
 4020d500 c143e501 f5ffe106 d1c02000 d22e4429  .C........ ...D)
 4020d510 c1003d10 3961074d 6dc02000 522c8659  ..=.9a.Mm. .R,.Y
 4020d520 4141eeff c0200032 2c864033 20c02000  AA... .2,.@3 . .
 4020d530 326c8621 e9ff202d 20c02000 0c130c34  2l.!.. - . ....4
 4020d540 0c750c46 0111fb0c f7080022 6e440220  .u.F......."nD. 
 4020d550 2722a062 c0000001 0cfb0800 022013c0  '".b......... ..
 4020d560 00000c22 0149cfc0 000031dd ffc02000  ...".I....1... .
 4020d570 222ffa30 2220c020 00226ffa 0c220142  "/.0" . ."o..".B
 4020d580 cfc00000 46010022 a004c5a0 0622a06c  ....F..".....".l
 4020d590 32a00242 a00001fc fa0c5508 000c5602  2..B......U...V.
 4020d5a0 20270c17 c0000051 45d90c72 c1effbc0   '.....QE..r....
 4020d5b0 2000422c d7504420 c0200042 6cd7c020   .B,.PD . .Bl.. 
 4020d5c0 00322cd4 30387537 020bc020 00622cd4  .2,.08u7... .b,.
 4020d5d0 60682556 36ff7cd9 c0200082 2cd49088  `h%V6.|.. ..,...
 4020d5e0 10c02000 826cd40c 22c02000 722cd420  .. ..l..". .r,. 
 4020d5f0 7720c020 00726cd4 0124cfc0 0000c020  w . .rl..$..... 
 4020d600 00b22cd4 0c7ab0b8 75b70a0b c0200002  ..,..z..u.... ..
 4020d610 2cd40008 255630ff 102120d2 61050514  ,...%V0..! .a...
 4020d620 05f2210c 0c0d0c0e 0d01003d 90321300  ..!........=.2..
 4020d630 eae3e0e0 f48c9f21 abff01e9 e3c00000  .......!........
 4020d640 0d011bdd d0d07466 8ddf0c55 0c560c07  ......tf...U.V..
 4020d650 21a6ff42 a0ff3152 fcd1cbfa 8beee0e4  !..B..1R........
 4020d660 f4080d32 036c0220 274033c0 30e2830c  ...2.l. '@3.0...
 4020d670 0422a06c 0c23c000 000197ff 2861c020  .".l.#......(a. 
 4020d680 00322cd4 0c7f3038 75370f0b c0200042  .2,...08u7... .B
 4020d690 2cd44048 255634ff a1dffbc0 2000922c  ,.@H%V4..... ..,
 4020d6a0 d7a09910 c0200092 6cd77ce8 c0200072  ..... ..l.|.. .r
 4020d6b0 2cd88077 10c02000 726cd80c 16c02000  ,..w.. .rl.... .
 4020d6c0 522cd860 5520c020 00526cd8 071248c8  R,.`U . .Rl...H.
 4020d6d0 415186ff 41f8d8c0 200031fd e52223fa  AQ..A... .1.."#.
 4020d6e0 50221040 2220c020 000c340c 750c460c  P".@" . ..4.u.F.
 4020d6f0 07080d22 63fa22a0 62022027 0c13c000  ..."c.".b. '....
 4020d700 00c02000 8187d078 51726844 c0200061  .. ....xQrhD. .a
 4020d710 bfe4c266 86060200 22a00432 a000c59a  ...f...."..2....
 4020d720 06022107 c881d891 2d0ef8b1 e8a112c1  ..!.....-.......
 4020d730 400df000 9d022d05 37290297 a40a0016  @.....-.7)......
 4020d740 400c1300 33a13022 200df000 f40f0000  @...3.0" .......
 4020d750 f0bdfe3f 78bffe3f 0c0512c1 e0f94109  ...?x..?......A.
 4020d760 01d921c9 11d110fc e931cd0d 8bed0c03  ..!......1......
 4020d770 0cc40c06 229c06c5 fbff5d02 2bcce79c  ....".....].+...
 4020d780 ec0c1d01 f2ff7108 fc62a3e4 f2172d6b  ......q..b....-k
 4020d790 c7671f02 079f1c0c c33cc422 0c370c16  .g.......<.".7..
 4020d7a0 80220120 2831c5f8 ff5d0201 e8ff62a3  .". (1...]....b.
 4020d7b0 e471fdfb 6bcc1bdd 665dd502 170a0048  .q..k...f].....H
 4020d7c0 742d0400 0074dd00 a6b40222 c4e0a6c0  t-...t....."....
 4020d7d0 02d2c0c0 7c330cd4 0c2685f5 ff6c531c  ....|3...&...lS.
 4020d7e0 b45d020c 262d0dc5 f4fff1ef fb5d02cd  .]..&-.......]..
 4020d7f0 0fab3f39 51021c0b 0046442d 04000054  ..?9Q....FD-...T
 4020d800 dd00a6b4 0222c4e0 a6c002d2 c0c07c33  ....."........|3
 4020d810 0cd40c36 c5f1ff6c 531cb45d 020c362d  ...6...lS..]..6-
 4020d820 0d05f1ff 5d024851 2bcc479c c7cd0f0c  ....].HQ+.G.....
 4020d830 3342a07c 221c020c 4620d874 20207445  3B.|"...F .t  tE
 4020d840 efff0c33 42a07c5d 020c462d 0d45eeff  ...3B.|]..F-.E..
 4020d850 5d022bcc e79cd7cd 0fe1bdff 32a08042  ].+.........2..B
 4020d860 a180222c 180c5620 d0842029 8445ecff  ..",..V .. ).E..
 4020d870 32a08042 a1805d02 0c562d0d 45ebff5d  2..B..]..V-.E..]
 4020d880 024bcce7 9cd5c811 d821e831 320f5d51  .K.......!.12.]Q
 4020d890 b1fff841 52050080 03010008 31a05511  ...AR.......1.U.
 4020d8a0 50522077 630b0020 60202321 20206086  PR wc.. ` #!  `.
 4020d8b0 00000023 21080100 321112c1 205020f4  ...#!...2... P .
 4020d8c0 3022200d f0000000 12c1e0d9 410921e9  0" .........A.!.
 4020d8d0 51c931f9 61f17ee5 c100ffe1 11d0c020  Q.1.a.~........ 
 4020d8e0 00d22e44 c00d1009 11c74d6d c0200031  ...D......Mm. .1
 4020d8f0 47e45223 86590141 f9fec020 00222386  G.R#.Y.A... ."#.
 4020d900 402220c0 20002263 86c02d20 c020000c  @" . ."c..- . ..
 4020d910 130c340c 750c4601 1cfa0cf7 0800226e  ..4.u.F......."n
 4020d920 44022027 22a062c0 00000117 fa080002  D. '".b.........
 4020d930 2013c000 000c2201 54cec000 0031e8fe   .....".T....1..
 4020d940 c0200022 2ffa3022 20c02000 226ffa0c  . ."/.0" . ."o..
 4020d950 22014dce c0000006 01000c42 85630641  ".M........B.c.A
 4020d960 90fb01e1 fe42046c 52a0ff57 940a85ca  .....B.lR..W....
 4020d970 fe0d0286 00000000 000c7521 fbfac020  ..........u!... 
 4020d980 006222d4 60687567 050bc020 007222d4  .b".`hug... .r".
 4020d990 70782556 37ff711f fbc02000 6222d770  px%V7.q... .b".p
 4020d9a0 6610c020 006262d7 51d4dec0 20004222  f.. .bb.Q... .B"
 4020d9b0 d7504410 c0200042 62d77ce3 c02000b2  .PD.. .Bb.|.. ..
 4020d9c0 22d830bb 10c02000 b262d80c 1ac02000  ".0... ..b.... .
 4020d9d0 9222d8a0 9920c020 009262d8 88110971  ."... . ..b....q
 4020d9e0 c71843c8 0141c1fe 3133d8c0 2000222f  ..C..A..13.. ."/
 4020d9f0 fa402210 302220c0 20000c13 0c340c75  .@".0" . ....4.u
 4020da00 0c4601e1 f90c0708 00226ffa 02202722  .F......."o.. '"
 4020da10 a062c000 00c02000 d26e44c0 200051fb  .b.... ..nD. .Q.
 4020da20 e3c26586 06020022 a00432a0 00c56906  ..e...."..2...i.
 4020da30 222107c8 31d841e8 516821f8 610d0612  "!..1.A.Qh!.a...
 4020da40 c1200df0 0df00000 2093c03b 899089b3  . ...... ..;....
 4020da50 8082211b 889c8831 2fe42078 a03a34c0  ..!....1/. x.:4.
 4020da60 20004802 c0200042 63804b22 4b337792   .H.. .Bc.K"K3w.
 4020da70 ede02811 0df00000 2083c03b 788078b3  ..(..... ..;x.x.
 4020da80 7072211b 779ca7a1 23e44097 a0aa34aa  pr!.w...#.@...4.
 4020da90 49c02000 b22380c0 2000b902 4b334b22  I. ..#.. ...K3K"
 4020daa0 4793ede0 27110df0 20730420 61042050  G...'... s. a. P
 4020dab0 0412c1e0 0931c941 6a55c1b3 f9206204  .....1.AjU... b.
 4020dac0 7a662005 04207604 7a002074 047a006a  zf .. v.z. t.z.j
 4020dad0 005a0030 53240020 740c40f6 52010d02  .Z.0S$. t.@.R...
 4020dae0 0020901c d0502290 20207427 30010d02  . ...P".  t'0...
 4020daf0 0c420050 740c1308 0c4045b0 68140220  .B.Pt....@E.h.. 
 4020db00 2b480460 79847911 40508460 60846921  +H.`y.y.@P.``.i!
 4020db10 59014049 84c00000 4811080c 0c520220  Y.@I....H....R. 
 4020db20 2b0c13c0 00004801 080c0c42 02202b0c  +.....H....B. +.
 4020db30 23c00000 4821080c 0c520220 2b0c23c0  #...H!...R. +.#.
 4020db40 0000c841 083112c1 200df000 a0342340  ...A.1.. ....4#@
 4020db50 70342340 00800000 90342340 40342340  p4#@.....4#@@4#@
 4020db60 ad059d06 12c1b029 d10951f9 91c96139  .......)..Q...a9
 4020db70 f1e981d9 7149a1d1 84f96cf4 ed0731d4  ....qI....l...1.
 4020db80 e4c02000 2223e440 2210c020 001c240c  .. ."#.@".. ..$.
 4020db90 750c060c 07a9b199 e1080d22 63e422a0  u.........."c.".
 4020dba0 77022027 0c03c000 0022a077 0c030c94  w. '.....".w....
 4020dbb0 0c75080d 0c060220 270c07c0 00000c10  .u..... '.......
 4020dbc0 0c5f0c0c 28d1c261 1320f093 f9c148c1  ._..(..a. ....H.
 4020dbd0 32211347 230206a7 00164328 0b631646  2!.G#.....C(.c.F
 4020dbe0 2872c3fe 16372882 c3fd16b8 2a92c3fc  (r...7(.....*...
 4020dbf0 16092b0c 0c0c0aa2 61103221 130c8208  ..+.....a.2!....
 4020dc00 0d0c0f02 203430f2 832d0fc0 00004221  .... 40..-....B!
 4020dc10 13f62413 0c023d0f 42a1f408 0d0cc502  ..$...=.B.......
 4020dc20 203a62c1 10c00000 0c02d157 f932a104   :b........W.2..
 4020dc30 080d4d0c 0220151c 65c00000 2d0c1c63  ..M.. ..e...-..c
 4020dc40 48b145e6 ffacde7d 0c6d0f21 c0ff0c03  H.E....}.m.!....
 4020dc50 1c6aa901 92011042 a1048099 01909831  .j.....B.......1
 4020dc60 99118201 11522110 80880180 88318921  .....R!......1.!
 4020dc70 015ce2c0 0000d144 f9080d02 20100c12  .\.....D.... ...
 4020dc80 c000000c 0f0c1238 f1422110 0c050c06  .......8.B!.....
 4020dc90 69016911 6921080d 0c070220 1a0c06c0  i.i.i!..... ....
 4020dca0 0000080d 0c1208d0 32a400c0 0000c020  ........2...... 
 4020dcb0 00080dc1 87e408c0 c22cf9c0 00008cde  .........,......
 4020dcc0 21a4ffc0 382141a3 ff0145e2 c0000021  !...8!A...E....!
 4020dcd0 79d70221 10c7a210 22c0181b fff0f074  y..!...."......t
 4020dce0 20007402 6110662f 9b022d00 02201b22   .t.a.f/..-.. ."
 4020dcf0 a001c000 00c2a000 0c0f0c0d 0c020c03  ................
 4020dd00 32611122 61120ce2 38f14221 1052c112  2a."a...8.B!.R..
 4020dd10 68e17d0e 454c059c be218fff 3d0c5201  h.}.EL...!..=.R.
 4020dd20 13420112 80550180 44014048 31505831  .B...U..D.@H1PX1
 4020dd30 012ce2c0 0000bc0c 22011201 13f98022  .,......"......"
 4020dd40 01080020 28310800 202dc0c0 0000e622  ... (1.. -....."
 4020dd50 18220113 010df980 22010800 20283108  ."......"... (1.
 4020dd60 00202fc0 c00000a6 22313221 12222111  . /....."12!."!.
 4020dd70 d20112f2 01131bcc c0c07480 ff0180dd  ..........t.....
 4020dd80 01d0d831 f0f8312a 2f3a3d32 61122261  ...1..1*/:=2a."a
 4020dd90 11264c02 86dbff0c 00460000 0c106c13  .&L......F....l.
 4020dda0 564009d2 21120221 112bdd2b 00000221  V@..!..!.+.+...!
 4020ddb0 d0d22180 dd01d0d8 317c1280 f001f0f8  ..!.....1|......
 4020ddc0 310d0227 2d010d0d 0cf27d02 e6b0017d  1..'-.....}....}
 4020ddd0 000d0380 d701d0d8 31372f01 0d0f1cff  ........17/.....
 4020dde0 7d0fe6c0 017d0080 f70108d1 f0f831dc  }....}........1.
 4020ddf0 5038a170 0054d020 44a02211 20002022  P8.p.T. D.". . "
 4020de00 21133022 90025200 8cee5d0f 4d0d2153  !.0"..R...].M.!S
 4020de10 ff322113 01f3e1c0 0000c050 14d1daf8  .2!........P....
 4020de20 32211368 1d1b4340 30743261 13e06611  2!.h..C@0t2a..f.
 4020de30 60552059 1d4665ff 02011322 01128000  `U Y.Fe...."....
 4020de40 01802201 20283100 0831fa00 dad21bdd  ..". (1..1......
 4020de50 1b000001 21d0d121 80dd01d0 d831c6d5  ....!..!.....1..
 4020de60 ff0c0c86 63ff4c0c 4662ffc2 a0600cf2  ....c.L.Fb...`..
 4020de70 226110c6 60ff1c05 c0200041 15e43224  "a..`.... .A..2$
 4020de80 e4503320 c0200032 64e4c861 d871e881  .P3 . .2d..a.q..
 4020de90 f8910851 12c1500d f0c2a070 2c866261  ...Q..P....p,.ba
 4020dea0 104655ff c2a0784c 17726110 8652ff00  .FU...xL.ra..R..
 4020deb0 00352340 3080fe3f 4c741040 12c1c0c9  .5#@0..?Lt.@....
 4020dec0 21d931e9 41f95109 1159a179 91297149  !.1.A.Q..Y.y.)qI
 4020ded0 8122a07f 80430140 48314032 a33961e6  ."...C.@H1@2.9a.
 4020dee0 13024641 000c0c0c 000c0f58 a10b76dd  ..FA.......X..v.
 4020def0 057a5559 b11c83a2 0d00f06c c080e601  .zUY.......l....
 4020df00 e0e83180 aa01a0a8 31a72e3e 80660128  ..1.....1..>.f.(
 4020df10 b1606831 27ad33a0 7074cca7 820d0180  .`h1'.3.pt......
 4020df20 88018088 31872622 d8a11b00 a020742a  ....1.&"..... t*
 4020df30 ff000074 0addf06c c080e601 a20d00e0  ...t...l........
 4020df40 e83180aa 01a0a831 a7aec009 c1372e0d  .1.....1.....7..
 4020df50 62cee80c fe806601 60683186 0a002d0e  b.....f.`h1...-.
 4020df60 0c630198 cec00000 0d020c63 2d0e0010  .c.........c-...
 4020df70 400c1e00 eea10bee e0e0f401 cfffc000  @...............
 4020df80 0008c180 62016068 31a65604 0c568600  ....b.`h1.V..V..
 4020df90 006060f4 09c16901 78919881 88719090  .``...i.x....q..
 4020dfa0 90421900 808c9040 4eb04a46 4040f442  .B.....@N.JF@@.B
 4020dfb0 58009c47 52190021 beff3d0c 6d0e7801  X..GR..!..=.m.x.
 4020dfc0 0188e1c0 000008c1 68010cfa a79e0b66  ........h......f
 4020dfd0 5608b1b8 ffc24b00 c60300e8 611bcc80  V.....K.....a...
 4020dfe0 cc01c0c8 31e0ecc0 569ef0c8 21d831e8  ....1...V...!.1.
 4020dff0 41f85108 1112c140 0df00000 12c1f0c9  A.Q....@........
 4020e000 110901cd 021c7027 201d1c12 c72212e6  ......p' ...."..
 4020e010 ac094c00 e66c130c 00860300 02a06006  ..L..l........`.
 4020e020 020002a0 70860000 02a07821 57f80040  ....p.....x!W..@
 4020e030 f408020c 1302202b 0c32c000 002d0c0c  ...... +.2...-..
 4020e040 63019dff c000000c 230c65d0 4211014e  c.......#.e.B..N
 4020e050 f80c3208 00504420 02202b40 40f4c000  ..2..PD . +@@...
 4020e060 00c81108 0112c110 0df00000 00000300  ................
 4020e070 a00f0000 fffffcff 009e0060 4d0612c1  ...........`M...
 4020e080 a0c9b109 a1298139 61526111 d9c1e9d1  .....).9aRa.....
 4020e090 f9e1ed07 f13df8d1 70f8520f 0849718c  .....=..p.R..Iq.
 4020e0a0 85980339 61909005 56891e41 f0ff3188  ...9a...V..A..1.
 4020e0b0 e3c02000 2223f240 2220c020 002263f2  .. ."#.@" . ."c.
 4020e0c0 c0200008 0fc2a1e0 022028c2 6d1ac000  . ....... (.m...
 4020e0d0 0022a077 0c031c24 080f0c75 0220250c  .".w...$...u. %.
 4020e0e0 06c00000 0c031c84 0c550c56 080f2991  .........U.V..).
 4020e0f0 02202522 a077c000 000c031c 840c550c  . %".w........U.
 4020e100 560c0708 0fcd0202 202722a0 77c00000  V....... '".w...
 4020e110 22a0770c 031c240c 75080f0c 06022027  ".w...$.u..... '
 4020e120 0c07c000 00c26112 168e0d0c 050c0c22  ......a........"
 4020e130 016cf221 1829f1f0 6c906216 000c440d  .l.!.)..l.b...D.
 4020e140 0460a0e4 60240460 870460b6 04607504  .`..`$.`..`..`u.
 4020e150 60990460 38049a33 ba778a33 7a331cd7  `..`8..3.w.3z3..
 4020e160 6063042a 666a3330 3074f653 010d0300  `c.*fj300t.S....
 4020e170 b0745261 13a00024 b0bb9000 bb900d07  .tRa...$........
 4020e180 b0b0f4b7 37010d0b 0030f432 61100003  ....7....0.2a...
 4020e190 40502091 07e25ea0 20b405ff fd21b4ff  @P ...^. ....!..
 4020e1a0 32c11001 f9f742a0 0a022000 52210f02  2.....B... .R!..
 4020e1b0 203b0c06 c0000052 21130c18 32211142   ;.....R!...2!.B
 4020e1c0 91082291 09922110 62910a72 910b6060  .."...!.b..r..``
 4020e1d0 84707084 00194020 20844040 843039b0  .pp...@  .@@.09.
 4020e1e0 70441170 22110088 a1805520 70222060  pD.p".....U p" `
 4020e1f0 44204903 29131bcc c0c074f0 6c90c04e  D I.).....t.l..N
 4020e200 c05654f3 0861f1e0 f70800c2 211207f0  .VT..a......!...
 4020e210 1a28819c 520c020c 83487152 21116201  .(..R....HqR!.b.
 4020e220 64720168 82016c89 014593ff 7d0c4191  dr.h..l..E..}.A.
 4020e230 ffc02000 3127e322 23f24022 10c02000  .. .1'."#.@".. .
 4020e240 1c840c55 0c562263 f2080f22 a0770220  ...U.V"c...".w. 
 4020e250 270c03c0 00007891 22a0770c 031c2408  '.....x.".w...$.
 4020e260 0f0c7502 20270c06 c0000008 0f022032  ..u. '........ 2
 4020e270 c0000008 0f022031 c0000008 0f02202f  ...... 1...... /
 4020e280 c114d6c0 00004861 38040c12 c0332039  ......Ha8....3 9
 4020e290 04224f08 16fe0df2 21186177 ff0c0c28  ."O.....!.aw...(
 4020e2a0 71022111 0c45f0ac 90a21a00 3d05a078  q.!..E......=..x
 4020e2b0 04a09404 a083049a 88a0b604 a09504ba  ................
 4020e2c0 99a0b904 ba77a0b7 04ba77a0 a0e41cdb  .....w....w.....
 4020e2d0 9a778a77 a0802470 7074f657 013d0730  .w.w..$ppt.W.=.0
 4020e2e0 40743d0b 40749080 77907070 f4773b01  @t=.@t..w.pp.w;.
 4020e2f0 3d0730b0 f400bbb0 881bb80b 803984b0  =.0..........9..
 4020e300 70848080 84b0b984 c0200080 bb11f09a  p........ ......
 4020e310 011ce552 6d1aba99 70b14160 5ca0ba99  ...Rm...p.A`\...
 4020e320 c0200099 05c02000 1cfbb26d 1ac02000  . .... ....m.. .
 4020e330 107701a0 33019905 7a332074 90721700  .w..3...z3 t.r..
 4020e340 30881170 70a48077 a07a33c0 200082a1  0..pp..w.z3. ...
 4020e350 e0826d1a c0200039 05c02000 72a1e172  ..m.. .9.. .r..r
 4020e360 6d1ac020 0039051b cc322114 0c45c0c0  m.. .9...2!..E..
 4020e370 74c08ec0 56e8f2c8 b1d8c1e8 d1f8e108  t...V...........
 4020e380 a112c160 0df00000 98741040 12c1c0d9  ...`.....t.@....
 4020e390 c1c9b109 a1cd0221 cee2c020 005222e3  .......!... .R".
 4020e3a0 505921c0 20004222 e0404921 5a44c020  PY!. .B".@I!ZD. 
 4020e3b0 005222e2 505921c0 20000222 e1000921  .R".PY!. .."...!
 4020e3c0 5000c009 31c02000 6222f760 68216901  P...1. .b".`h!i.
 4020e3d0 c0200052 22f85058 215911c0 20002222  . .R".PX!Y.. .""
 4020e3e0 f97ccd52 c3fe000f 31092100 0540d0d3  .|.R....1.!..@..
 4020e3f0 90405f31 2020b129 0c3d052d 040106d5  .@_1  .).=.-....
 4020e400 c0000029 51394158 2148313d 052d0401  ...)Q9AX!H1=.-..
 4020e410 02d5c000 004d0368 5138412a 264a3367  .....M.hQ8A*&J3g
 4020e420 b2011b33 4d0d01d8 ffc00000 291c4801  ...3M.......).H.
 4020e430 68116971 405f3160 6f316961 3d052d04  h.iq@_1`o1ia=.-.
 4020e440 01f6d4c0 00002991 39815861 48713d05  ......).9.XaHq=.
 4020e450 2d0401f1 d4c00000 4d038891 38812a28  -.......M...8.*(
 4020e460 4a3387b2 011b334d 0d01c7ff c0000008  J3....3M........
 4020e470 a1292cd8 c1c8b112 c1400df0 37220227  .),......@..7".'
 4020e480 a4110015 403140f7 0c142833 0044a140  ....@1@...(3.D.@
 4020e490 22202933 0df00000 fd7ffdff 82ae0072  " )3...........r
 4020e4a0 a142316d f7c02000 62235980 66107066  .B1m.. .b#Y.f.pf
 4020e4b0 20c02000 62635951 f8ff0c24 c0200022   . .bcYQ...$. ."
 4020e4c0 23585022 10402220 c0200022 63580df0  #XP".@" . ."cX..
 4020e4d0 12c1e009 112901d9 31e941c9 21ed05c1  .....)..1.A.!...
 4020e4e0 5ef7d120 e5c02000 022c5849 5117e024  ^.. .. ..,XIQ..$
 4020e4f0 2d030165 cbc00000 0124f708 00022019  -..e.....$.... .
 4020e500 2801c000 000851c0 2000222c 5817e213  (.....Q. .",X...
 4020e510 0c020607 00c02000 522d8040 55c057be  ...... .R-.@U.W.
 4020e520 c3c60200 c0200062 2d800066 c067bed6  ..... .b-..f.g..
 4020e530 0c12c821 d831e841 081112c1 200df000  ...!.1.A.... ...
 4020e540 9148fb31 45f7c020 00822342 908810c0  .H.1E.. ..#B....
 4020e550 20008263 420c17c0 20006223 58706620   ..cB... .b#Xpf 
 4020e560 c0200062 63587ce5 c0200042 23585044  . .bcX|.. .B#XPD
 4020e570 10c02000 426358c0 200029b3 0df00000  .. .BcX. .).....
 4020e580 fffff7ff 4135f7c0 20007132 f728b4c0  ....A5.. .q2.(..
 4020e590 20006224 42706620 c0200062 644251f8   .b$Bpf . .bdBQ.
 4020e5a0 ffc02000 38b45033 10c02000 39b40df0  .. .8.P3.. .9...
 4020e5b0 12c1f002 610001f4 f6022000 02201132  ....a..... .. .2
 4020e5c0 a080c000 0005bcfe 22a00008 0112c110  ........".......
 4020e5d0 0df00000 20bdfe3f 6ebdfe3f 65befe3f  .... ..?n..?e..?
 4020e5e0 d0bdfe3f 3171f812 c1c0c261 06d26107  ...?1q.....a..a.
 4020e5f0 e9810951 0803f991 00020556 e00c02c3  ...Q.......V....
 4020e600 f0080002 2028c000 0001dff6 08000220  .... (......... 
 4020e610 300c12c0 0000c127 fe221c01 2020b445  0......'."..  .E
 4020e620 cffd221c 0132c110 0c14c5ed 0201d6f6  .."..2..........
 4020e630 08000860 0c02c000 00d20112 0c0cf1d1  ...`............
 4020e640 fae1e4ff 9c6c261c 0f262c07 663c100c  .....l&..&,.f<..
 4020e650 edc60200 0cbd8601 000c6d46 00000c1d  ..........mF....
 4020e660 f07f2062 a06442a0 0131dcff 51dbff80  .. b.dB..1..Q...
 4020e670 2d012028 315295f5 32038049 1169010c  -. (1R..2..I.i..
 4020e680 046149f8 0590fe4c 022c830c 240c05c0  .aI....L.,..$...
 4020e690 6c906a6e 053e041b ccc0c074 664ca401  l.jn.>.....tfL..
 4020e6a0 baf60800 022032c0 000001b7 f6080002  ..... 2.........
 4020e6b0 2031c000 0001b4f6 08000220 2fc102d5   1......... /...
 4020e6c0 c0000031 b1f62843 c0222029 430c0f01  ...1..(C." )C...
 4020e6d0 c4ff0c33 39a10ced e134f80c 0ceaeff6  ...39....4......
 4020e6e0 6c232d0c 0c53020e 2009d101 d2cac000  l#-..S.. .......
 4020e6f0 003d0242 0e2328d1 01baff20 44c04033  .=.B.#(.... D.@3
 4020e700 823a22c6 13000ca5 c735220c 5322ccfb  .:"......5".S"..
 4020e710 420e2652 0e2359c1 5044c040 228201a9  B.&R.#Y.PD.@"...
 4020e720 ccc00000 68c101ae ff6a22c6 0900220e  ....h....j"...".
 4020e730 290cc7c7 371fc08c a0320e26 39b182c8  )...7....2.&9...
 4020e740 ce3022c0 2028821c 63019ecc c0000098  .0". (..c.......
 4020e750 b101a3ff 9a22d2cd ffc03c90 303f80c2  ....."....<.0?..
 4020e760 cc01c0c0 743a3022 4380561d f748a11b  ....t:0"C.V..H..
 4020e770 fff0f074 0b4449a1 56a4f521 83f62202  ...t.DI.V..!..".
 4020e780 40319efa 80220120 28312022 903a22c5  @1...". (1 ".:".
 4020e790 0dfec861 d871e881 f8910851 12c1400d  ...a.q.....Q..@.
 4020e7a0 f0000000 1c086203 001cc547 a5040cc7  ......b....G....
 4020e7b0 86020047 a80572c4 f0460000 0c077066  ...G..r..F....pf
 4020e7c0 c0624200 7d084728 017d040c 144a921b  .bB.}.G(.}...J..
 4020e7d0 a44a8382 0800a040 747088c0 82490066  .J.....@tp...I.f
 4020e7e0 64ea0df0 a2befe3f 32bdfe3f 38bdfe3f  d......?2..?8..?
 4020e7f0 62a0640c 1412c1d0 e9a10971 f9b1d991  b.d........q....
 4020e800 c981dd03 cd02f1f7 ff802201 20283172  ..........". (1r
 4020e810 cfda529f 5b320f43 49116901 0c0461e2  ..R.[2.CI.i...a.
 4020e820 f74576fe 3176fac0 2c903a22 c503fe42  .Ev.1v..,.:"...B
 4020e830 0fb8cc44 666c0245 f002e1eb ff661d31  ...Dfl.E.....f.1
 4020e840 0c0d0c05 59612d0e 85030368 61dad200  ....Ya-....ha...
 4020e850 dd11d0d0 311b0600 60746961 6646e62b  ....1...`tiafF.+
 4020e860 0d5bdd00 d0b3d0d2 2100dd11 d0d03146  .[......!.....1F
 4020e870 00000c0d 3d0e22c1 104d0d85 f2ff261c  ....=."..M....&.
 4020e880 1222ccfa 16c20b42 ccf50c23 0c304003  .".....B...#.0@.
 4020e890 83860000 02a00031 8ee162af ffd04074  .......1..b...@t
 4020e8a0 d05011e1 c1f70015 4052a0ff e0e090d2  .P......@R......
 4020e8b0 5e060055 a10044a1 605530c0 20002223  ^..U..D.`U0. ."#
 4020e8c0 ff502210 402220c0 200042a0 061cf592  .P".@" . .B.....
 4020e8d0 a1386178 fd71c5ff 2263ff00 c0904c02  .8ax.q.."c....L.
 4020e8e0 32c110f0 cc117a7c 62160199 01820fb9  2.....z|b.......
 4020e8f0 89118534 043124f6 51acf742 03430203  ...4.1$.Q..B.C..
 4020e900 425a5c22 05395205 38802201 4000c04b  BZ\".9R.8.".@..K
 4020e910 00202831 80550150 58315022 c027a009  . (1.U.PX1P".'..
 4020e920 71bae168 43706620 6943c881 d8910871  q..hCpf iC.....q
 4020e930 829e06e8 a1a65804 0c19924f baf8b112  ......X....O....
 4020e940 c1300df0 0c1046d3 ff000000 9fc0fe3f  .0....F........?
 4020e950 c7befe3f 0ebffe3f 12c1c0d9 51e961f9  ...?...?....Q.a.
 4020e960 7139c1c9 410931cd 02458a02 0c0f0c6e  q9..A.1..E.....n
 4020e970 018ef7c0 5ca00b3c 42ccfa49 8139b152  ....\..<B..I.9.R
 4020e980 c5c95921 dd0002c0 f0f67c2d 0c5328b1  ..Y!......|-.S(.
 4020e990 420d3e52 0d3859a1 80440180 55015058  B.>R.8Y..D..U.PX
 4020e9a0 31404831 5044c040 22820106 ccc00000  1@H1PD.@".......
 4020e9b0 58a101f5 f55a22c6 1800f6ac 2d0c5328  X....Z".....-.S(
 4020e9c0 81420d44 520d3e59 91804401 80550150  .B.DR.>Y..D..U.P
 4020e9d0 58314048 315044c0 40228201 facbc000  X1@H1PD.@"......
 4020e9e0 00589101 e9f55a22 860c0022 0d4a62a0  .X....Z"...".Jb.
 4020e9f0 0d802201 202831c7 3623420d 44426101  ..". (1.6#B.DBa.
 4020ea00 80440140 48314042 c0222102 1c634022  .D.@H1@B."!..c@"
 4020ea10 8201eccb c0000058 1101dbf5 5a221bdd  .......X....Z"..
 4020ea20 0bee78c1 62006c7a 7f806601 1bff6068  ..x.b.lz..f...`h
 4020ea30 312a6662 470056fe f421c5ff 91c4ffa8  1*fbG.V..!......
 4020ea40 c1920900 b20a0080 99019098 31ba9992  ............1...
 4020ea50 4a008202 6ca20296 26182826 1a250c05  J...l...&.(&.%..
 4020ea60 d2af806d 0d21bbff 0cd348c1 d2404152  ...m.!....H..@AR
 4020ea70 406285f9 02c841d8 51e861f8 71083112  @b....A.Q.a.q.1.
 4020ea80 c1400df0 b20263e2 0267dc5b b63c0286  .@....c..g.[.<..
 4020ea90 47002145 f722023a 0c1580d2 01d0d831  G.!E.".:.......1
 4020eaa0 c6efffc7 3e61f140 f7d20265 faddd20d  ....>a.@...e....
 4020eab0 38f20268 80dd01d0 d831661f 45c1b2f5  8..h.....1f.E...
 4020eac0 0c53220c 4ec20c48 80220120 283180cc  .S".N..H.". (1..
 4020ead0 01c0c831 c022c020 2e8201ba cbc00000  ...1.". ........
 4020eae0 2a3c8033 0128b130 3831d033 c0302282  *<.3.(.081.3.0".
 4020eaf0 3d0e01b4 cbc00000 01a4f52a dd80dd01  =..........*....
 4020eb00 d0d8310c 1586d6ff 3202660c ff30ffc0  ..1.....2.f..0..
 4020eb10 f72c4af1 25f7d202 64faddd2 0d4a4202  .,J.%...d....JB.
 4020eb20 6880dd01 d0d83166 14d8f200 5480ff01  h.....1f....T...
 4020eb30 f0f831f6 ac2f2194 f50c8322 024ee033  ..1../!....".N.3
 4020eb40 c0802201 20283129 01202fc0 3022820c  ..". (1). /.0"..
 4020eb50 53019ccb c0000008 012a00c6 0a000c05  S........*......
 4020eb60 d2af8006 bfff2188 f50c3322 025ae033  ......!...3".Z.3
 4020eb70 c0802201 202831f0 22c03022 822022a0  ..". (1.".0". ".
 4020eb80 1c630190 cbc00000 2a0f0ce3 80200120  .c......*.... . 
 4020eb90 2831c033 c0d022c0 3022823d 0e0189cb  (1.3..".0".=....
 4020eba0 c0000001 79f52add 80dd01d0 d83146d4  ....y.*......1F.
 4020ebb0 ffb69c08 21fdf622 024686b6 ffd2af80  ....!..".F......
 4020ebc0 0c0546a7 ff000000 5abefe3f 9cc0fe3f  ..F.....Z..?...?
 4020ebd0 12c1d0e2 61072261 09c95109 41f981d9  ....a."a..Q.A...
 4020ebe0 61d169f5 fd02084d c1b3fc00 040556f0  a.i....M......V.
 4020ebf0 09080d02 2028c000 00080d02 20300c12  .... (...... 0..
 4020ec00 c0000022 1c012020 b48570fd 221c013d  ..."..  ..p."..=
 4020ec10 010c1445 8f02080d 08600c02 c00000e2  ...E.....`......
 4020ec20 01020c0c 9c6c261c 0f262c07 663c100c  .....l&..&,.f<..
 4020ec30 eec60200 0cbe8601 000c1e46 00000c6e  ...........F...n
 4020ec40 3d0f2d0e 85baff1b ccc0c074 664cd408  =.-........tfL..
 4020ec50 0d022032 c0000008 0d022031 c0000008  .. 2...... 1....
 4020ec60 0d02202f c197d3c0 0000084d 31d8ff41  .. /.......M1..A
 4020ec70 37ff51d5 ff0c0222 4d6d224d 6c225d30  7.Q...."Mm"Ml"]0
 4020ec80 22458022 44002253 00c00020 094d0606  "E."D."S... .M..
 4020ec90 00103120 42a00022 1d35225c 01858602  ..1 B..".5"\....
 4020eca0 221c013d 01457c02 084db7f0 07220d40  "..=.E|..M...".@
 4020ecb0 8b3145ca ffc851d8 61e871f8 81084112  .1E...Q.a.q...A.
 4020ecc0 c1300df0 2165f5c0 20002222 592024b5  .0..!e.. .""Y $.
 4020ecd0 1b222021 4122d2f8 00221120 20310df0  ." !A"...".  1..
 4020ece0 12c1f009 010128f5 080008a0 c0000052  ......(........R
 4020ecf0 aeac02ae 78072201 0d022d05 0725012d  ....x."...-..%.-
 4020ed00 00080100 22112020 3112c110 0df00000  ....".  1.......
 4020ed10 7cda4151 f5c02000 922458a0 9910c020  |.AQ.. ..$X.... 
 4020ed20 00926458 1ba22b82 a08ab380 812192ae  ..dX..+......!..
 4020ed30 0082d802 808084c0 20007224 59907710  ........ .r$Y.w.
 4020ed40 807720c0 20007264 5961d3fd 0c25c020  .w . .rdYa...%. 
 4020ed50 00322458 60331050 3320c020 00326458  .2$X`3.P3 . .2dX
 4020ed60 0df00000 00f0ffff 02800200 713bf5c0  ............q;..
 4020ed70 20003227 5882a1a0 17e32f20 9024a1f9   .2'X...../ .$..
 4020ed80 ff709911 c0200062 2759a066 10906620  .p... .b'Y.f..f 
 4020ed90 806620c0 20006267 5951f3ff c0200042  .f . .bgYQ... .B
 4020eda0 27585044 20c02000 4267580d f0000000  'XPD . .BgX.....
 4020edb0 01f0ffff 00960060 31feff21 feffc020  .......`1..!... 
 4020edc0 00222289 2020b43a 22202141 00221120  ."".  .:" !A.". 
 4020edd0 20310df0 fff1ffff 98c0fe3f 54bdfe3f   1.........?T..?
 4020ede0 debefe3f 71fcff62 a20012c1 f00901c9  ...?q..b........
 4020edf0 11d92151 19f5dd02 c1e4f4c0 20004225  ..!Q........ .B%
 4020ee00 59704410 604420c0 20004265 590c54c0  YpD.`D . .BeY.T.
 4020ee10 20000225 58000f41 40001026 500a080c   ..%X..A@..&P...
 4020ee20 022019c0 00008605 0001ebff 221000c0  . .........."...
 4020ee30 20004225 5817641d f6921f1b 22225000   .B%X.d.....""P.
 4020ee40 21e7ff42 2c7b9b32 c5bffec8 11d82108  !..B,{.2......!.
 4020ee50 0112c110 0df03931 b6920522 aeb0c602  ......91..."....
 4020ee60 00080c08 a0c00000 383101db ff42ae6c  ........81...B.l
 4020ee70 27a46f52 100062ae 78f69514 72aeac67  '.oR..b.x...r..g
 4020ee80 22016d02 2d076727 012d0600 22112020  ".m.-.g'.-..".  
 4020ee90 3171d3ff 629c3472 078027a6 61604690  1q..b.4r..'.a`F.
 4020eea0 4a2242c2 fe1b2240 24b32022 21006211  J"B..."@$. "!.b.
 4020eeb0 60603162 5c341647 0522ae7c 67a2352a  ``1b\4.G.".|g.5*
 4020eec0 461b2440 24b32021 21002211 20203122  F.$@$. !!.".  1"
 4020eed0 5c1f0609 000c058c 838c6508 0c022016  \.........e... .
 4020eee0 c0000008 0c022019 2d0dc000 0001baff  ...... .-.......
 4020eef0 0c02c6d1 ff2d0662 5c1f0c15 c6f5ff67  .....-.b\......g
 4020ef00 a2b342c6 f047a21b 22c6f486 e7ff229c  ..B..G..".....".
 4020ef10 1f8b5267 250572c2 f877a6b8 2d06625c  ..Rg%.r..w..-.b\
 4020ef20 1f46f5ff 2022902a 2642c2fe 1b224024  .F.. ".*&B..."@$
 4020ef30 b3202221 46ddff00 88bffe3f ffffffbf  . "!F......?....
 4020ef40 8d0212c1 c00951d9 71e981f9 91c961f2  ......Q.q.....a.
 4020ef50 ac00c2a0 c9ed03d1 8cf43d04 42211098  ..........=.B!..
 4020ef60 0d080492 29160005 0556f018 22ae7c69  ....)....V..".|i
 4020ef70 11490189 d139c159 b1c00900 92ae7cc0  .I...9.Y......|.
 4020ef80 2000a1b5 f438daf0 3310c033 20c02000   ....8..3..3 . .
 4020ef90 39dac020 0008da7c e2200010 c0200009  9.. ...|. ... ..
 4020efa0 dac02000 82aeac01 e4ffa22a 580c0bb9  .. ........*X...
 4020efb0 a1925d1f 48a11b54 00649082 56005040  ..].H..T.d..V.P@
 4020efc0 7449a166 44edc020 0091a3f4 38b93921  tI.fD.. ....8.9!
 4020efd0 c0200022 29c82931 c02000f2 29d0f941  . .").)1. ..)..A
 4020efe0 c02000b8 b97cecc0 bb10c020 00b9b9a1  . ...|..... ....
 4020eff0 d3ffc020 008229c8 a08810c0 20008269  ... ..)..... ..i
 4020f000 c8c158e2 0c0779a1 c02000f2 2c804221  ..X...y.. ..,.B!
 4020f010 0a22a00e 4034a042 c4fd32c3 01402393  ."..@4.B..2..@#.
 4020f020 80220120 28310516 fec02000 018bf4d8  .". (1.... .....
 4020f030 a1422058 acde01c0 ff0c0c00 dd904d0f  .B X..........M.
 4020f040 28d138c1 58b18548 ffdc2245 c9ff429d  (.8.X..H.."E..B.
 4020f050 001bcc47 a202225d 00c0c074 c79ede01  ...G.."]...t....
 4020f060 7ef4c140 e2c02000 28d07ce3 302210c0  ~..@.. .(.|.0"..
 4020f070 2000d8a1 29d01bfd f0d074d9 a1664d87   ...).....t..fM.
 4020f080 c0200061 75f48821 89b6c020 00783172  . .au..!... .x1r
 4020f090 66c8c020 00584148 115266d0 bcb401a6  f.. .XAH.Rf.....
 4020f0a0 ff22afd8 0c0999a1 00a211a0 a03138a1  ."...........18.
 4020f0b0 48a10033 901b5450 40743293 0049a1a7  H..3..TP@t2..I..
 4020f0c0 a3012d03 00a21166 44e0312f f4080302  ..-....fD.1/....
 4020f0d0 20162253 1fc00000 06020051 2bf442ae   ."S.......Q+.B.
 4020f0e0 7c42551f a176d298 017127f4 88096297  |BU..v...q'...b.
 4020f0f0 1fa08820 89096257 34460b00 229d1fc0  ... ..bW4F.."...
 4020f100 0900c020 00b154f4 08dbf000 10c00020  ... ..T........ 
 4020f110 c0200009 dbc02000 d8db7cee e0dd10c0  . .... ...|.....
 4020f120 2000d9db c02000b2 2b58c861 d871e881   .... ..+X.a.q..
 4020f130 f8910851 12c1400d f0000000 12c1f0c2  ...Q..@.........
 4020f140 61031031 2020c220 2110f409 21220240  a..1  . !...!".@
 4020f150 4580ff01 0df40c02 5d011b62 5a423204  E.......]..bZB2.
 4020f160 00602074 ca333244 006662ed 21fafd0c  .` t.32D.fb.!...
 4020f170 d34d0162 00415200 62806601 606831c5  .M.b.AR.b.f.`h1.
 4020f180 8802c831 082112c1 100df000 30352340  ...1.!......05#@
 4020f190 7d0212c1 e0390121 fdff0911 c921d931  }....9.!.....!.1
 4020f1a0 cd05dd04 7941010e ddc00000 0841c020  ....yA.......A. 
 4020f1b0 00280dc7 92f72d00 0134c8c0 00000801  .(....-..4......
 4020f1c0 0c542125 f4c02000 32225830 3f414033  .T!%.. .2"X0?A@3
 4020f1d0 10665313 7cd5c020 00422258 504410c0  .fS.|.. .B"XPD..
 4020f1e0 20004262 58460100 c0200062 225871e6   .BbXF... .b"Xq.
 4020f1f0 f3780772 27190020 74c00700 c821d831  .x.r'.. t....!.1
 4020f200 081112c1 200df000 f087fe3f 7abefe3f  .... ......?z..?
 4020f210 ff03fcff 0c0412c1 e0e951d9 410921c9  ..........Q.A.!.
 4020f220 3101faff cd02dd03 0c2231f7 ffe2007d  1........"1....}
 4020f230 3a4480ee 013a2242 14004251 00220200  :D...:"B..BQ."..
 4020f240 e0e83122 41020cd2 e67c230c 534d0042  ..1"A....|#.SM.B
 4020f250 047c0b2c 80440140 48314911 404ec040  .|.,.D.@H1I.@N.@
 4020f260 228201d8 c9c00000 e8112aee 46080032  ".........*.F..2
 4020f270 007e8033 01303831 e033c0c7 a2024642  .~.3.081.3....FB
 4020f280 0022ccfa 2023820c 5301cec9 c000002a  .".. #..S......*
 4020f290 ee661d0a 7cadd241 00d24102 c6080032  .f..|..A..A....2
 4020f2a0 cdfe5693 0b01d9ff 32007f32 41002200  ..V.....2..2A.".
 4020f2b0 80224101 02008102 4102d201 0180dd01  ."A.....A.......
 4020f2c0 d0d831e6 7c2c3201 000b2c80 33013038  ..1.|,2...,.3.08
 4020f2d0 31803301 30383130 3dc03022 820c5301  1.3.0810=.0"..S.
 4020f2e0 b9c9c000 00020100 80000100 08312a00  .............1*.
 4020f2f0 06080002 01020cd2 80000100 0831d000  .............1..
 4020f300 c0c72275 0c5322cc fa202082 01aec9c0  .."u.S"..  .....
 4020f310 0000da02 a1bfff0a 9e41cff3 90907460  .........A....t`
 4020f320 9911c020 008224da a0881090 8820c020  ... ..$...... . 
 4020f330 008264da 0c17c020 0068d470 6620c020  ..d.... .h.pf . 
 4020f340 0069d47c e5c02000 38d45033 10c02000  .i.|.. .8.P3.. .
 4020f350 39d4c831 d841e851 082112c1 200df0a2  9..1.A.Q.!.. ...
 4020f360 cdfd564a f501a9ff 32008232 41002200  ..VJ....2..2A.".
 4020f370 83224101 02008406 cfff0c53 22ccfe20  ."A........S".. 
 4020f380 20820190 c9c00000 86e1ff22 ccfe2023   ..........".. #
 4020f390 820c5301 8cc9c000 0086bcff 12c1f002  ..S.............
 4020f3a0 61030179 f3084029 2127700c 3194f720  a..y..@)!'p.1.. 
 4020f3b0 22903a22 454bfd28 21316ae1 c0200032  ".:"EK.(!1j.. .2
 4020f3c0 239c1763 25202074 3d01c558 ff850104  #..c%  t=..X....
 4020f3d0 0c024562 00216cf3 08020220 1622921f  ..Eb.!l.... ."..
 4020f3e0 c000001c e201a8c7 c0000008 3112c110  ............1...
 4020f3f0 0df00000 86befe3f f487fe3f c05d0000  .......?...?.]..
 4020f400 99994940 9999e940 000000c0 b0741040  ..I@...@.....t.@
 4020f410 b86a1040 12c1b0e9 d1f9e129 71d9c1c9  .j.@.......)q...
 4020f420 b1c1f4ff 09a1020c 5fdd03cc 302c8e46  ........_...0,.F
 4020f430 04006610 041cae46 020032c0 fe1c822c  ..f....F..2....,
 4020f440 8e30e283 2d0d3d0e 019cfac0 0000e692  .0..-.=.........
 4020f450 1a2d0d3d 0e015bc9 c0000020 0e82d000  .-.=..[.... ....
 4020f460 c00000a0 f0201129 61460800 204ec0e6  ..... .)aF.. N..
 4020f470 94172d0d 3d0e0153 c9c00000 1b02000e  ..-.=..S........
 4020f480 82d000c0 0000a046 f6ff0c02 2961320c  .......F....)a2.
 4020f490 7b220c9e 16430839 51f20c7a 8022112a  {"...C.9Q..z.".*
 4020f4a0 ff167f07 2d037c6e d0ee82d0 22c13033  ....-.|n....".03
 4020f4b0 a0f03311 22611032 61123d0f 017ffac0  ..3."a.2a.=.....
 4020f4c0 00000221 12422110 072202c6 54002d04  ...!.B!.."..T.-.
 4020f4d0 3d0f013c c9c00000 0199f5c0 00002921  =..<..........)!
 4020f4e0 2d0f0196 f5c00000 fd022851 01c8ffc0  -.........(Q....
 4020f4f0 00003d02 2d0f018e f5c00000 3d022821  ..=.-.......=.(!
 4020f500 018bf5c0 0000f1bc ff380f01 88f5c000  .........8......
 4020f510 0001bfff c000002a fe860100 0c0f7c6e  .......*......|n
 4020f520 d0ee8202 0c9af261 13161008 0941220c  .......a.....A".
 4020f530 9ff20c99 8022112a ff161f07 3d0fd020  .....".*....=.. 
 4020f540 c1226111 00d0a0f0 dd11015b fac00000  ."a........[....
 4020f550 022111d7 22024648 003d0f2d 000119c9  .!..".FH.=.-....
 4020f560 c0000001 76f5c000 002931d8 412d0f01  ....v....)1.A-..
 4020f570 73f5c000 00fd022d 0d01a4ff c000003d  s......-.......=
 4020f580 02d8312d 0f016af5 c000003d 022d0d01  ..1-..j....=.-..
 4020f590 67f5c000 003198ff 38030164 f5c00000  g....1..8..d....
 4020f5a0 019cffc0 0000f221 132a3e06 0100f221  .......!.*>....!
 4020f5b0 130c0339 f12191ff d21c5001 f3f2dade  ...9.!....P.....
 4020f5c0 08002add 08002d0d c0000001 8cff41ee  ..*...-.......A.
 4020f5d0 f20c0352 a0645722 01dd0332 1c512804  ...R.dW"...2.Q(.
 4020f5e0 3aee0aee 08022d0e c0000038 f1087142  :.....-....8..qB
 4020f5f0 1c3e0b00 00004040 40b10764 0256af15  .>....@@@..d.V..
 4020f600 421c4e00 00404040 b1076402 56d31556  B.N..@@@..d.V..V
 4020f610 fd0b52a0 64572201 0c0ec861 e0ce9346  ..R.dW"....a...F
 4020f620 2c00206f c0072602 064d002d 043d0f01  ,. o..&..M.-.=..
 4020f630 e5c8c000 001b2201 41f5c000 0029012d  ......".A....).-
 4020f640 0f013ef5 c0000029 11285101 70ffc000  ..>....).(Q.p...
 4020f650 003d02f8 01281101 36f5c000 003d022d  .=...(..6....=.-
 4020f660 0f0132f5 c0000031 64ff3803 0130f5c0  ..2....1d.8..0..
 4020f670 00000167 ffc00000 c6a6ff20 4fc0d724  ...g....... O..$
 4020f680 02063800 3d0f2d00 01cfc8c0 00001b22  ..8.=.-........"
 4020f690 012bf5c0 0000dd02 2d0f0128 f5c00000  .+......-..(....
 4020f6a0 fd022841 015affc0 00003d02 2d0f0120  ..(A.Z....=.-.. 
 4020f6b0 f5c00000 3d022d0d 011df5c0 0000314e  ....=.-.......1N
 4020f6c0 ff380301 1af5c000 000151ff c00000c6  .8........Q.....
 4020f6d0 b4ffcd0d e157c90c 0d2d0c01 bceac000  .....W...-......
 4020f6e0 00299139 815146ff 41b7ea01 5ac9c000  .).9.QF.A...Z...
 4020f6f0 005d0e4d 0d0156c9 c0000001 57c9c000  .].M..V.....W...
 4020f700 00388151 40fffd02 41afea28 910151c9  .8.Q@...A..(..Q.
 4020f710 c000004d 0d5d0e01 4ec9c000 00d1a5fd  ...M.]..N.......
 4020f720 014ec9c0 00007138 ff5147d7 f0609450  .N....q8.QG..`.P
 4020f730 5210c066 012d0cc0 2000422d a8704410  R..f.-.. .B-.pD.
 4020f740 60442050 4420c020 00c8b1e8 d1426da8  `D PD . .....Bm.
 4020f750 f8e1d8c1 08a112c1 500df0cd 0fc6dcff  ........P.......
 4020f760 0c0f466f fff22113 0c034691 ffcd0346  ..Fo..!...F....F
 4020f770 d8ff0000 12c1f0c9 210911cc 520c000c  ........!...R...
 4020f780 0c861200 e61202c6 720032a0 64b0c211  ........r.2.d...
 4020f790 2d0c018c c8c00000 0d020ca3 2d0c80c0  -...........-...
 4020f7a0 01c0c831 0188c8c0 00000ca3 01c3f9c0  ...1............
 4020f7b0 0000a622 02067500 0c104604 00c20101  ..."..u...F.....
 4020f7c0 02010080 cc018000 01000831 c0c831e6  ...........1..1.
 4020f7d0 1c050041 21c60100 0b2c0012 400040a1  ...A!....,..@.@.
 4020f7e0 2175fdc0 20004262 b562cc1e 0c050016  !u.. .Bb.b......
 4020f7f0 400030a1 c035b3c0 20003262 a7e61c05  @.0..5.. .2b....
 4020f800 004121c6 01000b7c 00174000 40a1c020  .A!....|..@.@.. 
 4020f810 000c0642 62eca2cc 1e0c0900 1a400080  ...Bb........@..
 4020f820 a1c089b3 c0200082 62a12610 14662004  ..... ..b.&..f .
 4020f830 0c858603 0032c0fd 0cab5d06 305b8346  .....2....].0[.F
 4020f840 00000c25 a6bc0d6c 04404c90 00144000  ...%...l.@L...@.
 4020f850 45a14600 000c04c0 20004262 a37c0ba6  E.F..... .Bb.|..
 4020f860 1c10e6bc 0d7ce770 7c900017 400075a1  .....|.p|...@.u.
 4020f870 c601000c 08507221 c07893c0 20006c1a  .....Pr!.x.. .l.
 4020f880 7262a281 75f2c7ab 10d6dc00 1ce9909c  rb..u...........
 4020f890 90001940 0075a146 00000c07 7c19c020  ...@.u.F....|.. 
 4020f8a0 007268c3 c7aa1097 ac0d3cc3 303c9000  .rh.......<.0<..
 4020f8b0 13400045 a1460000 0c04c020 004268c2  .@.E.F..... .Bh.
 4020f8c0 26101466 20040c40 86030052 c0fd0c54  &..f ..@...R...T
 4020f8d0 5064830d 06460000 0c10a6bc 0d6c0660  Pd...F.......l.`
 4020f8e0 6c900016 400040a1 4600000c 04c02000  l...@.@.F..... .
 4020f8f0 4262efa6 1c10e6bc 0d7ce770 7c900017  Bb.......|.p|...
 4020f900 400050a1 c601000c 08005221 c05893c0  @.P.......R!.X..
 4020f910 20005262 eec7ab10 d6dc001c ebb0bc90   .Rb............
 4020f920 001b4000 50a14600 000c05c0 20005262  ..@.P.F..... .Rb
 4020f930 ebc7aa10 97ac0d3c c3303c90 00134000  .......<.0<...@.
 4020f940 00a14600 000c00c0 2000c821 0262ea08  ..F..... ..!.b..
 4020f950 1112c110 0df0d632 e632a064 b0c2112d  .......2.2.d...-
 4020f960 0c0118c8 c000000d 020ca32d 0c0bc080  ...........-....
 4020f970 cc01c0c8 310113c8 c000000c a3014ef9  ....1.........N.
 4020f980 c000007c 8337a211 0c104690 ff0c30e6  ...|.7....F...0.
 4020f990 8202468e ff0c2006 8dff0c30 7ce447a2  ..F... ....0|.G.
 4020f9a0 02868aff 0c204689 ff000000 12c1f009  ..... F.........
 4020f9b0 010147dd dc221c04 c0200032 20e44033  ..G.."... .2 .@3
 4020f9c0 20c02000 3260e406 04006cf6 c0200052   . .2`....l.. .R
 4020f9d0 20e46055 10c02000 5260e441 ebf18032   .`U.. .R`.A...2
 4020f9e0 01220440 30383180 22012028 314582ff  .".@081.". (1E..
 4020f9f0 080112c1 100df000 12c1f0c2 61010261  ............a..a
 4020fa00 0020c220 859efc2d 0c05faff c8110801  . . ...-........
 4020fa10 12c1100d f0000000 00140000 33bffe3f  ............3..?
 4020fa20 81bc1409 9841c65a ffff00fc 00009001  .....A.Z........
 4020fa30 fffffffb 00000018 ffffff80 ff0ff0ff  ................
 4020fa40 00200200 a60f0000 0000c0ff 54583800  . ..........TX8.
 4020fa50 00ff0ff0 e600200b 3ff0ffdf 400c0020  ...... .?...@.. 
 4020fa60 ffff80ff 00001300 3ff0ffff 800d0000  ........?.......
 4020fa70 000000fc 2401fe03 ffffff0f 000000b0  ....$...........
 4020fa80 00000004 ffff0bff 00002400 ffffbfff  ..........$.....
 4020fa90 ff0f0000 83008000 fff7ffff 90bffe3f  ...............?
 4020faa0 6080fe3f e7befe3f a103f952 af8021db  `..?...?...R..!.
 4020fab0 ff61f1f5 12c1e009 41c951e9 71d961b1  .a......A.Q.q.a.
 4020fac0 d6ffd1bc fce1e4f1 c0200092 2e58b099  ......... ...X..
 4020fad0 20c02000 926e58c0 2000822e 43608820   . ..nX. ...C`. 
 4020fae0 c0200082 6e437183 d6c02000 422ed070  . ..nCq... .B..p
 4020faf0 44106044 20c02000 426ed031 c9ffc020  D.`D . .Bn.1... 
 4020fb00 00326e5b c1c8ffc0 2000c26e 5ab13fc8  .2n[.... ..nZ.?.
 4020fb10 c0200092 2e54b099 10c02000 926e54c0  . ...T.... ..nT.
 4020fb20 200072a1 90822ec6 c0200072 6ec641bf   .r...... .rn.A.
 4020fb30 ff61bdff c0200032 2dbb6033 10403320  .a... .2-.`3.@3 
 4020fb40 c0200032 6dbbc1ba ffc02000 b22de2c0  . .2m..... ..-..
 4020fb50 bb10c020 00b26de2 a20a00a2 caf1c020  ... ..m........ 
 4020fb60 00922e52 509910a0 9920c020 00926e52  ...RP.... . ..nR
 4020fb70 71b1ff81 e4dbc020 00622e4a 80661070  q...... .b.J.f.p
 4020fb80 6620c020 00626e4a 41acffc0 200038de  f . .bnJA... .8.
 4020fb90 403310c0 200039de 2202222c e0076214  @3.. .9.".",..b.
 4020fba0 c02000c2 2e5150cc 1000cc20 c02000c2  . ...QP.... . ..
 4020fbb0 6e51c604 002c63c0 2000222e 51502210  nQ...,c. .".QP".
 4020fbc0 302220c0 2000226e 5102afc0 1c1c6165  0" . ."nQ.....ae
 4020fbd0 dfc02000 b22edc00 bb10c0bb 20c02000  .. ......... . .
 4020fbe0 b26edca1 09fec020 00922da8 a09920c0  .n..... ..-... .
 4020fbf0 2000926d a88191ff 7192ffc0 2000522e   ..m....q... .R.
 4020fc00 59805510 705520c0 2000526e 594155fc  Y.U.pU . .RnYAU.
 4020fc10 318dffc0 2000222e 59402210 302220c0  1... .".Y@".0" .
 4020fc20 2000226e 590188ff c189ffc0 2000b22e   ."nY....... ...
 4020fc30 5700bb10 c0bb20c0 2000b26e 57a184ff  W..... . ..nW...
 4020fc40 9185ffc0 2000822e 54a08810 908820c0  .... ...T..... .
 4020fc50 2000826e 54c02000 52a08072 2ec6c020   ..nT. .R..r... 
 4020fc60 00526ec6 0c44c020 00322ec4 403320c0  .Rn..D. .2..@3 .
 4020fc70 2000326e c42178ff 0179ffc0 2000c22e   .2n.!x..y.. ...
 4020fc80 dc20cc10 00cc20c0 2000c26e dcb174ff  . .... . ..n..t.
 4020fc90 a175ffc0 2000922e c9b09910 a09920c0  .u.. ......... .
 4020fca0 2000926e c98170ff 7171ffc0 2000522e   ..n..p.qq.. .R.
 4020fcb0 56805510 705520c0 2000526e 56416cff  V.U.pU . .RnVAl.
 4020fcc0 316dffc0 2000222e d3402210 302220c0  1m.. ."..@".0" .
 4020fcd0 2000226e d30168ff c169ffc0 2000b22e   ."n..h..i.. ...
 4020fce0 c800bb10 c0bb20c0 2000b26e c8a164ff  ...... . ..n..d.
 4020fcf0 c0200092 2de2a099 20c02000 926de281  . ..-... . ..m..
 4020fd00 61ff7161 ffc02000 52269c80 55107055  a.qa.. .R&..U.pU
 4020fd10 20c02000 52669c41 5dffc020 00322ed1   . .Rf.A].. .2..
 4020fd20 403310c0 2000326e d10c0205 c8ffc116  @3.. .2n........
 4020fd30 f1080c08 300c02c0 0000a2af cf2c0931  ....0........,.1
 4020fd40 64dc6132 db0152ff c0200082 2d8ea088  d.a2..R.. ..-...
 4020fd50 10908820 c0200082 6d8ec020 00514dff  ... . ..m.. .QM.
 4020fd60 722e92c0 2000526e 920c64c0 2000222e  r... .Rn..d. .".
 4020fd70 93402220 c0200022 6e93c020 00026ec7  .@" . ."n.. ..n.
 4020fd80 c02000b2 2ec700bb 20c02000 b26ec7a1  . ...... . ..n..
 4020fd90 42ffc020 0098aea0 9910c020 0099ae7c  B.. ....... ...|
 4020fda0 980c27c0 20005226 89805510 705520c0  ..'. .R&..U.pU .
 4020fdb0 20005266 897ce4c0 20002223 f0402210   .Rf.|.. ."#.@".
 4020fdc0 c0200008 0c022028 2263f0c0 00000c12  . .... ("c......
 4020fdd0 080c0c13 02202b0c c4c00000 0c22080c  ..... +......"..
 4020fde0 0c130220 2b42a184 c000000c 32080c0c  ... +B......2...
 4020fdf0 2302202b 0c64c000 00080c02 202fc000  #. +.d...... /..
 4020fe00 00284ce1 26ffb7f2 112d0e32 a07f4124  .(L.&....-.2..A$
 4020fe10 ff5124ff 1c060c07 050afe0c 120c0842  .Q$............B
 4020fe20 2c783161 f27123f8 52c36062 c3167207  ,x1a.q#.R.`b..r.
 4020fe30 00e90189 11892189 311b7770 7074c523  ......!.1.wppt.#
 4020fe40 fe0c1e81 f6fe980c 82082292 29270768  ..........".)'.h
 4020fe50 2822a077 0c031c24 0c750c06 72a0d8c0  (".w...$.u..r...
 4020fe60 090022a0 770c031c 840c1508 0c0c1602  ..".w...........
 4020fe70 20270c17 c0000006 040022a0 770c031c   '........".w...
 4020fe80 240c750c 0672a0e8 c00900c0 2000222d  $.u..r...... ."-
 4020fe90 98e02220 c02000c8 51226d98 e871d861  .." . ..Q"m..q.a
 4020fea0 084112c1 200df000 12c1f002 61004507  .A.. .......a.E.
 4020feb0 0522a064 01f5c4c0 00000221 0012c110  .".d.......!....
 4020fec0 80000000 ffff1ff0 ffffff1f ff3fe0ff  .............?..
 4020fed0 00401f00 ffff00ff 0000ab00 ff00ffff  .@..............
 4020fee0 b1f9ffa1 7ff531fa dbc02000 2223e6b0  ......1... ."#..
 4020fef0 2210a022 20c02000 2263e6c0 20009223  ".." . ."c.. ..#
 4020ff00 e7b09910 a09920c0 20009263 e781eeff  ...... . ..c....
 4020ff10 713efdc0 20006223 e5806610 706620c0  q>.. .b#..f.pf .
 4020ff20 20006263 e551e9ff 41eaffc0 20002223   .bc.Q..A... ."#
 4020ff30 e6502210 402220c0 20002263 e6b1e5ff  .P".@" . ."c....
 4020ff40 a1e6ffc0 20009223 e8b09910 a09920c0  .... ..#...... .
 4020ff50 20009263 e881e1ff 72a100c0 20006223   ..c....r... .b#
 4020ff60 f2806610 706620c0 20006263 f252af80  ..f.pf . .bc.R..
 4020ff70 4c74c020 002223e6 50221040 2220c020  Lt. ."#.P".@" . 
 4020ff80 002263e6 0df00000 9bbefe3f ff0fffff  ."c........?....
 4020ff90 00000e01 00000d01 0000de03 0000ed03  ................
 4020ffa0 12c1f041 f9ff0901 22048201 5dc66622  ...A...."...].f"
 4020ffb0 1752a069 62af94c0 20003220 68603310  .R.ib... .2 h`3.
 4020ffc0 503320c0 20003260 68320483 26130266  P3 . .2`h2..&..f
 4020ffd0 332a0c1a b2afbcc0 20009220 68b09910  3*...... .. h...
 4020ffe0 a09920c0 20009260 687ce8c0 20007220  .. . ..`h|.. .r 
 4020fff0 5d807710 c0200072 605d3204 8352aeff  ].w.. .r`]2..R..
 40210000 26230266 332bc020 002145c6 02228d32  &#.f3+. .!E..".2
 40210010 aeff3000 10c02000 0c030c04 02628d0c  ..0... ......b..
 40210020 150c0201 58dec000 00013dc6 41d7ff52  ....X.....=.A..R
 40210030 aeff3204 7c261311 c0200062 208d5066  ..2.|&... .b .Pf
 40210040 10c02000 62608d32 047c6623 1182a100  .. .b`.2.|f#....
 40210050 c0200072 20858077 20c02000 72608562  . .r ..w . .r`.b
 40210060 aecf3204 813c0766 1314c020 00922086  ..2..<.f... .. .
 40210070 60991070 9920c020 00926086 460d0066  `..p. . ..`.F..f
 40210080 2311c020 00a2208e 50aa10c0 2000a260  #.. .. .P... ..`
 40210090 8e060800 c0200022 20866022 10702220  ..... ." .`".p" 
 402100a0 c0200022 6086c020 00b2208e 50bb10c0  . ."`.. .. .P...
 402100b0 2000b260 8e32047e 2c082613 26263323   ..`.2.~,.&.&&3#
 402100c0 26432026 531d3204 8052c3fd 562510c0  &C &S.2..R..V%..
 402100d0 20007220 8d607710 807720c0 20007260   .r .`w..w . .r`
 402100e0 8dc62a00 517bdb0c 090ba316 ba0fb2c3  ..*.Q{..........
 402100f0 fc165b0f 22c3fd16 7215a2c3 fb161a15  ..[."...r.......
 40210100 32ae0fc0 20005220 82305510 705520c0  2... .R .0U.pU .
 40210110 20005260 82c02000 22208330 22107022   .R`.. ." .0".p"
 40210120 20c02000 226083b2 047fb62b 26c02000   . ."`.....+&. .
 40210130 92208560 99108099 20c02000 926085c0  . .`.... . ..`..
 40210140 20007220 8d607710 807720c0 20007260   .r .`w..w . .r`
 40210150 8d060800 c02000b2 208560bb 1070bb20  ..... .. .`..p. 
 40210160 c02000b2 6085c020 00a2208d 60aa10c0  . ..`.. .. .`...
 40210170 2000a260 8d32047e 66130206 23006633   ..`.2.~f...#.f3
 40210180 02862100 02c3fc16 f00d22c3 fb16920d  ..!.......".....
 40210190 017eff41 f5f00200 7d317cff 66101551  .~.A....}1|.f..Q
 402101a0 a3dcc020 00281430 22105022 20c02000  ... .(.0".P" . .
 402101b0 29144605 00662012 61bccfc0 20005814  ).F..f .a... .X.
 402101c0 30551060 5520c020 00591408 0112c110  0U.`U . .Y......
 402101d0 0df06623 bac02000 72208560 77108077  ..f#.. .r .`w..w
 402101e0 20c02000 72608546 e9ff3204 7fa2c3fd   . .r`.F..2.....
 402101f0 16fa0cb2 c3fb169b 0cf62302 462c0021  ..........#.F,.!
 40210200 64ffc020 00226540 06bdff32 047f6613  d.. ."e@...2..f.
 40210210 1e0c120c 030c140c 0501dadd c000000c  ................
 40210220 020c830c 840c0501 d7ddc000 00c6d7ff  ................
 40210230 56c3f50c 020c130c 140c0501 d2ddc000  V...............
 40210240 000c820c 030c840c 0501cedd c0000046  ...............F
 40210250 cfff3204 7f263376 265373b6 235b314d  ..2..&3v&Ss.#[1M
 40210260 ffc02000 32654046 a5ff3204 7f66131e  .. .2e@F..2..f..
 40210270 0c020c13 0c140c05 01c3ddc0 00000c82  ................
 40210280 0c030c84 0c0501bf ddc00000 06c0ff56  ...............V
 40210290 d3ef0c12 0c030c14 0c0501ba ddc00000  ................
 402102a0 0c020c83 0c840c05 01b7ddc0 000086b7  ................
 402102b0 ffc02000 92654046 91ffc020 00926540  .. ..e@F... ..e@
 402102c0 068fff91 35ffc020 00926540 068cffa1  ....5.. ..e@....
 402102d0 33ffc020 00a26540 0689ff00 ddbefe3f  3.. ..e@.......?
 402102e0 803fe00f ffffcfff 12c1f009 0101fbff  .?..............
 402102f0 22008056 620801a4 ef22a066 08000c33  "..Vb....".f...3
 40210300 0220240c 14c00000 31a0ef22 639c21f0  . $.....1.."c.!.
 40210310 dac02000 5222e552 639dc020 004222e6  .. .R".Rc.. .B".
 40210320 42639ec0 20000c14 0c550c06 3cc72222  Bc.. ....U..<.""
 40210330 e722639f 080322a0 66022027 0c33c000  ."c...".f. '.3..
 40210340 0001e6ff 21e7ffc0 200071e1 dab227e7  ....!... .q...'.
 40210350 20bb20c0 2000b267 e7a1c7fd c0200092   . . ..g..... ..
 40210360 27e6a099 20c02000 9267e681 deffc020  '... . ..g..... 
 40210370 006227e5 806610c0 20006267 e50c1332  .b'..f.. .bg...2
 40210380 40800801 12c1100d f0000000 e0befe3f  @..............?
 40210390 12c1f009 0101fdff 22007d66 123822a0  ........".}f.8".
 402103a0 660c3301 79ef0c14 080051f8 ff022026  f.3.y.....Q... &
 402103b0 520580c0 000001f5 ff31c5da 522021c0  R........1..R !.
 402103c0 20005263 e5422022 c0200042 63e62220   .Rc.B ". .Bc." 
 402103d0 23c02000 2263e70c 0662407d 080112c1  #. ."c...b@}....
 402103e0 100df000 12c1f009 01661205 85efff86  .........f......
 402103f0 0000c5f9 ff080112 c1100df0 bcbefe3f  ...............?
 40210400 00780000 12c1e002 6104c951 2180d9c1  .x......a..Q!...
 40210410 5eefc020 00422297 c0200032 2296c020  ^.. .B".. .2".. 
 40210420 00104840 0c130c74 0c350c26 0c07080c  ..H@...t.5.&....
 40210430 22229702 202722a0 61c00000 05aaff22  "".. '".a......"
 40210440 a0770c03 1c040c05 080c0c06 0220270c  .w........... '.
 40210450 17c00000 45b70131 d4f02d03 4b3385f4  ....E..1..-.K3..
 40210460 00484c67 f40e0c02 0534fc71 93cd684c  .HLg.....4.q..hL
 40210470 70662069 4cc516fe 81e1ff82 08868c68  pf iL..........h
 40210480 0c02c574 fe060100 0c124574 fe4c050c  ...t......Et.L..
 40210490 070c060c 190c0a41 87f621c3 f0820c5f  .......A..!...._
 402104a0 32c21480 88014214 01a90199 11808831  2.....B........1
 402104b0 82c81f80 88018088 318068b3 606074c5  ........1.h.``t.
 402104c0 8901984c b7f9040c 62c5cbfc 855dff0c  ...L....b....]..
 402104d0 220124dd c02000b2 209c20bb 20c02000  ".$.. .. . . . .
 402104e0 0c120c73 0c5451c6 ff0c160c 07b2609c  ...s.TQ.......`.
 402104f0 a1aef0a9 0185a4fe 05130238 4cb77327  ...........8L.s'
 40210500 455bfc62 abff5118 f0c02000 4225d060  E[.b..Q... .B%.`
 40210510 4410c020 004265d0 0c02c54d ff080c02  D.. .Be....M....
 40210520 2016229c 1fc00000 85b300c1 b4ff220c   ."...........".
 40210530 86320c87 420c8845 f5fc020c 77261014  .2..B..E....w&..
 40210540 26201122 a000c5e9 ff22a000 c8510841  & ."....."...Q.A
 40210550 12c1200d f00c12c5 e8ffc6fa ff000000  .. .............
 40210560 2cbffe3f 04bdfe3f 60bdfe3f 12c1d0c9  ,..?...?`..?....
 40210570 71e991d9 810961d1 faff0c00 0941322d  q.....a......A2-
 40210580 11220d23 1b33326d 11379207 0c1e026d  .".#.32m.7.....m
 40210590 11860000 00e020e2 4d2e22c1 1031f1ff  ...... .M."..1..
 402105a0 45e000c1 f9ee16ee 07420d16 56840722  E........B..V.."
 402105b0 a07732a0 0042a00f 0c150c16 e20c4008  .w2..B........@.
 402105c0 0c80ee01 022025e0 e831c000 000c030c  ..... %..1......
 402105d0 f40c150c 160c1708 0c295102 202722a0  .........)Q. '".
 402105e0 77c00000 419bd338 4c0c1240 3310394c  w...A..8L..@3.9L
 402105f0 c55dfe98 0c520d30 9229279c 1522a077  .]...R.0.)'..".w
 40210600 0c030cf4 0c150c16 0c17c009 00860400  ................
 40210610 22a07732 a00042a0 0f52a001 0c167851  ".w2..B..R....xQ
 40210620 c009002d 0e05b6fc 0c0232c1 10811bfd  ...-......2.....
 40210630 422c780c 0951ccff 711ff662 c5b67207  B,x..Q..q..b..r.
 40210640 00991199 21993189 011b7770 7074c5a2  ....!.1...wppt..
 40210650 fd2155f0 0c0432c2 53c53efd 4d0221df  .!U...2.S.>.M.!.
 40210660 f9426c7b 9b32053e fdc871d8 81e89108  .Bl{.2.>..q.....
 40210670 6112c130 0df00000 12c1f009 1121e3d8  a..0.........!..
 40210680 c0200042 22854901 7ce3c020 00022285  . .B".I.|.. ..".
 40210690 300010c0 20000262 855c0201 77dcc000  0... ..b.\..w...
 402106a0 000c1201 f9c2c000 000c877c 3861aeef  ...........|8a..
 402106b0 c0200052 26d08055 10705520 c0200052  . .R&..U.pU . .R
 402106c0 66d022a3 e801f0c2 c000000c 4bc02000  f.".........K. .
 402106d0 a1a6ef92 2ad07c30 009910b0 9920c020  ....*.|0..... . 
 402106e0 00926ad0 0c1201e8 c2c00000 c0200031  ..j.......... .1
 402106f0 c7d82801 22638507 620822a0 a0015edc  ..(."c..b."...^.
 40210700 c0000008 1112c110 0df00000 dfbefe3f  ...............?
 40210710 12c1f009 1101fdff 0c063200 95520069  ..........2..R.i
 40210720 cc630c14 42409546 0c002261 00624095  .c..B@.F.."a.b@.
 40210730 17e52822 a0040586 0301f4ff 72009656  ..("........r..V
 40210740 570045f3 ff01f1ff 22210082 a0008240  W.E....."!.....@
 40210750 9685e1ff 22a0040c 03059703 081112c1  ...."...........
 40210760 100df000 e8befe3f eabefe3f ecbefe3f  .......?...?...?
 40210770 0c06a10b f0420200 5d0a92ca c0424a00  .....B..]....BJ.
 40210780 320201fb 7a303104 324a022a 861b6682  2...z01.2J.*..f.
 40210790 08028245 031b5577 95f05d0a 81c2fc0c  ...E..Uw..].....
 402107a0 062a361b 551b6642 03114245 11720314  .*6.U.fB..BE.r..
 402107b0 80b4017a 44424514 320317b0 b8313abb  ...zDBE.2....1:.
 402107c0 b2451787 95da5d0a 71e7ff0c 080c06b2  .E....].q.......
 402107d0 021ab249 5c42021b 42495d2a 4632021c  ...I\B..BI]*F2..
 402107e0 b2021d30 30548033 1130bb20 b2592f1b  ...00T.3.0. .Y/.
 402107f0 6642041e 42452080 34013038 31e66302  fB..BE .4.081.c.
 40210800 77640282 45202a46 1b557795 e15d0a71  wd..E *F.Uw..].q
 40210810 d6ff0c06 2a861b66 82082282 45241b55  ....*..f..".E$.U
 40210820 7795f05d 0a71d1ff 0c062aa6 1b66a20a  w..].q....*..f..
 40210830 28a2452a 1b557795 f00c5532 02303249  (.E*.Uw...U2.02I
 40210840 41b20231 b24973a2 0232a249 74820233  A..1.Is..2.It..3
 40210850 82497572 02347249 76620235 62497742  .Iur.4rIvb.5bIwB
 40210860 02364249 78320237 324979b2 0238b249  .6BIx2.72Iy..8.I
 40210870 7aa20240 a2497b82 02418249 7c720242  z..@.I{..A.I|r.B
 40210880 62024370 70548077 11706620 62593f42  b.CppT.w.pf bY?B
 40210890 02444249 80320245 324981b2 0247a202  .DBI.2.E2I...G..
 402108a0 4680bb01 80aa01a0 a831b0b8 3180bb11  F........1..1...
 402108b0 b0aa20a2 59418202 49720248 80880180  .. .YA..Ir.H....
 402108c0 77017078 31808831 80881180 77207259  w.px1..1....w rY
 402108d0 4262024a 62498642 024b6d05 40403442  Bb.JbI.B.Km.@@4B
 402108e0 4988f664 016d0462 49888202 4b808424  I..d.m.bI...K..$
 402108f0 82498a72 024b7077 0472498c 62024c60  .I.r.Kpw.rI.b.L`
 40210900 60346249 87673501 5d065249 8762024c  `4bI.g5.].RI.b.L
 40210910 60642462 49894202 4c404704 42498b32  `d$bI.B.L@G.BI.2
 40210920 024d3030 3432498e b2024db0 b434b249  .M0042I...M..4.I
 40210930 8da2024e a2498f82 024f8249 90720250  ...N.I...O.I.r.P
 40210940 72499162 02516249 92420252 42499332  rI.b.QbI.B.RBI.2
 40210950 02533249 94b20254 b249950c 1ba20255  .S2I...T.I.....U
 40210960 a2499682 02568249 97720257 72499862  .I...V.I.r.WrI.b
 40210970 02586249 99420259 42499a32 025a3249  .XbI.B.YBI.2.Z2I
 40210980 9ba2025b b2499da2 499c8202 5d82499e  ...[.I..I...].I.
 40210990 72025e72 499f6202 5f6249a0 42026042  r.^rI.b._bI.B.`B
 402109a0 49a13202 613249a2 b20262b2 49a3a202  I.2.a2I...b.I...
 402109b0 63a249a4 82026482 49a57202 657249a6  c.I...d.I.r.erI.
 402109c0 62026662 49a74202 674249a8 32026832  b.fbI.B.gBI.2.h2
 402109d0 49a9b202 69b249aa a2026aa2 49ab8202  I...i.I...j.I...
 402109e0 6b8249ac 72026c72 49ad6202 6d6249ae  k.I.r.lrI.b.mbI.
 402109f0 42026e42 49af3202 6f3249b0 b20270b2  B.nBI.2.o2I...p.
 40210a00 49b1a202 71a249b2 0c020df0 70008000  I...q.I.....p...
 40210a10 12c1f002 6102c261 037cf2c1 c1c301da  ....a..a.|......
 40210a20 edc02000 0c230c84 0c050800 226c4902  .. ..#......"lI.
 40210a30 202622a0 6ac00000 0c02c020 00226c43   &".j...... ."lC
 40210a40 0c3205d2 02c02000 0c07726c 50c02000  .2.... ...rlP. .
 40210a50 726c517c e6c02000 522c6a60 5510c020  rlQ|.. .R,j`U.. 
 40210a60 00526c6a c0200042 2c404911 31e8ffc0  .Rlj. .B,@I.1...
 40210a70 2000326c 400c820c 0345e102 9111ccc0   .2l@....E......
 40210a80 2000822c 4201d5f6 90882002 00808901   ..,B..... .....
 40210a90 66102c22 a06701bc ed0c4308 000c1402  f.,".g....C.....
 40210aa0 202652a0 88c00000 22a06701 b7ed0c43   &R.....".g....C
 40210ab0 08000c24 02202652 a091c000 00460700  ...$. &R.....F..
 40210ac0 66201a22 a06732a0 0442a002 01afed52  f .".g2..B.....R
 40210ad0 a0070800 0c560220 270c27c0 0000c020  .....V. '.'.... 
 40210ae0 00280122 6c420c12 451003c0 20003811  .(."lB..E... .8.
 40210af0 0821326c 40c83112 c1100df0 97befe3f  .!2l@.1........?
 40210b00 12c1f009 0105dc02 01fdff32 004e0200  ...........2.N..
 40210b10 b29c4366 100885ef ff060300 000000cc  ..Cf............
 40210b20 60261204 8c1285ee ff080112 c1100df0  `&..............
 40210b30 143a0040 a4380040 12c1f009 0101a7f6  .:.@.8.@........
 40210b40 2192ed02 00802842 bc80b7f2 3605ecff  !.....(B....6...
 40210b50 01e0d8c0 20003220 46277327 c0200042  .... .2 F's'. .B
 40210b60 2046404d 2566241b 516ec3c0 20005225   F@M%f$.Qn.. .R%
 40210b70 8887650f 0c1201ee ffc00000 0c1201ed  ..e.............
 40210b80 ffc00000 080112c1 100df000 9abefe3f  ...............?
 40210b90 01010101 04040404 04010104 01040401  ................
 40210ba0 ffc3ffff 00080000 01010104 04040401  ................
 40210bb0 71f7ff31 a9ed4207 7f51f5ff 26146826  q..1..B..Q..&.h&
 40210bc0 346561f4 ff264471 26546e42 07816624  4ea..&Dq&TnB..f$
 40210bd0 1121f1ff c0200022 63d8c020 006263d9  .!... ."c.. .bc.
 40210be0 46040066 340e41ed ffc02000 4263d8c0  F..f4.A... .Bc..
 40210bf0 20005263 d9a1afcb c0200092 2340a099   .Rc..... ..#@..
 40210c00 20c02000 92634081 e6ff71e6 ffc02000   . ..c@...q... .
 40210c10 62234280 66107066 20c02000 6263420c  b#B.f.pf . .bcB.
 40210c20 25c02000 59a30df0 c0200052 63d8b1de  %. .Y.... .Rc...
 40210c30 ffc02000 b263d986 eeffc020 006263d8  .. ..c..... .bc.
 40210c40 21dbffc0 20002263 d906eaff 3480fe3f  !... ."c....4..?
 40210c50 00000066 ffff70fc a81f1040 21fcff12  ...f..p....@!...
 40210c60 c1f00901 01fdffc0 000021f9 ff312cc3  ..........!..1,.
 40210c70 0146edc0 20000c34 0c750c46 0c070800  .F.. ..4.u.F....
 40210c80 22634422 a0620220 270c13c0 000041f1  "cD".b. '.....A.
 40210c90 ff315ed7 c0200022 23864022 10c02000  .1^.. ."#.@".. .
 40210ca0 0c040139 ed2c5508 00226386 22a06a02  ...9.,U.."c.".j.
 40210cb0 20260c23 c0000008 0112c110 0df00000   &.#............
 40210cc0 780e0060 6194d70c 0571fdff c0200032  x..`a....q... .2
 40210cd0 26804b66 50532077 96f1418e d78ce2c0  &.KfPS w..A.....
 40210ce0 20002224 9e0c1620 25c02026 930df0c0   ."$... %. &....
 40210cf0 20005264 9e0c020d f0000000 4186d7c0   .Rd........A...
 40210d00 20003224 9ec02000 62249800 52116033   .2$.. .b$..R.`3
 40210d10 206060f4 60552050 3320c020 00526498   ``.`U P3 . .Rd.
 40210d20 c0200032 649e0df0 12c1f009 01004211  . .2d.........B.
 40210d30 3179d7c0 20000223 980000f4 400020c0  1y.. ..#....@. .
 40210d40 20000c02 026398c5 f7ff0801 12c1100d   ....c..........
 40210d50 f0000000 ecc82040 38302140 682e2140  ...... @80!@h.!@
 40210d60 68282140 60c22040 40c52040 c4ec2040  h(!@`. @@. @.. @
 40210d70 10ed2040 6ced2040 c4272140 4cca2040  .. @l. @.'!@L. @
 40210d80 44da2040 0c741040 9ac0fe3f 80352340  D. @.t.@...?.5#@
 40210d90 5dbdfe3f a0352340 00006401 086b0040  ]..?.5#@..d..k.@
 40210da0 881f1040 12c1e0c9 31d941f9 610921e9  ...@....1.A.a.!.
 40210db0 510c15ed 0221eced c0200042 22d25044  Q....!... .B".PD
 40210dc0 20c02000 4262d27c e3c02000 0222d230   . .Bb.|.. ..".0
 40210dd0 0010c020 000262d2 01f1ffc0 0000d1de  ... ..b.........
 40210de0 fff1dcff 61e3ff41 e4ff31e4 ff01e4ff  ....a..A..1.....
 40210df0 51e1ff71 deff81dc ff91daff a1d9ffc1  Q..q............
 40210e00 e2ecb1d6 ff290cb2 6212a262 3a926228  .....)..b..b:.b(
 40210e10 82622279 a2526219 02621ec2 dc023262  .b"y.Rb..b....2b
 40210e20 36499262 6216f262 1fd26243 d1d7fff1  6I.bb..b..bC....
 40210e30 d5ff620d 00f2621d dc262d0e 0593ff29  ..b...b..&-....)
 40210e40 010ce009 11220c18 224c8646 040031ce  .....".."L.F..1.
 40210e50 ec0c0432 03404901 80330130 38313911  ...2.@I..3.0819.
 40210e60 0c00420c 6561aec2 27640e52 0c668055  ..B.ea..'d.R.f.U
 40210e70 01505831 d0551152 5c34c020 00622645  .PX1.U.R\4. .b&E
 40210e80 e125d760 60246626 07820d00 0c178007  .%.``$f&........
 40210e90 83024c87 009074bc a9c02000 f22e980c  ..L...t... .....
 40210ea0 12f0f075 c5e1ff22 4c888c92 21b8ff01  ...u..."L...!...
 40210eb0 ccd5c000 000c0f52 cffc0c02 62cffe0c  .......R....b...
 40210ec0 030b7f0c 140c0070 04836034 83502483  .......p..`4.P$.
 40210ed0 29714602 000c030c 000c0f0c 08897192  )qF...........q.
 40210ee0 0d000c04 ec19a20c 8716da13 520c6116  ............R.a.
 40210ef0 9516c020 00d22e98 d0d0f4d0 b5c0562b  ... ..........V+
 40210f00 14424c89 0c0d8648 00dd0416 40110c00  .BL....H....@...
 40210f10 31a0ff02 4c8952c3 f642c3a3 9cd0020c  1...L.R..B......
 40210f20 88dc802d 043d050c 04c5b4fc 4d022196  ...-.=......M.!.
 40210f30 ec3197ff 42627b22 c264c5b3 fc85bfff  .1..Bb{".d......
 40210f40 c5c6ffc5 05ff8544 ff38718c 43c5d0ff  .......D.8q.C...
 40210f50 06020021 3eff0192 ffc00000 420c878c  ...!>.......B...
 40210f60 e45d0f4d 0d218bff 320c8901 9dd5c000  .].M.!..2.......
 40210f70 00d185ff 0185ec52 0d000840 66150db7  .......R...@f...
 40210f80 f02e2811 0520fc86 09000000 000c0421  ..(.. .........!
 40210f90 06ee51b4 f032c253 50502059 0285aafc  ..Q..2.SPP Y....
 40210fa0 617aec4d 0222667b 32c66d22 c66485a9  az.M."f{2.m".d..
 40210fb0 fc9179ff c0200082 2e9f8080 f4908820  ..y.. ......... 
 40210fc0 c0200082 6e9f720c 4d662740 e20c4c92  . ..n.r.Mf'@..L.
 40210fd0 0c5af20c 5db20c4a a20c4980 bb11b0aa  .Z..]..J..I.....
 40210fe0 20b20c5b 80ff0180 bb11b099 20b20c4b   ..[........ ..K
 40210ff0 80ee0100 bb11e0bb 20e20c5c b0aa2000  ........ ..\.. .
 40211000 ee11f0ee 20e09920 c0200099 0a280108  .... .. . ...(..
 40211010 21c8310c 1ef861e2 4d00d841 e85112c1  !.1...a.M..A.Q..
 40211020 200df0ac a30c1046 b9ffdd04 5173ccc0   ......F....Qs..
 40211030 2000222e 98502210 d02220c0 2000226e   ."..P".." . ."n
 40211040 9886b1ff 1bdd0c12 224c89d0 d0f486f6  ........"L......
 40211050 ff387102 0c893004 93c6acff 0c1d86f2  .8q...0.........
 40211060 ff000000 9149ec12 c1f0619c fc090102  .....I....a.....
 40211070 06653206 9c980922 067f9229 27302220  .e2...."...)'0" 
 40211080 20002000 00749c10 22a0770c 030cf40c   . ..t..".w.....
 40211090 150c160c 17c00900 c6040022 a0770c03  ...........".w..
 402110a0 0cf40c15 7206640c 16707004 c0090008  ....r.d..pp.....
 402110b0 0112c110 0df00000 ff1ffeff 1c8861fe  ..............a.
 402110c0 ff5183d7 3072110c 025042a0 c0200032  .Q..0r...PB.. .2
 402110d0 24c16033 10303720 c0200032 64c11b22  $.`3.07 . .2d.."
 402110e0 20207487 92e20df0 e40c0000 2020f412    t.........  ..
 402110f0 c1f00921 02a70727 b00531fb ff27b302  ...!...'..1..'..
 40211100 21faff01 21ec3220 19080030 30f53901  !...!.2 ...00.9.
 40211110 08e00c33 c0000001 1cec0c33 08002911  ...3.......3..).
 40211120 08e02801 c0000048 1102a07f 2044c022  ..(....H.... D."
 40211130 af81f044 11004411 4040312b 44404221  ...D..D.@@1+D@B!
 40211140 00441140 4031e6e4 010d0427 20012d00  .D.@@1.....' .-.
 40211150 08210022 11202031 12c1100d f0000000  .!.".  1........
 40211160 12c1e0d9 51c941dd 033107ec 09310203  ....Q.A..1...1..
 40211170 40cd02f6 701e4293 0e0b2032 930f4921  @...p.B... 2..I!
 40211180 4033c030 22820c53 010fc2c0 00000821  @3.0"..S.......!
 40211190 2a000613 00f6a01f 42930f22 c0fa3293  *.......B.."..2.
 402111a0 10491140 33c03022 820c5301 06c2c000  .I.@3.0"..S.....
 402111b0 0008112a 00460a00 2293110c d407341f  ...*.F..".....4.
 402111c0 0050a032 93103901 52c5c930 22c02025  .P.2..9.R..0". %
 402111d0 821c6301 fcc1c000 0008012a 00460000  ..c........*.F..
 402111e0 0d022d0c 3181f500 40114040 31455bfd  ..-.1...@.@@1E[.
 402111f0 0c001b70 0a6c5206 00700074 5a5d5246  ...p.lR..p.tZ]RF
 40211200 006660ed c841d851 083112c1 200df000  .f`..A.Q.1.. ...
 40211210 12c1f0c9 31c13dfd 2d01320c 9b092180  ....1.=.-.2...!.
 40211220 33013038 3185f3ff 0c550c42 62010502  3.081....U.Bb...
 40211230 0c970c07 67b01552 4c9d0006 c0000274  ....g..RL......t
 40211240 0c16624c 9cf6204b 0ce28608 00724c9c  ..bL.. K.....rL.
 40211250 3201046d 07373012 4201035d 0247b043  2..m.70.B..].G.C
 40211260 c6010052 010057b0 6e0c1552 4c9d0cf2  ...R..W.n..RL...
 40211270 8c4685e4 ff860400 620c638c 76220c64  .F......b.c.v".d
 40211280 85e3ff06 01000cf2 05e3ffc8 31082112  ............1.!.
 40211290 c1100df0 f660040c d2c6f4ff f6800f0c  .....`..........
 402112a0 92c6f2ff 8201020c 3587b00c c6eeff0c  ........5.......
 402112b0 a907390f 0cc286ed ffa20101 a7b0a30c  ..9.............
 402112c0 2586e9ff 0cdb073b 040c8246 e8ff1c13  %......;...F....
 402112d0 37309c2d 07c6e5ff 5d0746e3 ff000000  70.-....].F.....
 402112e0 f6befe3f 31ffff12 c1f00921 22438001  ...?1......!"C..
 402112f0 a6eb3d01 22004005 66fd0821 12c1100d  ..=.".@.f..!....
 40211300 f0000000 fabefe3f 12c1f009 01c5ddff  .......?........
 40211310 01fdff22 40800801 12c1100d f0000000  ..."@...........
 40211320 0c040c02 51a4f60c c7c02000 1b846225  ....Q..... ...b%
 40211330 8ce09411 00194060 30148040 74606841  ......@`0..@t`hA
 40211340 7066106a 330033a1 3a226684 db0df000  pf.j3.3.:"f.....
 40211350 000ef23f 318deb21 feff3223 a4c02000  ...?1..!..2#.. .
 40211360 22221130 22300df0 26421426 b2091c23  "".0"0..&B.&...#
 40211370 3712101c 44471203 0c120df0 0c320df0  7...DG.......2..
 40211380 0c020df0 0c220df0 8cf22612 0526220e  ....."....&..&".
 40211390 2632031c 020df01c 420df00c 420df01c  &2......B...B...
 402113a0 220df000 3280fe3f 12c1e0d9 31f951c9  "...2..?....1.Q.
 402113b0 21e94109 11ed0308 02cd0200 030556e0  !.A...........V.
 402113c0 08f171eb 21f8ff08 0f221200 02202920  ..q.!...."... ) 
 402113d0 2044c000 000c1208 0f0c1302 202b1cf4   D.......... +..
 402113e0 c000000c 0dd02d20 c5f9ff42 a1f452a0  ......- ...B..R.
 402113f0 0c106120 080f3d02 02203a0c 02c00000  ..a ..=.. :.....
 40211400 02010022 01018000 01802201 20283100  ..."......". (1.
 40211410 08318022 11200020 e02d9002 52001bdd  .1.". . .-..R...
 40211420 d0d07466 4dbe3d01 21dfff0c 14221200  ..tfM.=.!...."..
 40211430 450d0021 dcff3d01 22120005 0300080f  E..!..=.".......
 40211440 02202ad1 a0c9c000 00280cd0 2220290c  . *......(.." ).
 40211450 c821d831 e841f851 081112c1 200df000  .!.1.A.Q.... ...
 40211460 ff00f0ff ff3f00f0 00c0ffff 80921181  .....?..........
 40211470 fcff7197 d6b1fbff a1fcff12 c1f0c911  ..q.............
 40211480 e9310901 d9210c00 1c8d7050 a0c02000  .1...!....pP.. .
 40211490 4225c180 44109044 20c02000 4265c100  B%..D..D . .Be..
 402114a0 21417022 a0620301 52030080 66018055  !Ap".b..R...f..U
 402114b0 01505831 60683107 601d20e5 11b04601  .PX1`h1.`. ...F.
 402114c0 c02000c2 2281b0cc 1040cc20 e0cc20c0  . .."....@. .. .
 402114d0 2000c262 81c60500 904611c0 2000e222   ..b.....F.. .."
 402114e0 81a0ee10 40ee2050 ee20c020 00e26281  ....@. P. . ..b.
 402114f0 1b000000 74d79091 c811d821 e8310801  ....t......!.1..
 40211500 12c1100d f0000000 20204412 c1f04901  ........  D...I.
 40211510 c9210911 cd0305e5 ff41a3ec 40229032  .!.......A..@".2
 40211520 1202324c 00221202 08012028 41224c01  ..2L.".... (A"L.
 40211530 bc400c02 0c23420c 000113eb 80440108  .@...#B......D..
 40211540 00404831 02202b40 40f4c000 000c120c  .@H1. +@@.......
 40211550 23420c01 010deb80 44010800 40483102  #B......D...@H1.
 40211560 202b4040 f4c00000 c8210811 12c1100d   +@@.....!......
 40211570 f0000000 26121426 22152632 16264217  ....&..&".&2.&B.
 40211580 42c2fb0c 630c5240 23830df0 0ce20df0  B...c.R@#.......
 40211590 0ca20df0 0c820df0 0c720df0 12c1e009  .........r......
 402115a0 013951c9 11d921f9 41e931fd 03ed02d2  .9Q...!.A.1.....
 402115b0 13002202 00d0c924 d0303480 02010008  .."....$.04.....
 402115c0 31d0d404 d0dd9030 dd90d0d0 74a6107c  1......0....t..|
 402115d0 664d1002 c0f82bdd d0d07402 4e008000  fM....+...t.N...
 402115e0 01000831 a6103ef6 7c1e2d0c 45f8ff02  ...1..>.|.-.E...
 402115f0 0e001bcc c0c07420 00c0024e 00800001  ......t ...N....
 40211600 000831a6 101f667c e0a61019 f69d1602  ..1...f|........
 40211610 c0f82bdd d0d07402 4e008000 01000831  ..+...t.N......1
 40211620 a61002b6 9de8c0ec 110801c8 11fbeee0  ................
 40211630 e074b0ee 11b66d04 abddd0d0 74eaede2  .t....m.....t...
 40211640 5f00d821 e831f841 12c1200d f07762d5  _..!.1.A.. ..wb.
 40211650 b67d16d2 cdfe8b20 224e00d0 d0748002  .}..... "N...t..
 40211660 01000831 776202f6 7de8d680 fbb62c1d  ...1wb..}.....,.
 40211670 0bccc0c0 742d0cc5 efff320e 002a2322  ....t-....2..*#"
 40211680 4e008002 01000831 77620266 1ce1d640  N......1wb.f...@
 40211690 f9666d91 d2cdfe8b 20224e00 d0d074c6  .fm..... "N...t.
 402116a0 e0ff0000 12c1e029 4109712d 01050b01  .......)A.q-....
 402116b0 0c335211 03b21102 821101a2 11077211  .3R...........r.
 402116c0 06921105 62110401 b0ea0c04 2d040800  ....b.......-...
 402116d0 9a66aa77 ba8808e0 8a557077 90606690  .f.w.....Upw.`f.
 402116e0 7066c070 55d00055 11006611 60603150  pf.pU..U..f.``1P
 402116f0 50315025 b36046b3 00441100 22112020  P1P%.`F..D..".  
 40211700 31404031 4951c000 00019fea 0c330800  1@@1IQ.......3..
 40211710 296108e0 2851c000 00386108 712033c0  )a..(Q...8a.q 3.
 40211720 284112c1 203a2200 22112020 310df000  (A.. :".".  1...
 40211730 f00b0000 37bdfe3f 5bbffe3f 0c135cf4  ....7..?[..?..\.
 40211740 21fcff12 c1e0c961 0951c116 ff018eea  !......a.Q......
 40211750 225c0008 00225c00 02202b0c 72c00000  "\..."\.. +.r...
 40211760 0c020189 ea0c1308 00421c00 02202b40  .........B... +@
 40211770 4044c000 00221c00 32c1100c 1485d8ff  @D..."..2.......
 40211780 4c0231ec ff0c141c f572c112 81ebff62  L.1......r.....b
 40211790 1c0092a1 38606044 99018208 008911c5  ....8``D........
 402117a0 49010201 122c4780 00010008 31072702  I....,G.....1.'.
 402117b0 e6a0391c 823d0c00 22c02241 1222c112  ..9..=.."."A."..
 402117c0 85ddff0c 720170ea 0c130800 421c0002  ....r.p.....B...
 402117d0 202b4045 41c00000 0c02016b ea0c1308   +@EA......k....
 402117e0 00421c00 02202b40 4044c000 00221c00  .B... +@@D..."..
 402117f0 32c1100c 1405d1ff 221c0032 c110c5c6  2......."..2....
 40211800 ff085122 1c0031e8 ebc86122 532d12c1  ..Q"..1...a"S-..
 40211810 200df000 0c050c06 0c072040 740c0312   ......... @t...
 40211820 c1e0c951 d9610941 e9713921 3911e156  ...Q.a.A.q9!9..V
 40211830 ea390108 0e0c1202 201a4c03 c000000c  .9...... .L.....
 40211840 0d0c0c08 0e08b022 a138c000 001bddca  .......".8......
 40211850 c200cc11 c0c03166 4de8080e 02201b0c  ......1fM.... ..
 40211860 12c00000 0841d861 4b3cbb2c e871c851  .....A.aK<.,.q.Q
 40211870 3023b320 232112c1 20002211 2020310d  0#. #!.. .".  1.
 40211880 f0000000 0c141cf5 82a13861 c6fe12c1  ..........8a....
 40211890 c0c961d9 71e981f9 9172c110 29c10951  ..a.q....r..)..Q
 402118a0 4c0238c1 01a5ff62 16008901 60604402  L.8....b....``D.
 402118b0 00000911 4538010c 0e0c00f2 a06f7201  ....E8.......or.
 402118c0 1068c10c 0aa9d182 06058077 01620600  .h.........w.b..
 402118d0 70783172 c71f7241 108066c0 00661160  px1r..rA..f..f.`
 402118e0 6031f076 1182c7f9 89b172c7 f8007711  `1.v......r...w.
 402118f0 70703179 a1320110 2d0f8033 01303831  pp1y.2..-..3.081
 40211900 0a030241 100ac680 00010008 31072f01  ...A........1./.
 40211910 2d002241 1069f1c5 efff804c 01dd020c  -."A.i.....L....
 40211920 1c404831 49e1472f 010c0c28 e1c02f93  .@H1I.G/...(../.
 40211930 05eeff58 b1207dc0 00071100 00315720  ...X. }......1W 
 40211940 0532a0a8 d7a3518c ee48d158 a1072408  .2....Q..H.X..$.
 40211950 57200562 a0a8d7a6 3f5c0887 223a98e1  W .b....?\..":..
 40211960 68f1c09f 93f71930 1bee0027 110c2a1b  h......0...'..*.
 40211970 902b8090 89b30d0a 80812180 86c00b88  .+........!.....
 40211980 80880180 8831a628 010d08e0 e0742020  .....1.(.....t  
 40211990 3129d1a2 cef656ba f508c1c8 61020000  1)....V.....a...
 402119a0 f891f030 1137ad1f 9cced020 d01b322b  ...0.7..... ..2+
 402119b0 223023b3 20212100 22112020 31d871e8  "0#. !!.".  1.q.
 402119c0 81085112 c1400df0 0c02c6fb ff000000  ..Q..@..........
 402119d0 8ca22623 0c263309 26630626 73030c02  ..&#.&3.&c.&s...
 402119e0 0df0216f eb4170eb 32024e42 04302202  ..!o.Ap.2.NB.0".
 402119f0 4d804401 80330130 38314048 31802201  M.D..3.081@H1.".
 40211a00 202831e6 74d92d03 0df00000 12c1d009   (1.t.-.........
 40211a10 11396169 71290149 81f951d9 31c921e9  .9aiq).I..Q.1.!.
 40211a20 410c0c1c 8ed12ad5 f8812d0c 3801c575  A.....*...-.8..u
 40211a30 00fa0202 00004861 80000100 0831f68c  ......Ha.....1..
 40211a40 044a4006 02005871 4d0507a5 014d0002  .J@...XqM....M..
 40211a50 af00d03c a0408060 4d0e8088 01808831  ...<.@.`M......1
 40211a60 872e014d 08405074 c0200022 23c10022  ...M.@Pt. ."#.."
 40211a70 10502220 c0200022 63c11bcc c0c074e7  .P" . ."c.....t.
 40211a80 9ca7c821 d831e841 f8510811 12c1300d  ...!.1.A.Q....0.
 40211a90 f0000000 00002c00 000000f0 fffffff0  ......,.........
 40211aa0 91feff60 820112c1 f072a100 3077c069  ...`.....r..0w.i
 40211ab0 115901c9 310921cd 0201b3e9 5105d561  .Y..1.!.....Q..a
 40211ac0 f5ff7070 74607711 606420c0 20002225  ..ppt`w.`d . ."%
 40211ad0 ee902210 80222070 22206022 20c02000  ..".." p" `" . .
 40211ae0 0ca30800 2265ee02 201c0c42 c00000d0  ...."e.. ..B....
 40211af0 5c11c070 040c1688 010c0422 58007046  \..p......."X.pF
 40211b00 83504420 80440151 e5ffc020 0031f0d4  .PD .D.Q... .1..
 40211b10 2223ee50 22104022 20c02000 019be908  "#.P".@" . .....
 40211b20 002263ee 0c420220 1c0ca3c0 00000821  ."c..B. .......!
 40211b30 9811c831 22590012 c1100df0 fcbcfe3f  ...1"Y.........?
 40211b40 b0352340 9d0312c1 b0699152 6110f961  .5#@.....i.Ra..a
 40211b50 29c10921 0c03c931 d941e951 dd040c0e  )..!...1.A.Q....
 40211b60 0c0c9911 39f10c00 0c02f221 1029d109  ....9......!.)..
 40211b70 e10c7238 c10c3032 c3f47002 9309a130  ..r8..02..p....0
 40211b80 307439b1 f63c454d 0f017fe9 32a080e0  0t9..<EM....2...
 40211b90 2ed13a22 080038f1 20282129 81022042  ..:"..8. (!).. B
 40211ba0 3a220c13 80220120 2831c000 004d0f38  :"...". (1...M.8
 40211bb0 810175e9 3032c008 002d0e80 33013038  ..u.02...-..3.08
 40211bc0 3139f102 20420c03 c00000ed 020c1238  19.. B.........8
 40211bd0 b148115d 012b6185 ecff7291 01529100  .H.].+a...r..R..
 40211be0 0d0777a5 010d050c 14003011 5027c050  ..w.......0.P'.P
 40211bf0 22113030 31003483 0173bfc0 000002c2  ".001.4..s......
 40211c00 10000521 024d008c 9f28f1d6 52000030  ...!.M...(..R..0
 40211c10 60324d00 0c0238c1 48115d01 2b6105e8  `2M...8.H.].+a..
 40211c20 ff329101 42910030 24c04a33 4022110c  .2..B..0$.J3@"..
 40211c30 14003311 30303130 34830162 bfc00000  ..3.00104..b....
 40211c40 52c21050 5521524d 018c7fd6 5e005050  R..PU!RM....^.PP
 40211c50 60524d01 020d0028 f1800001 000831f6  `RM....(......1.
 40211c60 3c1650ee c00032c0 80330180 ee01e0e8  <.P...2..3......
 40211c70 31302831 29f1461a 0028d148 e12a354a  10(1).F..(.H.*5J
 40211c80 60806601 80330130 28316048 3149e129  `.f..3.0(1`H1I.)
 40211c90 d1666c4e 38f128e1 013ce92b 22080020  .flN8.(..<.+".. 
 40211ca0 22212043 c0804401 40383139 f138d108  "! C..D.@819.8..
 40211cb0 002b3330 32213971 30eec080 ee01e0e8  .+302!9q0.......
 40211cc0 31c00000 e6520e01 30e90800 08002871  1....R..0.....(q
 40211cd0 c00000a6 520c3199 ff41f3c8 28034022  ....R.1..A..(.@"
 40211ce0 20290358 919c9521 96ff420d 01320d00   ).X...!..B..2..
 40211cf0 80440180 33013038 31404831 0139d2c0  .D..3.081@H1.9..
 40211d00 000058a1 1bccc0c0 74c055c0 5645e70c  ..X.....t.U.VE..
 40211d10 134d0f01 1de928f1 08008022 01022042  .M....(....".. B
 40211d20 202831c0 00004d0f 0118e90c 03080080   (1...M.........
 40211d30 2e010220 42202831 c0000008 21c831f8  ... B (1....!.1.
 40211d40 61e24d01 28f1224d 00e851d8 4112c150  a.M.(."M..Q.A..P
 40211d50 0df00000 c0352340 ffff00e0 30932012  .....5#@....0. .
 40211d60 c1c0c261 09f2610c 59d16931 49210981  ...a..a.Y.i1I!..
 40211d70 d9a1e9b1 dd02ed07 08029911 00010556  ...............V
 40211d80 a018f8d1 22a0770c 03c1ffe8 1c04080c  ....".w.........
 40211d90 0c050220 250c06c0 00000c03 0cf40c65  ... %..........e
 40211da0 0c66080c 29510220 2522a077 c000000c  .f..)Q. %".w....
 40211db0 030c940c 750c0608 0c296102 202522a0  ....u....)a. %".
 40211dc0 77c00000 080c0220 282971c0 0000080c  w...... ()q.....
 40211dd0 0220300c 12c00000 28212020 b44553fa  . 0.....(!  .ES.
 40211de0 28213d01 0c140572 ff080c08 600c02c0  (!=....r....`...
 40211df0 0000080c 08f00c12 c0000022 a0770c03  ...........".w..
 40211e00 0c940c75 080c0c06 0220270c 07c00000  ...u..... '.....
 40211e10 22a0770c 031c040c 25080c0c 26022027  ".w.....%...&. '
 40211e20 0c17c000 00283172 01443d0f 2b41f201  .....(1r.D=.+A..
 40211e30 405d0e6d 0fc5d0ff 080c0220 1b0c12c0  @].m....... ....
 40211e40 000022a0 770c031c 040c050c 06080c78  ..".w..........x
 40211e50 51022027 7941c000 00786122 a0770c03  Q. 'yA...xa".w..
 40211e60 0cf4080c 0c650220 270c66c0 00007871  .....e. '.f...xq
 40211e70 22a0770c 030c9408 0c0c7502 20270c06  ".w.......u. '..
 40211e80 c0000022 a0770c03 1c040c25 080c0c26  ...".w.....%...&
 40211e90 0220270c 07c00000 0cf24201 027c1080  . '.......B..|..
 40211ea0 44014048 31072401 0d044201 03072201  D.@H1.$...B...".
 40211eb0 2d006c10 22410280 44018032 01303831  -.l."A..D..2.081
 40211ec0 4048311c f2072401 0d040722 012d0022  @H1...$....".-."
 40211ed0 41038042 01404831 8cee5841 8ca53030  A..B.@H1..XA..00
 40211ee0 60324102 80330130 38318cdf 219aff01  `2A..3.081..!...
 40211ef0 bcd1c000 00420103 32010230 570480e3  .....B..2..0W...
 40211f00 01e0e831 166508e2 c3200620 00c21300  ...1.e... . ....
 40211f10 c0e84180 cc01c0c8 3161cfe8 80ae01b1  ..A.....1a......
 40211f20 53f0e09c 01b09920 e1a3f3b1 8bffc020  S...... ....... 
 40211f30 00822e98 b08810a0 88209088 20c02000  ......... .. . .
 40211f40 826e982c 07c02000 58a67055 20c02000  .n.,.. .X.pU . .
 40211f50 59a67c04 0c23c020 00222e8f 40221030  Y.|..#. ."..@".0
 40211f60 2220c020 00226e8f 02ae0e0c 1fc02000  " . ."n....... .
 40211f70 d22e9900 dd10f0dd 20c02000 c891d26e  ........ . ....n
 40211f80 99f8c1d8 a1e8b108 8112c140 0df080f4  ...........@....
 40211f90 01f0f831 776402f2 c440080c 80cf0102  ...1wd...@......
 40211fa0 202ac0c8 31c00000 31c9c628 0d804f01   *..1...1..(..O.
 40211fb0 805e1140 48315044 20581130 22204255  .^.@H1PD X.0" BU
 40211fc0 00290d86 d4ff0000 00000001 12c1f0d9  .)..............
 40211fd0 21c911e9 31e1f4e9 0901080e c16be877  !...1........k.w
 40211fe0 f03522a0 6a0c230c 040c5508 0c0c4602  .5".j.#...U...F.
 40211ff0 20270c07 c0000091 eae9a80c 220901a2   '.........."...
 40212000 2a2716d2 0422a06a 0c230c44 0c750c46  *'...".j.#.D.u.F
 40212010 0c17c00a 00861200 d20e2c22 a0610c13  ..........,".a..
 40212020 0c240c45 080c0c06 0220277d 0dc00000  .$.E..... '}....
 40212030 720e2d22 a0660c33 0c14080c 0c550220  r.-".f.3.....U. 
 40212040 270c06c0 0000c811 d821e831 080112c1  '........!.1....
 40212050 100df022 a06a0c23 0c440c75 0c460c27  ...".j.#.D.u.F.'
 40212060 c00a0022 a0680c33 0c140c05 080c0c06  ...".h.3........
 40212070 0220270c 17c00000 22a06a0c 230c640c  . '.....".j.#.d.
 40212080 45080c0c 06022027 0c87c000 0022a06a  E..... '.....".j
 40212090 0c230c44 0c05080c 0c060220 270c17c0  .#.D....... '...
 402120a0 000022a0 6a0c230c 340c6508 0c0c6602  ..".j.#.4.e...f.
 402120b0 20270c17 c0000022 a06a0c23 0c440c35   '.....".j.#.D.5
 402120c0 080c0c36 0220270c 07c00000 22a06a0c  ...6. '.....".j.
 402120d0 230c440c 35080c0c 36022027 0c17c000  #.D.5...6. '....
 402120e0 0022a064 0169bcc0 000022a0 6a0c230c  .".d.i....".j.#.
 402120f0 54080c0c 55022025 0c06c000 000c330c  T...U. %......3.
 40212100 140c050c 060c0708 0cdd0202 202722a0  ............ '".
 40212110 68c00000 01a3e941 89fe6200 01b63d04  h......A..b...=.
 40212120 3cc2d7b2 0951a8ff 38045033 203904bc  <....Q..8.P3 9..
 40212130 b61ce3c0 2d1122c2 d90122be c00000d0  ....-."...".....
 40212140 3df020d0 74d24e2c e0231120 20f40c93  =. .t.N,.#.  ...
 40212150 0139bcc0 00006157 c6580e20 40742b44  .9....aW.X. @t+D
 40212160 40422142 4e2d6055 20590e06 abff1c43  @B!BN-`U Y.....C
 40212170 d02da0d0 229022c2 f20112be c0000006  .-..".".........
 40212180 efff0000 b8212140 7cbffe3f 12c1f009  .....!!@|..?....
 40212190 01c911d9 21cd02dd 032183e9 3d0c2202  ....!....!..=.".
 402121a0 52c582ff 0181e961 7ee9f6bc 3a41f5ff  R......a~...:A..
 402121b0 c03c904a 33a00300 862800c6 27000633  .<.J3....(..'..3
 402121c0 00463200 862500c6 24000630 00462f00  .F2..%..$..0.F/.
 402121d0 062d00c6 2a008628 00c62100 86250046  .-..*..(..!..%.F
 402121e0 23000621 00c61e00 da3c32d3 ff3203f0  #..!.....<2..2..
 402121f0 020030f6 8c0b4206 61560405 320d0086  ..0...B.aV..2...
 40212200 12008000 01000831 2610170c b2271041  .......1&....'.A
 40212210 0cd44710 4272c0f2 5206230c 00700583  ..G.Br..R.#..p..
 40212220 86000002 06203020 7407b205 82064f26  ..... 0 t.....O&
 40212230 28010d02 c81121d4 ffd82122 02000000  (.....!...!"....
 40212240 7407b201 2d000801 12c1100d f03a32c6  t...-........:2.
 40212250 ebff0206 2146f3ff 020622c6 f1ff3206  ....!F...."...2.
 40212260 63c6e2ff 320d0046 e1ff320d 02c6dfff  c...2..F..2.....
 40212270 320d0446 deff320d 06c6dcff 320d0146  2..F..2.....2..F
 40212280 dbff320d 03c6d9ff 320d0546 d8ff3206  ..2.....2..F..2.
 40212290 62c6d6ff 2b648293 00000440 8090b190  b...+d.....@....
 402122a0 88c00016 408a8200 25a10088 11808031  ....@...%......1
 402122b0 82530027 28142048 c0502060 80220120  .S.'(. H.P `.". 
 402122c0 28314253 000df00c 020df020 40608724  (1BS....... @`.$
 402122d0 f52a4880 25012028 3146f9ff e0352340  .*H.%. (1F...5#@
 402122e0 f30f0000 80befe3f 00362340 12c190f2  .......?.6#@....
 402122f0 61180261 14226111 52611262 6119c261  a..a."a.Ra.ba..a
 40212300 15e26117 d26116dd 04ed03c1 97e8c020  ..a..a......... 
 40212310 00c22cd8 22a138c0 c8458538 ff226113  ..,.".8..E.8."a.
 40212320 f68c0a7c f2202c30 20202446 00002d0c  ...|. ,0  $F..-.
 40212330 3d0e85e5 fff125f2 e11ce96c 03422113  =.....%....l.B!.
 40212340 0d025221 112c0a5a 52526110 5205002d  ..R!.,.ZRRa.R..-
 40212350 0ae05511 5044c000 44114040 31372401  ..U.PD..D.@@17$.
 40212360 3d0409e1 680e372a 012d0300 82118080  =...h.7*.-......
 40212370 31d77619 09e1dc40 2d0889c1 3d0f0c44  1.v....@-...=..D
 40212380 0c25d9d1 c5f0ff0d 020c0d06 11003d0d  .%............=.
 40212390 2d0889c1 d9d10c44 0c2585ef ff98e1dd  -......D.%......
 402123a0 02564919 a8c1e61a 02066300 a6ba0286  .VI.......c.....
 402123b0 61005632 18020f02 1b000000 74024f02  a.V2........t.O.
 402123c0 1c422790 0b7ced48 d10c0332 4f023254  .B'..|.H...2O.2T
 402123d0 000c0062 21198c6d 0c05524f 03525f00  ...b!..m..RO.R_.
 402123e0 02611abc 3621bdff 3d0c48c1 629f0071  .a..6!..=.H.b..q
 402123f0 b8d258d1 707ca052 9500c020 00820e30  ..X.p|.R... ...0
 40212400 7227c180 88018077 01707831 80883189  r'.....w.px1..1.
 40212410 010173d0 c0000002 211a6221 12164610  ..s.....!.b!..F.
 40212420 c9f1cc3d c9f116b0 0f0c05fd 0da1e7f1  ...=............
 40212430 220e5cc2 a07f8022 01202831 50959080  ".\....". (1P...
 40212440 7c017078 311b55e0 99909209 3d505074  |.px1.U.....=PPt
 40212450 80990190 983177a9 01cd0966 45dd51d1  .....1w....fE.Q.
 40212460 fbcac280 cc01c0c8 31168d09 2c44d09c  ........1...,D..
 40212470 c0809901 90983197 a40b0261 1a221500  ......1....a."..
 40212480 b2a3e427 3b0ee6a9 7b421500 3195ff02  ...';...{B..1...
 40212490 611a4733 6f22c120 31c3fb1c 859055c0  a.G3o". 1.....U.
 402124a0 52412085 0fff620e 5d720120 418eff21  RA ...b.]r. A..!
 402124b0 bdfbc08d c082c818 22120032 045a8077  ........"..2.Z.w
 402124c0 01806601 60683170 78318033 017058c0  ..f.`h1px1.3.pX.
 402124d0 5a663038 318077c0 7aff5a33 624e5d32  Zf081.w.z.Z3bN]2
 402124e0 445a32c1 220c0405 02ff21ae fb32c122  DZ2.".....!..2."
 402124f0 22120085 f7fe0221 1a51aafb a1b4f132  "......!.Q.....2
 40212500 1500325e 2df09cc0 00f09380 99019098  ..2^-...........
 40212510 31804f01 40f831d6 4f004c6b 97ab1ea6  1.O.@.1.O.Lk....
 40212520 1f02e6a9 18c22115 d22116e2 2117f221  ......!..!..!..!
 40212530 18022114 12c1700d f00c0086 9fffac90  ..!...p.........
 40212540 0c8db20a 037c8980 bb01b0b8 3100bbc0  .....|......1...
 40212550 b24a0380 bb01b0b8 31972b01 9d0b0d0d  .J......1.+.....
 40212560 972d010d 09024a03 c60b0032 0e5c015d  .-....J....2.\.]
 40212570 ff220e5d d2005a80 22018033 01303831  .".]..Z."..3.081
 40212580 20283180 dd01f022 80f033c0 324e5c22   (1...."..3.2N\"
 40212590 4e5dd0d8 31f0dd80 d2405a22 0e3032c1  N]..1....@Z".02.
 402125a0 28453bfc 05e400f2 2119167f f7214eff  (E;.....!....!N.
 402125b0 520e5c32 0e5d414b ff803301 42045a80  R.\2.]AK..3.B.Z.
 402125c0 55015058 31804401 30383140 4831c020  U.PX1.D.081@H1. 
 402125d0 0088f1b2 2110d8c1 7173fba1 3dd27217  ....!...qs..=.r.
 402125e0 00622ad8 d901b20b 00b91189 21920e30  .b*.........!..0
 402125f0 80660180 99019098 31993160 68316060  .f......1.1`h1``
 40212600 60a088a0 c0200082 28c10170 f1808801  `.... ..(..p....
 40212610 80883189 41020003 c9618000 01000831  ..1.A....a.....1
 40212620 095101ef cfc00000 46beff00 41fae77c  .Q......F...A..|
 40212630 e631cde7 c0200022 23d74022 10c02000  .1... ."#.@".. .
 40212640 2263d7b1 adcbc020 00a223d7 b0aa10c0  "c..... ..#.....
 40212650 2000a263 d7c02000 9223d460 9910c020   ..c.. ..#.`... 
 40212660 009263d4 0c28c020 007223d8 807720c0  ..c..(. .r#..w .
 40212670 20007263 d8c02000 5223d860 5510c020   .rc.. .R#.`U.. 
 40212680 005263d8 0c14c020 002223d8 402220c0  .Rc.... ."#.@" .
 40212690 20002263 d80df000 7bbffe3f 7abffe3f   ."c....{..?z..?
 402126a0 50bdfe3f 70362340 12c1e002 6104013c  P..?p6#@....a..<
 402126b0 e8420064 52005e40 40045684 09565509  .B.dR.^@@.V..VU.
 402126c0 61f6ff62 060056c6 080140f1 51a7e7c0  a..b..V...@.Q...
 402126d0 20007225 d4326102 f7f731c0 20008225   .r%.2a...1. ..%
 402126e0 d4808825 ec589200 042931dc e931ebff  ...%.X...)1..1..
 402126f0 3203002d 01803301 30383145 a6fe2d01  2..-..3.081E..-.
 40212700 3195f041 e7ff5831 682105be ffc5f1ff  1..A..X1h!......
 40212710 312ff10c 02019ce6 22430421 f2fe0800  1/......"C.!....
 40212720 22025a08 00802201 202831c0 0000a682  ".Z...". (1.....
 40212730 240c0251 ecfe0c04 42455a45 fdfd711a  $..Q....BEZE..q.
 40212740 e8322778 68211b33 3267788c 7621d5ff  .2'xh!.32gx.v!..
 40212750 01a4cfc0 00000841 12c1200d f0000000  .......A.. .....
 40212760 9182e781 cbd00c0b 12c1f0c9 110901d9  ................
 40212770 210c00d2 a0ff7cfc 9060a020 70905d0d  !.....|..`. p.].
 40212780 ad0bc020 0032a117 6226e01b 00000074  ... .2..b&.....t
 40212790 c0663060 407442c4 eb6060a4 62570040  .f0`@tB..``.bW.@
 402127a0 a4b330aa 82803610 a0a821a7 2d015d0a  ..0...6...!.-.].
 402127b0 3a353257 006680bf c811d821 080112c1  :52W.f.....!....
 402127c0 100df000 12c1e009 61394129 517cd521  ........a9A)Q|.!
 402127d0 66e7c020 004222d4 504410c0 20004262  f.. .B".PD.. .Bb
 402127e0 d40c23c0 20000222 d4300020 c0200002  ..#. ..".0. . ..
 402127f0 62d41c92 01a5bac0 00002d01 05f6ff28  b.........-....(
 40212800 51021103 42110232 11019211 07721105  Q...B..2.....r..
 40212810 62110482 11067a66 9a884a33 3a008088  b.....zf..J3:...
 40212820 90606690 6060f480 70f4f090 119090f4  .`f.``..p.......
 40212830 77390580 80d04600 000c0882 52000841  w9....F.....R..A
 40212840 77360570 26c04600 000c0222 50000861  w6.p&.F...."P..a
 40212850 12c1200d f0000000 f13c1101 f33c1101  .. ......<...<..
 40212860 f03c1101 ffff0300 3040f412 c1c0c961  .<......0@.....a
 40212870 e981f991 59d16941 0c13d971 d143e609  ....Y.iA...q.C..
 40212880 51080d29 3102202b 0c02c000 0028d1c1  Q..)1. +.....(..
 40212890 36e71652 124c0f0c 1ed2c2fc 4c071cc8  6..R.L......L...
 402128a0 0c090c0a 0c0bb921 a9b199c1 89117901  .......!......y.
 402128b0 d9a10c0d 0c120134 e60c2308 00480102  .......4..#..H..
 402128c0 202b4040 f4c00000 0130e60c 0208000c   +@@.....0......
 402128d0 2302202b f040f4c0 0000c020 0031deff  #. +.@..... .1..
 402128e0 326cd3c0 200021dd ff226cd3 0c220166  2l.. .!.."l..".f
 402128f0 bac00000 08013811 88217158 e652a07f  ......8..!qX.R..
 40212900 4d0dc020 00622cd3 60687560 4e8356e4  M.. .b,.`hu`N.V.
 40212910 fec02000 922cd30c 1b909f05 b09930c0  .. ..,........0.
 40212920 2000222c d30c0a70 221020ab 839c299d   .",...p". ...).
 40212930 05faf300 ff11f0f0 31f72501 9d0ffd09  ........1.%.....
 40212940 46030030 2fc0fd0d 00221120 203120f2  F..0/....".  1 .
 40212950 b39c2a9d 050a0300 00110000 31072501  ..*.........1.%.
 40212960 9d000d09 46030030 20c00d0d 00221120  ....F..0 ....". 
 40212970 20312002 b3090148 a172c3fe 3061211b   1 ....H.r..0a!.
 40212980 660c1380 66016068 31703693 39114728  f...f.`h1p6.9.G(
 40212990 1778b1a8 c10a97fa ba00bb11 00991190  .x..............
 402129a0 7031b0a0 31a9c179 b1a8d11b 88808074  p1..1..y.......t
 402129b0 892180aa c056baef c601000c 090c0aa9  .!...V..........
 402129c0 b199c10c 120c23f8 b1d1efe5 2bff080d  ......#.....+...
 402129d0 f042f402 202bf0f2 21c00000 0c020c23  .B.. +..!......#
 402129e0 e8c1080d 2beee042 f402202b e0e221c0  ....+..B.. +..!.
 402129f0 00000c12 080d0c13 02202b42 a07fc000  ......... +B....
 40212a00 004197ff c0200028 31384142 6cd3e243  .A... .(18ABl..C
 40212a10 00f24301 9cf29193 ffe07e01 708f0161  ..C.......~.p..a
 40212a20 e5f0c020 00522699 90551080 55207055  ... .R&..U..U pU
 40212a30 20c02000 526699c8 61d871e8 81f89108   . .Rf..a.q.....
 40212a40 5112c140 0df00000 0c048b52 22a07f30  Q..@.......R"..0
 40212a50 55e00055 11505031 5045b300 44114030  U..U.PP1PE..D.@0
 40212a60 31e6e301 2d038022 01202831 0df00000  1...-..". (1....
 40212a70 90362340 b0362340 0c0712c1 b0e981f9  .6#@.6#@........
 40212a80 91d97109 51c96169 a149e152 61100c94  ..q.Q.ai.I.Ra...
 40212a90 0c750c06 cd0301bc e5dd0208 0022a077  .u...........".w
 40212aa0 0220270c 03c00000 4d0c3d0d 0c050c06  . '.....M.=.....
 40212ab0 01b6e50c 02290129 11292108 000c0702  .....).).)!.....
 40212ac0 201a0c12 c000000c 0c0c3462 011069b1   .........4b..i.
 40212ad0 49c10c0d 0c0fa8a1 0c098c4c 261c0966  I..........L&..f
 40212ae0 2c0a0c77 79b1c600 000cf889 b1b8b1ca  ,..wy...........
 40212af0 aaa9d192 4a001bbb b9f1bcac 261c1d66  ....J.......&..f
 40212b00 2c5322a0 6b0c230c 24019fe5 0c650800  ,S".k.#.$....e..
 40212b10 0c460220 277d0dc0 0000060e 0022a06b  .F. '}.......".k
 40212b20 0c230c24 0199e50c 3508000c 06022027  .#.$....5..... '
 40212b30 7d0dc000 00460700 22a06b0c 230c140c  }....F..".k.#...
 40212b40 350c0601 91e50c17 0800707d 90022027  5.........p}.. '
 40212b50 707074c0 0000018c e5080028 e102201c  ppt........(.. .
 40212b60 0ca3c000 00ed0222 21108cb2 21c1ff3d  ......."!...!..=
 40212b70 0d4d0e01 9bcec000 00e7af0e fd0e48d1  .M............H.
 40212b80 0c13303d 90c03d93 32440048 f11bddd0  ..0=..=.2D.H....
 40212b90 d074d044 c05614f6 e221108c ee21b5ff  .t.D.V...!...!..
 40212ba0 48d13d0c 42040001 8ecec000 00ac2c26  H.=.B.........,&
 40212bb0 1c65662c 3822a06b 0c230c24 0c650172  .ef,8".k.#.$.e.r
 40212bc0 e50c4608 0078d102 20277207 00c00000  ..F..x.. 'r.....
 40212bd0 86060022 a06b0c23 0c140c35 016be50c  ...".k.#...5.k..
 40212be0 06080078 d1022027 720700c0 000028c1  ...x.. 'r.....(.
 40212bf0 1bccc0c0 740b2229 c15652ed 0163e508  ....t.").VR..c..
 40212c00 0002201b 0c12c000 00c861d8 71e881f8  .. .......a.q...
 40212c10 91085112 c1500df0 22a06b0c 230c240c  ..Q..P..".k.#.$.
 40212c20 350159e5 0c060800 78d10220 27720700  5.Y.....x.. 'r..
 40212c30 c00000c6 edff0000 d0362340 12c1a0f9  .........6#@....
 40212c40 a10961d9 81c971e9 91695159 f139d149  ..a...q..iQY.9.I
 40212c50 e10c030c 940c750c 06ed07c1 4be5dd02  ......u.....K...
 40212c60 080c22a0 77022027 0c07c000 00e9410c  ..".w. '......A.
 40212c70 0451cbe6 38e15205 5e0b2320 20745024  .Q..8.R.^.#  tP$
 40212c80 83226116 37320206 5600f2af 800c0b58  ."a.72..V......X
 40212c90 51e941d9 b1321130 42016449 c1326115  Q.A..2.0B.dI.2a.
 40212ca0 d2a07f0c 0e506024 50531450 55906055  .....P`$PS.PU.`U
 40212cb0 90505074 526110a2 211698d1 b26113aa  .PPtRa..!....a..
 40212cc0 99a8f192 09009261 12a099c0 92611132  .......a.....a.2
 40212cd0 21112221 10e033c0 80330130 383185d6  !."!..3..3.081..
 40212ce0 ff0c0020 02b380c0 01c0c831 c7ad040b  ... .......1....
 40212cf0 cd060100 f7ac011b cf0c1238 b1c04074  ...........8..@t
 40212d00 0c050121 e50c0669 01691169 2108000c  ...!...i.i.i!...
 40212d10 0702201a 0c06c000 00011be5 080008b0  .. .............
 40212d20 222115c0 00000118 e5080022 611408b0  "!........."a...
 40212d30 222115c0 00000221 14622112 2a000000  "!.....!.b!.*...
 40212d40 11000031 4b000003 216060c0 00661160  ...1K...!``..f.`
 40212d50 6031e616 0880dc01 d0d83146 010080fc  `1........1F....
 40212d60 01f0f831 ac462606 22802c01 202831cc  ...1.F&.".,. (1.
 40212d70 12967601 1b3f371d 12422113 eae61b54  ..v..?7..B!....T
 40212d80 50407442 611342c4 f65624f4 98c1b221  P@tBa.B..V$....!
 40212d90 1678f1a8 41707cc0 baaa8067 01606831  .x..Ap|....g.`h1
 40212da0 724a006c 8777a606 6c866c88 824a009c  rJ.l.w..l.l..J..
 40212db0 39422112 21a1ff32 21168050 01505831  9B!.!..2!..P.PX1
 40212dc0 0108cec0 0000f2af 80d2a07f 0c0e0c0b  ................
 40212dd0 72211668 e11b8780 70747261 167066c0  r!.h....ptra.pf.
 40212de0 5636edc1 e9e43c29 e84138e1 a20e00ea  V6....<).A8.....
 40212df0 3380aa01 32c38002 037fa0a8 31800001  3...2.......1...
 40212e00 000831a0 a0c0a7a9 0542c0ce 424e0051  ..1......B..BN.Q
 40212e10 64e65205 5eacb558 e10b55a6 15256162  d.R.^..X..U..%ab
 40212e20 e648e10c 006a4472 04316a80 82083222  .H...jDr.1j...2"
 40212e30 037f8077 c07a220a 7e224700 1b000000  ...w.z".~"G.....
 40212e40 740795e2 080c0220 1b0c12c0 0000c871  t...... .......q
 40212e50 d881e891 f8a10861 12c1600d f0000000  .......a..`.....
 40212e60 20372340 706b1040 82c2fe12 c1a0c9a1   7#@pk.@........
 40212e70 e9c1f9d1 099169e1 526113d9 b18911d1  ......i.Ra......
 40212e80 14d0c020 00922de0 00084090 90b1c020  ... ..-...@.... 
 40212e90 00a22de3 000840a0 a0b1a0f9 c0c02000  ..-...@....... .
 40212ea0 622de200 08406060 b1c02000 7901022d  b-...@``.. .y..-
 40212eb0 e1000840 aa992d09 88e10000 b10ae680  ...@..-.........
 40212ec0 85306000 c0cd0040 63308066 30606074  .0`....@c0.f0``t
 40212ed0 8c66cd0e 2d0fed00 fd092261 10c0df31  .f..-....."a...1
 40212ee0 4d02205f 3159f13d 05014bc2 c000005d  M. _1Y.=..K....]
 40212ef0 0d4d0c39 3129413d 0d2d0c01 47c2c000  .M.91)A=.-..G...
 40212f00 000c060c 100c0758 31b8413a 552a4b40  .......X1.A:U*K@
 40212f10 7083b7b4 011b55bd 04ad0550 60837706  p.....U....P`.w.
 40212f20 03bd000c 0a4d0ff9 61e26112 38f12221  .....M..a.a.8."!
 40212f30 10a26114 b26115e0 8f31f05f 31595182  ..a..a...1._1YQ.
 40212f40 61110135 c2c00000 e22115f2 21145221  a..5.....!..!.R!
 40212f50 11422112 39712981 3d0d2d0c 012fc2c0  .B!.9q).=.-../..
 40212f60 00000871 3000c038 8120a3c0 a7b3010b  ...q0..8. ......
 40212f70 00702a11 5d0f4d0e 104740a0 308101b9  .p*.].M..G@.0...
 40212f80 ffc00000 38018042 0158e140 48311b44  ....8..B.X.@H1.D
 40212f90 40412140 20605024 83585148 61224300  @A!@ `P$.XQHa"C.
 40212fa0 29213d0d 2d0c011c c2c00000 52211142  )!=.-.......R!.B
 40212fb0 2112dd03 cd0238f1 22211001 17c2c000  !.....8."!......
 40212fc0 003a0d2a 2cc7b201 1b004d0e 5d0fc801  .:.*,.....M.]...
 40212fd0 104740d2 21132030 81702211 01a2ffc0  .G@.!. 0.p".....
 40212fe0 00005201 60806201 6068311b 66606121  ..R.`.b.`h1.f`a!
 40212ff0 600060d0 0683024c 01ac6521 99ffc020  `.`....L..e!... 
 40213000 0031b3cf 48118050 01505831 00044032  .1..H..P.PX1..@2
 40213010 23f94821 3030b180 44014048 310170cd  #.H!00..D.@H1.p.
 40213020 c00000c8 a1d8b1e8 c1f8d108 9112c160  ...............`
 40213030 0df00000 00400000 9d0312c1 b0797149  .....@.......yqI
 40213040 51626112 52611109 81226110 f9c1d9a1  Qba.Ra..."a.....
 40213050 e9b1c991 0c0e0c0c d14ce4f2 01549961  .........L...T.a
 40213060 0c220221 10226113 52211262 21116241  .".!."a.R!.b!.bA
 40213070 10524111 0c120010 400022a1 02015809  .RA.....@."...X.
 40213080 e12020f4 29d10c14 5d0f32a0 80080dc0  .  .)...].2.....
 40213090 2cd10220 3e3a2220 282132c1 1029f120  ,.. >:" (!2..). 
 402130a0 2ec08022 01202831 c0000032 c1110c04  ...". (1...2....
 402130b0 5d0f080d ed020220 3e2d0cc0 000038d1  ]...... >-....8.
 402130c0 080dcd02 08d00c12 c0000022 21103861  ..........."!.8a
 402130d0 52011182 21116201 100c1980 66c08221  R...!.b.....f..!
 402130e0 12606993 62411080 55c088e1 50599352  .`i.bA..U...PY.R
 402130f0 41118901 080d4851 02201272 c112c000  A.....HQ. .r....
 40213100 0028f102 01122a2e 80e00102 0113e0e8  .(....*.........
 40213110 312aee80 000180ee 01e0e831 00083100  1*.........1..1.
 40213120 ccc0080d 80cc0108 c0c0c831 c0000032  ...........1...2
 40213130 21130b33 32611356 b3f42201 12080d80  !..32a.V..".....
 40213140 22010800 202831c0 0000e652 12220113  "... (1....R."..
 40213150 080d8022 01080020 2831c000 00a65217  ..."... (1....R.
 40213160 71b5ff41 76fa6199 ee380452 06057033  q..Av.a..8.R..p3
 40213170 201b5552 46053904 0cf27c10 072e010d   .URF.9...|.....
 40213180 0e072201 2d006c10 80e201e0 e8311cf2  ..".-.l......1..
 40213190 072c010d 0c072201 2d0032c1 100c145d  .,....".-.2....]
 402131a0 0f80c201 080dc0c8 3102203e 2d0ec000  ........1. >-...
 402131b0 005d0f2d 0c080d32 c1110220 3e0c04c0  .].-...2... >...
 402131c0 00000881 d8a1f8c1 38712221 14e24300  ........8q"!..C.
 402131d0 c24200e8 b1c89112 c1500df0 9d05ad03  .B.......P......
 402131e0 12c1b0d9 e1e9f179 810c030c 05f26110  .......y......a.
 402131f0 09c1c9d1 62611329 51496122 a0771c04  ....ba.)QIa".w..
 40213200 0c06c1e1 e3a26111 080c9261 12022025  ......a....a.. %
 40213210 f22113c0 00000c03 0cf40c65 0c66080c  .!.........e.f..
 40213220 ed020220 2522a077 c000000c 031c840c  ... %".w........
 40213230 550c5608 0cdd0202 202522a0 77c00000  U.V..... %".w...
 40213240 0c031c84 0c350c36 080c2991 02202522  .....5.6..).. %"
 40213250 a077c000 000c030c 940c750c 06080c29  .w........u....)
 40213260 a1022025 22a077c0 0000080c 29710220  .. %".w.....)q. 
 40213270 100c12c0 0000e241 10d24111 8ccf080c  .......A..A.....
 40213280 22c11002 204532c1 11c00000 22a0770c  "... E2.....".w.
 40213290 031c040c 25080c0c 26022027 0c17c000  ....%...&. '....
 402132a0 00e9b122 a0770c03 1c840c75 080c0c17  ...".w.....u....
 402132b0 92011082 0111e099 c0d088c0 80879390  ................
 402132c0 97939241 10824111 0220270c 76c00000  ...A..A.. '.v...
 402132d0 080ce221 11022014 2861c000 000c050c  ...!.. .(a......
 402132e0 060c074d 020c0339 21391139 01080c0c  ...M...9!9.9....
 402132f0 1202201a 3d0ec000 00285178 8162c113  .. .=....(Qx.b..
 40213300 42011158 91320110 ed05f911 69017921  B..X.2......i.y!
 40213310 72c11208 0c68a102 2043fd06 c0000008  r....h.. C......
 40213320 0c02201b 0c12c000 0078b122 a0770c03  .. ......x.".w..
 40213330 1c04080c 0c050220 270c06c0 00007d0d  ....... '.....}.
 40213340 22a0770c 030cf408 0c0c6502 20270c66  ".w.......e. '.f
 40213350 c000007d 0e22a077 0c031c84 080c0c55  ...}.".w.......U
 40213360 0220270c 56c00000 7d0f22a0 770c031c  . '.V...}.".w...
 40213370 840c3508 0c0c3602 2027d871 c000007d  ..5...6. '.q...}
 40213380 0d22a077 0c030c94 080c0c75 0220270c  .".w.......u. '.
 40213390 06c00000 22a0770c 031c840c 75080c0c  ....".w.....u...
 402133a0 76022027 0c07c000 0022a077 0c031c04  v. '.....".w....
 402133b0 0c25080c 0c260220 270c07c0 0000080c  .%...&. '.......
 402133c0 d2211202 20100c02 c0000008 c1c8d1e8  .!.. ...........
 402133d0 f1320112 f2211032 4d002201 13224d01  .2...!.2M.".."M.
 402133e0 d8e112c1 500df000 12c1f009 0151b8ce  ....P........Q..
 402133f0 c0200022 a0770c03 0c845225 d861eae4  . .".w....R%.a..
 40213400 0162e362 06530800 50506080 55010220  .b.b.S..PP`.U.. 
 40213410 26505831 80660160 68316055 c052c5e8  &PX1.f.`h1`U.R..
 40213420 505074c0 00000801 12c1100d f0000000  PPt.............
 40213430 5d0312c1 f00c0309 01e931d9 21c911dd  ].........1.!...
 40213440 04c151e3 ed02080c 22a07702 20261cb4  ..Q.....".w. &..
 40213450 c0000022 a0770c03 080c0c54 022026e0  ...".w.....T. &.
 40213460 5474c000 00e05034 22a07708 0c0c0302  Tt....P4".w.....
 40213470 20260c64 c0000022 a0770c03 0cf40c45   &.d...".w.....E
 40213480 080c505d 20022026 505074c0 00005d0d  ..P] . &PPt...].
 40213490 22a07708 0c0c0302 20260cf4 c00000c8  ".w..... &......
 402134a0 11d821e8 31080112 c1100df0 0df00000  ..!.1...........
 402134b0 0df00000 0c020df0 50372340 4cbefe3f  ........P7#@L..?
 402134c0 21feff12 c1e0c261 05d96109 410144cc  !......a..a.A.D.
 402134d0 c0000021 b5e431f9 ff0c04c5 56fa0c13  ...!..1.....V...
 402134e0 0c540c75 d129e30c 06080dcd 02022025  .T.u.)........ %
 402134f0 22a062c0 00000c13 0c640c45 0c06080d  ".b......d.E....
 40213500 29210220 2522a062 c000000c 430c340c  )!. %".b....C.4.
 40213510 450c0608 0d293102 202522a0 67c00000  E....)1. %".g...
 40213520 0c130c24 0c450c06 080ddd02 02202522  ...$.E....... %"
 40213530 a061c000 00804201 003d1128 21403320  .a....B..=.(!@3 
 40213540 48312020 74404074 80441140 22204d0c  H1  t@@t.D.@" M.
 40213550 30222029 013d012d 01c54efa 516ecdc0  0" ).=.-..N.Qn..
 40213560 20004b31 2acc5225 ff59114b 214d0c85   .K1*.R%.Y.K!M..
 40213570 4dfa0841 ca22d861 c85112c1 200df000  M..A.".a.Q.. ...
 40213580 aa5555aa 890f0000 ac540000 20110000  .UU......T.. ...
 40213590 6c0d0000 12c1f0c9 11d92109 0121f1d0  l.........!..!..
 402135a0 c0200031 f8ff42a4 d2222280 51f5ff4a  . .1..B.."".Q..J
 402135b0 42504430 40228230 228231f3 ff011db7  BPD0@".0".1.....
 402135c0 c0000031 f2ff3022 8231f1ff 011ab7c0  ...1..0".1......
 402135d0 00000c0c d2a3e832 a3e70116 b7c00000  .......2........
 402135e0 1bcc42a4 60402282 d79ceb0c 0c32a3d9  ..B.`@"......2..
 402135f0 52a35c50 2282010f b7c00000 1bccd79c  R.\P"...........
 40213600 ebc811d8 21080112 c1100df0 22a07331  ....!.......".s1
 40213610 c4b8c020 002263c5 0df00000 60372340  ... ."c.....`7#@
 40213620 21ffff12 c1e0c261 01d921e9 31f94109  !......a..!.1.A.
 40213630 0101ebcb c000000c 1a91f4cc c0200082  ............. ..
 40213640 2985a088 20c02000 22a06a0c 230c840c  )... . .".j.#...
 40213650 4501cde2 0c060800 0c070220 27826985  E.......... '.i.
 40213660 c00000c1 c0d0c020 00b22c80 0ce245a8  ....... ..,...E.
 40213670 f80c0de1 abb8f2a0 c805f9ff 45f1ffc0  ............E...
 40213680 2000226e 4e0c2205 91000c82 0c030520   ."nN."........ 
 40213690 0022a0aa c50c00c0 20000c22 022c8045  ."...... ..".,.E
 402136a0 40000c22 8554000c 220c0305 a200c020  @..".T.."...... 
 402136b0 00322c80 1bddf79d bfc811d8 21e831f8  .2,.........!.1.
 402136c0 41080112 c1200df0 70372340 80372340  A.... ..p7#@.7#@
 402136d0 e0250040 12c1f009 0101fdff c0000001  .%.@............
 402136e0 0dcd6642 19c02000 3220ff1b 33c02000  ..fB.. .2 ..3. .
 402136f0 21f6ff32 60ff01ba cbc00000 86050026  !..2`..........&
 40213700 22026612 100c03c0 200021f0 ff3260ff  ".f..... .!..2`.
 40213710 01b4cbc0 00000801 12c1100d f0000000  ................
 40213720 12c1f009 01cc930c 5301c2b6 c0000086  ........S.......
 40213730 06000145 c727b00b 01bfb6c0 00004022  ...E.'........@"
 40213740 11060200 40221101 bbb6c000 00080112  ....@"..........
 40213750 c1100df0 30228220 2c410df0 a4c0fe3f  ....0". ,A.....?
 40213760 88130000 516fb8c0 20004225 474a42c0  ....Qo.. .B%GJB.
 40213770 200061fa ff426541 31faff0c 15273301   .a..BeA1....'3.
 40213780 0c055246 000df000 00000050 12c1f0d9  ..RF.......P....
 40213790 21090101 03e4c911 020039c1 61b8dc20  !.........9.a.. 
 402137a0 7cc5c020 00322c59 503310c0 2000326c  |.. .2,YP3.. .2l
 402137b0 59860700 6610072c 06604420 c6040066  Y...f..,.`D ...f
 402137c0 20100c38 c0200072 2c598077 20c02000   ..8. .r,Y.w . .
 402137d0 726c590c 03d16ce2 c0200032 6c50c020  rlY...l.. .2lP. 
 402137e0 00226c51 c0200022 a0770c55 0c560c17  ."lQ. .".w.U.V..
 402137f0 080d426c 40022027 1cc4c000 00511dea  ..Bl@. '.....Q..
 40213800 41b4c031 b3cdc020 002223f2 50221040  A..1... ."#.P".@
 40213810 2220c020 002263f2 0c12019b b6c00000  " . ."c.........
 40213820 22a0770c 031cc40c 55080d0c 56022027  ".w.....U...V. '
 40213830 0c07c000 0022a077 0c031cc4 0c65080d  .....".w.....e..
 40213840 0c660220 270c07c0 00005128 e74199c0  .f. '.....Q(.A..
 40213850 c0200031 9fcd2223 fa502210 402220c0  . .1.."#.P".@" .
 40213860 20000c34 0c750c46 0c07080d 2263fa22   ..4.u.F...."c."
 40213870 a0620220 270c13c0 000061c3 ffc02000  .b. '.....a... .
 40213880 626c44d8 21c81108 0112c110 0df00000  blD.!...........
 40213890 82afc051 23b8c020 00722546 80771020  ...Q#.. .r%F.w. 
 402138a0 7720c020 00726546 7ce6c020 0042256a  w . .reF|.. .B%j
 402138b0 60441030 4420c020 0042656a 0df00000  `D.0D . .Bej....
 402138c0 8480fe3f 0000000f 61feff28 06660225  ...?....a..(.f.%
 402138d0 51a1e841 fcff214d ccc02000 32229650  Q..A..!M.. .2".P
 402138e0 3310303f 4166130f c0200022 22954022  3.0?Af... ."".@"
 402138f0 10202875 29060df0 c0200022 229706fb  . (u).... .""...
 40213900 ff000000 50008000 12c1f009 0185fbff  ....P...........
 40213910 26220c0c 420c0341 fbff05e7 ffc60700  &"..B..A........
 40213920 01a0e302 00656620 0c0c420c 0341f5ff  .....ef ..B..A..
 40213930 85e5ff46 02000c42 0c03415e c0c5e4ff  ...F...B..A^....
 40213940 080112c1 100df000 12c1f009 0185f7ff  ................
 40213950 26220c0c 020c0341 ebff05e3 ffc60700  &".....A........
 40213960 0190e302 00656620 0c0c020c 0341e5ff  .....ef .....A..
 40213970 85e1ff46 02000c02 0c03414e c0c5e0ff  ...F......AN....
 40213980 080112c1 100df000 28e00100 3c200300  ........(...< ..
 40213990 64800c00 12c1f009 01c5f2ff 01e1b726  d..............&
 402139a0 122bac82 217fe332 02014202 659c1326  .+..!..2..B.e..&
 402139b0 240f51f5 ffc02000 52604308 0112c110  $.Q... .R`C.....
 402139c0 0df061f2 ffc02000 62604306 fbff71f0  ..a... .b`C...q.
 402139d0 ffc02000 72604306 f8ff0000 3171e322  .. .r`C.....1q."
 402139e0 03393203 3a262210 26130d26 330a0c23  .92.:&".&..&3..#
 402139f0 41ccb7c0 20003264 680df000 11200000  A... .2dh.... ..
 40213a00 7194c681 02ccc020 00622886 2131cd70  q...... .b(.!1.p
 40213a10 6610c020 00222246 71f9ff27 725151d2  f.. .""Fq..'rQQ.
 40213a20 e2c02000 92255677 19030c12 0df0c020  .. ..%Vw....... 
 40213a30 0022254f 20a21566 3aef20b4 25662be9  ."%O ..f:. .%f+.
 40213a40 20378592 a07f3789 e0c02000 22254f20   7....7... ."%O 
 40213a50 42156634 d420a425 662ace20 b785b789  B.f4. .%f*. ....
 40213a60 c8c02000 22255677 92bfc020 00626886  .. ."%Vw... .bh.
 40213a70 0c020df0 20503440 70543060 14c06611  .... P4@pT0`..f.
 40213a80 a0771160 55206135 ff705520 5256010d  .w.`U a5.pU RV..
 40213a90 f0000000 74bffe3f 75bffe3f ffcfffff  ....t..?u..?....
 40213aa0 fffff0ff 412eff12 c1f00921 62140169  ....A......!b..i
 40213ab0 015128e8 01d6cbc0 20003220 96503310  .Q(..... .2 .P3.
 40213ac0 303f4139 1126120b 2622080c 12082112  0?A9.&..&"....!.
 40213ad0 c1100df0 85f2ff41 cdcb81ee ff011fff  .......A........
 40213ae0 82080072 00002240 05807710 70722072  ...r.."@..w.pr r
 40213af0 40047070 745627fd 7cfb61e8 ff31e6ff  @.pptV'.|.a..1..
 40213b00 0c122243 0071e6ff a2afc021 85b7c020  .."C.q.....!... 
 40213b10 009811b2 62496619 46880180 50340055  ....bIf.F...P4.U
 40213b20 11c02000 32248270 33105033 20c02000  .. .2$.p3.P3 . .
 40213b30 32648280 b41440bb 11c02000 92248260  2d....@... ..$.`
 40213b40 9910b099 20c02000 92648280 8654c020  .... . ..d...T. 
 40213b50 00522487 a0551080 5520c020 00526487  .R$..U..U . .Rd.
 40213b60 9182e281 d7bfc020 00522242 805520c0  ....... .R"B.U .
 40213b70 20005262 420c8b7c 33c02000 8229d030   .RbB..|3. ..).0
 40213b80 8810b088 20c02000 52a06482 69d09811  .... . .R.d.i...
 40213b90 0b556605 fa661951 c02000b2 224ab0b0  .Uf..f.Q. .."J..
 40213ba0 14ccabc0 20003222 4a303014 1633ffc0  .... .2"J00..3..
 40213bb0 20003224 82703310 c0200032 6482c020   .2$.p3.. .2d.. 
 40213bc0 00b22482 60bb10c0 2000b264 82c02000  ..$.`... ..d.. .
 40213bd0 922487a0 9910c020 00926487 0c28c020  .$..... ..d..(. 
 40213be0 0052224a 80551052 40060c02 46b7ff00  .R"J.U.R@...F...
 40213bf0 26120266 222f51d9 fe220504 ec622148  &..f"/Q.."...b!H
 40213c00 b7c02000 32224a30 3014cca3 c0200042  .. .2"J00.... .B
 40213c10 224a4040 141634ff 0c27c020 0062224a  "J@@..4..'. .b"J
 40213c20 70661062 45060df0 812ce631 a9cc613c  pf.bE....,.1..a<
 40213c30 b7c02000 8266440c 07c02000 72665151  .. ..fD... .rfQQ
 40213c40 e2f8c020 00526640 410be9c0 20002223  ... .Rf@A... ."#
 40213c50 f2402210 c0200022 63f20df0 33330000  .@".. ."c...33..
 40213c60 ffff3fff fffffffc ffffff3f a1fcff31  ..?........?...1
 40213c70 1ed5613c cfc02000 a266f891 f9ff818d  ..a<.. ..f......
 40213c80 bfc02000 72269d90 77108077 20c02000  .. .r&..w..w . .
 40213c90 72669d51 f4ff4173 e5c02000 22269d50  rf.Q..As.. ."&.P
 40213ca0 22104022 20c02000 22669db1 72e5a1d6  ".@" . ."f..r...
 40213cb0 ccc02000 92269db0 9910a099 20c02000  .. ..&...... . .
 40213cc0 92669d81 e9ff71d9 b7c02000 52269d80  .f....q... .R&..
 40213cd0 55107055 20c02000 52669d41 ccb7c020  U.pU . .Rf.A... 
 40213ce0 00222381 402210c0 20002263 810df000  ."#.@".. ."c....
 40213cf0 41ace212 c1f0c911 09010204 35c119cf  A...........5...
 40213d00 26107626 30732640 7026506d 0c00c020  &.v&0s&@p&Pm... 
 40213d10 00026cf8 01d5ff31 f4d4c020 00b22c9d  ..l....1... ..,.
 40213d20 00bb10c0 2000b26c 9da152e5 c0200092  .... ..l..R.. ..
 40213d30 2c9da099 10c02000 926c9d81 caffc020  ,..... ..l..... 
 40213d40 00722c9d 807710c0 2000726c 9d61c4ff  .r,..w.. .rl.a..
 40213d50 c0200052 2c9d6055 10c02000 526c9d41  . .R,.`U.. .Rl.A
 40213d60 b3b7c020 00222381 402220c0 20002263  ... ."#.@" . ."c
 40213d70 81c81108 0112c110 0df02204 36852e00  ..........".6...
 40213d80 06e4ff00 87130000 0002f23f 1c4212c1  ...........?.B..
 40213d90 e0c911d9 21e931f9 41090101 3bb5c000  ....!.1.A...;...
 40213da0 000c0ce1 f8ffd1f8 fff1cfd4 c0200002  ............. ..
 40213db0 2d840000 34cc90c0 2000222f f4202c34  -...4... ."/. ,4
 40213dc0 9c020c22 0131b5c0 00003d0c 1bccc0c0  ...".1....=.....
 40213dd0 f437bed7 c811d821 e831f841 080112c1  .7.....!.1.A....
 40213de0 200df000 12c1f031 6ee20901 02033542   ......1n.....5B
 40213df0 aecf2610 0f26300c 26400926 50060801  ..&..&0.&@.&P...
 40213e00 12c1100d f03c0621 c6b6c020 00522285  .....<.!... .R".
 40213e10 40551060 5520c020 00526285 c0200002  @U.`U . .Rb.. ..
 40213e20 228d4000 10c02000 02628d02 03352610  ".@... ..b...5&.
 40213e30 2d26302a 26400266 50c36203 36b626bd  -&0*&@.fP.b.6.&.
 40213e40 0c020c13 0c140c05 01cfcec0 00000c82  ................
 40213e50 0c030c84 0c0501cb cec00000 86e7ff72  ...............r
 40213e60 0336b627 980c120c 030c140c 0501c5ce  .6.'............
 40213e70 c000000c 020c830c 840c0501 c2cec000  ................
 40213e80 0046deff 12c1f031 46e20901 02033552  .F.....1F.....5R
 40213e90 aecf2610 0f26300c 26400926 50060801  ..&..&0.&@.&P...
 40213ea0 12c1100d f0220336 019eb6b6 22282c06  .....".6...."(,.
 40213eb0 c0200072 20855077 10607720 c0200072  . .r .Pw.`w . .r
 40213ec0 6085c020 0042208d 50441060 4420c020  `.. .B .PD.`D . 
 40213ed0 0042608d 8608003c 0ac02000 92208550  .B`....<.. .. .P
 40213ee0 9910a099 20c02000 926085c0 20008220  .... . ..`.. .. 
 40213ef0 8d508810 c0200082 608d0203 3526104f  .P... ..`...5&.O
 40213f00 26304c26 40026650 94020336 66101e0c  &0L&@.fP...6f...
 40213f10 020c130c 140c0501 9bcec000 000c820c  ................
 40213f20 030c840c 050197ce c00000c6 dbff56c0  ..............V.
 40213f30 f60c120c 030c140c 050192ce c000000c  ................
 40213f40 020c830c 840c0501 8fcec000 0046d3ff  .............F..
 40213f50 02033666 101e0c12 0c030c14 0c050189  ..6f............
 40213f60 cec00000 0c020c83 0c840c05 0186cec0  ................
 40213f70 000006ca ff5650f2 0c020c13 0c140c05  .....VP.........
 40213f80 0181cec0 00000c82 0c030c84 0c05017d  ...............}
 40213f90 cec00000 86c1ff00 32a00012 c1f0c261  ........2......a
 40213fa0 01026100 cd020c12 85e3fa31 aae021aa  ..a........1..!.
 40213fb0 e0c02000 02224230 0020c020 00026242  .. .."B0. . ..bB
 40213fc0 059dff26 4c11661c 05c593ff 06020026  ...&L.f........&
 40213fd0 2c02668c 020597ff 3163eb0c 225161ce  ,.f.....1c.."Qa.
 40213fe0 c0200002 25853000 10200020 c0200002  . ..%.0.. . . ..
 40213ff0 6585b1d2 ebc02000 a22585b0 aa10c020  e..... ..%..... 
 40214000 00a26585 910ab7c0 20008225 85908820  ..e..... ..%... 
 40214010 c0200082 65857112 ff61a6be c0200042  . ..e.q..a... .B
 40214020 259d7044 10604420 c0200042 659d45db  %.pD.`D . .Be.E.
 40214030 ff85c3ff 45d5ff66 8c146106 f35173ca  ....E..f..a..Qs.
 40214040 c0200042 25866044 10c02000 426586c8  . .B%.`D.. .Be..
 40214050 11080112 c1100df0 60360040 10110040  ........`6.@...@
 40214060 50150040 30330040 413fce9c 82261220  P..@03.@A?...&. 
 40214070 26222826 32302642 38665208 21f7ffc0  &"(&20&B8fR.!...
 40214080 20002264 f80df00c 03c02000 3264f80d   ."d...... .2d..
 40214090 f051f2fe c0200052 64f80df0 61f0ffc0  .Q... .Rd...a...
 402140a0 20006264 f80df071 eeffc020 007264f8   .bd...q... .rd.
 402140b0 0df081ec ffc02000 8264f80d f0000000  ...... ..d......
 402140c0 ff0f0080 80bffe3f 5abffe3f 12c1f0e9  .......?Z..?....
 402140d0 310901d9 21c911dd 03cd0201 a0fd2622  1...!.........&"
 402140e0 02661211 56ed0022 00045682 00320006  .f..V.."..V..2..
 402140f0 562300c5 a0fc7c3a 0c496144 ca811ae1  V#....|:.IaD....
 40214100 c0200072 28d0a077 10907720 c0200072  . .r(..w..w . .r
 40214110 68d0516b bec02000 42268650 4420c020  h.Qk.. .B&.PD . 
 40214120 00426686 668c11e1 ede4c020 00b22686  .Bf.f...... ..&.
 40214130 e0bb20c0 2000b266 8661e1ff e149e441  .. . ..f.a...I.A
 40214140 09cec020 00626485 51c6fec0 20003224  ... .bd.Q... .2$
 40214150 9d503310 c0200032 649d0b2c 16020d72  .P3.. .2d..,...r
 40214160 ccfe16a7 0c82ccf8 16480c22 a12c0146  .........H.".,.F
 40214170 b4c00000 b139e0c0 2000522b 42e05510  .....9.. .R+B.U.
 40214180 c0200052 6b420c14 c0200032 2b584033  . .RkB... .2+X@3
 40214190 20c02000 326b587c e0c02000 a22b5800   . .2kX|.. ..+X.
 402141a0 aa10c020 00a26b58 c0200091 eecd9229  ... ..kX. .....)
 402141b0 9c17693b 0c220134 b4c00000 b2a0f192  ..i;.".4........
 402141c0 ac00c020 007124e0 a8d790aa 10b0aa20  ... .q$........ 
 402141d0 c02000a9 d782a0f0 c0200068 d7906610  . ....... .h..f.
 402141e0 806620c0 200069d7 0c220127 b4c00000  .f . .i..".'....
 402141f0 c512fdb1 b4ff226b 0085c8ff 05afff56  ......"k.......V
 40214200 0d02d156 fd2123fe d20d05e2 0200561d  ...V.!#.......V.
 40214210 01661e0e 0152fd02 00006610 05262c7f  .f...R....f..&,.
 40214220 261c7cc8 11d821e8 31080112 c1100df0  &.|...!.1.......
 40214230 41afe401 d5df3126 cbc02000 2223fa40  A.....1&.. ."#.@
 40214240 2210c020 0042a003 52a00762 a0040cf7  ".. .B..R..b....
 40214250 08002263 fa22a062 0220270c 13c00000  .."c.".b. '.....
 40214260 22a06201 c9df0c13 08000cb4 02202652  ".b.......... &R
 40214270 a080c000 00059bff 414ce151 f6df3804  ........AL.Q..8.
 40214280 0c025033 203904c5 b1fc22a0 c801feb3  ..P3 9....".....
 40214290 c0000071 45e16807 e0661069 07c6b4ff  ...qE.h..f.i....
 402142a0 912ffd82 a000713e e1824200 72076482  ./....q>..B.r.d.
 402142b0 49007071 0456a7f6 22a004c5 cdff2182  I.pq.V..".....!.
 402142c0 ff220200 452afc22 a0040c03 c5dfff06  ."..E*."........
 402142d0 d4ff0000 0c065192 b5c02000 626550c0  ......Q... .beP.
 402142e0 20002265 51c02000 426540c0 20003265   ."eQ. .Be@. .2e
 402142f0 440df000 12c1f009 01c55cff 26220c0c  D.........\.&"..
 40214300 020c0341 80fdc5fc ff460200 0c020c03  ...A.....F......
 40214310 41e9bd05 fcff0801 12c1100d f0000000  A...............
 40214320 6ac01900 c8400600 20203020 00005020  j....@..  0 ..P 
 40214330 12c1f0c9 1109017c f0c179b5 c0200002  .......|..y.. ..
 40214340 6c4905fb ff0c820c 034554ff 4564ff22  lI.......ET.Ed."
 40214350 a3e80541 ff31dabd c0200022 2c423022  ...A.1... .",B0"
 40214360 20c02000 226c420c 224588ff 858bff01   . ."lB."E......
 40214370 ecff0c04 0c75c020 00026c40 b1c5edc0  .....u. ..l@....
 40214380 2000b26c 41c02000 426c42a1 e6ffc020   ..lA. .BlB.... 
 40214390 00a26c43 91c1f5c0 2000926c 440c48c0  ..lC.... ..lD.H.
 402143a0 2000826c 46c02000 426c48c0 2000426c   ..lF. .BlH. .Bl
 402143b0 50c02000 426c5171 dcffc020 00726c52  P. .BlQq... .rlR
 402143c0 61dbffc0 2000626c 53c02000 426c56c0  a... .blS. .BlV.
 402143d0 2000526c 57c02000 526c58c0 2000426c   .RlW. .RlX. .Bl
 402143e0 59c02000 426c5ac0 2000426c 5dc02000  Y. .BlZ. .Bl]. .
 402143f0 426c60c0 2000426c 64c02000 426c65c0  Bl`. .Bld. .Ble.
 40214400 2000426c 66c02000 426c67c0 2000426c   .Blf. .Blg. .Bl
 40214410 68c02000 426c6ac0 2000426c 6bc02000  h. .Blj. .Blk. .
 40214420 426c6cc0 2000426c 6dc81108 0112c110  Bll. .Blm.......
 40214430 0df00000 c0c0fe3f 31ffffc0 22112a23  .......?1...".*#
 40214440 0df00000 51fcffc0 62116a55 39254245  ....Q...b.jU9%BE
 40214450 0c0df000 b0c0fe3f 4c6b1040 12c1f059  .......?Lk.@...Y
 40214460 110921c9 314901cd 0221f2ff c04c114a  ..!.1I...!...L.J
 40214470 220c6401 efb8c000 002d0c38 01481145  ".d......-.8.H.E
 40214480 fcff001c 4051f3ff 0c132205 000033a1  ....@Q...."...3.
 40214490 30222020 20742245 0001efff c0000020  0"   t"E....... 
 402144a0 2074c831 082112c1 100df000 31eaff32   t.1.!......1..2
 402144b0 03000002 40302091 2020040d f0000000  ....@0 .  ......
 402144c0 12c1f002 610001e3 ff42a001 02000000  ....a....B......
 402144d0 02400030 9107631d 00124000 34a142af  .@.0..c...@.4.B.
 402144e0 ff403330 41dcff30 30103244 0005f902  .@30A..00.2D....
 402144f0 01d9ff02 00002d00 01d8ffc0 00002020  ......-.......  
 40214500 74080112 c1100df0 41cbffc0 52115a44  t.......A...R.ZD
 40214510 38240c02 26130772 040c0c16 70268320  8$..&..r....p&. 
 40214520 20740df0 31c4ffc0 22112a23 22020d0d   t..1...".*#"...
 40214530 f0000000 31c0ffc0 22112a23 22020e0d  ....1...".*#"...
 40214540 f0000000 41bcffc0 52115a44 32440d0d  ....A...R.ZD2D..
 40214550 f0000000 41b8ffc0 52115a44 32440e0d  ....A...R.ZD2D..
 40214560 f0000000 31b4ffc0 22112a23 22020c0d  ....1...".*#"...
 40214570 f0000000 32a00012 c1f0c261 010901cd  ....2......a....
 40214580 0205fcff 2d0c0c03 85fcff2d 0c458203  ....-......-.E..
 40214590 3d0c0c12 0c048550 03c81108 0112c110  =......P........
 402145a0 0df00000 90372340 12c1f0c2 61010261  .....7#@....a..a
 402145b0 00cd0221 fcff3d0c 010ac8c0 00000c02  ...!..=.........
 402145c0 3d0c0c04 854d032d 0c45efff cc7201de  =....M.-.E...r..
 402145d0 d2c00000 85ab01c8 11080112 c1100df0  ................
 402145e0 a0372340 b0372340 12c1e009 21591169  .7#@.7#@....!Y.i
 402145f0 01c931d9 41cd02dd 04662316 21f9ff3d  ..1.A....f#.!..=
 40214600 0c01f7c7 c000002d 0c381148 0145e3ff  .......-.8.H.E..
 40214610 c60d0066 133121f3 ffc03c20 01f1c7c0  ...f.1!...< ....
 40214620 00002d0c 3d0d853d 033d0d2d 0c481158  ..-.=..=.=.-.H.X
 40214630 0185e2ff 66120245 7b032d0c 45f3ff66  ....f..E{.-.E..f
 40214640 1c0845b1 00860000 c5f5ffc8 31d84108  ..E.........1.A.
 40214650 2112c120 0df00000 c0372340 740f0040  !.. .....7#@t..@
 40214660 800f0040 12c1e0e2 61040261 01d931c9  ...@....a..a..1.
 40214670 21dd06cd 0216d303 3d047901 4d055d06  !.......=.y.M.].
 40214680 85ca02ed 023d0d21 f4ff01d5 c7c00000  .....=.!........
 40214690 ac9e2d0c c5ecffcd 02080102 6e1701ef  ..-.........n...
 402146a0 ffc00000 4d0c2d0e 0c03c5b0 0201ecff  ....M.-.........
 402146b0 c0000086 01003d04 4d05c5d4 02c5ea02  ......=.M.......
 402146c0 cd029632 02202074 c5e3ff16 a2012161  ...2.  t......!a
 402146d0 ff220200 17e2112d 0c45bc00 c821d831  .".....-.E...!.1
 402146e0 e8410811 12c1200d f0c5a600 06fbff00  .A.... .........
 402146f0 00000000 d0372340 d8372340 c8372340  .....7#@.7#@.7#@
 40214700 12c1f002 61016624 11526100 1695034d  ....a.f$.Ra....M
 40214710 033d020c 22853803 060c0066 14173043  .=..".8....f..0C
 40214720 20203220 22a00285 370321f2 ff01acc7    2 "...7.!.....
 40214730 c00000c6 0200c5e3 ff21efff 01a9c7c0  .........!......
 40214740 00000811 12c1100d f085e2ff 21ecff38  ............!..8
 40214750 0101a3c7 c00000c6 f9ff0000 12c1d009  ................
 40214760 71494159 517961e9 a1d991c9 81dd02cd  qIAYQya.........
 40214770 03ed06b6 6605c5dc ff460400 ccb345dc  ....f....F....E.
 40214780 ff2d0d3d 0cc5dcff 86000085 dcffe06e  .-.=...........n
 40214790 20422104 58517861 2d0c3d0d 02013009   B!.XQxa-.=...0.
 402147a0 01054603 3d0c2d0d c55603c8 81d891e8  ..F.=.-..V......
 402147b0 a1087112 c1300df0 12c1f002 61008551  ..q..0......a..Q
 402147c0 03022100 12c11080 00000000 12c1f002  ..!.............
 402147d0 610085d0 02022100 5642001c f2c60200  a.....!.VB......
 402147e0 22020322 c2a08022 01202831 12c1100d  ".."...". (1....
 402147f0 f0000000 10c1fe3f 0c0791fe ff2082b0  .......?..... ..
 40214800 9088a022 48043248 05524808 42480742  ..."H.2H.RH.BH.B
 40214810 48066258 0c724809 72480a72 48117978  H.bX.rH.rH.rH.yx
 40214820 79880df0 c00b0000 e0c0fe3f 12c1f002  y..........?....
 40214830 61000507 0022a002 0c330c44 0ca50c06  a...."...3.D....
 40214840 45fbff0c 320c730c 440ca50c 0685faff  E...2.s.D.......
 40214850 0c120c23 0c340c45 61f3ffc5 f9ff0c02  ...#.4.Ea.......
 40214860 0c230c24 0c3562a5 e0c5f8ff 0c420c23  .#.$.5b......B.#
 40214870 0c440ca5 0c0605f8 ff0c720c 230c540c  .D........r.#.T.
 40214880 a50c0645 f7ff21e8 ff0c8332 42002212  ...E..!....2B.".
 40214890 0e0c13c5 8a02c59f 02080112 c1100df0  ................
 402148a0 2a090000 217bec42 a15f0c95 61fdff0c  *...!{.B._..a...
 402148b0 b731ddff 82a20089 13892372 430d7243  .1........#rC.rC
 402148c0 0c625308 62530752 530a4253 0e22530f  .bS.bS.RS.BS."S.
 402148d0 0df00000 61d5ff0c 541c4527 35015d02  ....a...T.E'5.].
 402148e0 502074b6 52014d02 42460d42 460c0df0  P t.R.M.BF.BF...
 402148f0 30c2fe3f 9c201040 22a06a0c 230c8471  0..?. .@".j.#..q
 40214900 fcff12c1 f0090101 20de0c06 08005d06  ........ .....].
 40214910 02202669 17c00000 21f6ff01 f6ffc000  . &i....!.......
 40214920 0021f3ff 080112c1 1028120d f0000000  .!.......(......
 40214930 31f0ff12 c1f00261 00322301 05defe45  1......a.2#....E
 40214940 e2fe0801 12c1100d f0000000 12c1f009  ................
 40214950 0101e7ff 02003007 601085e0 fe01e4ff  ......0.`.......
 40214960 0c820200 30060100 0000000c 02176004  ....0.........`.
 40214970 1c033022 20276004 0c444022 20003304  ..0" '`..D@" .3.
 40214980 c5f0fe08 0112c110 0df00000 00000000  ................
 40214990 8880fe3f 84c3fe3f 7cc3fe3f 54211040  ...?...?|..?T!.@
 402149a0 12c1f002 610001fa ff21d1ff 02000022  ....a....!....."
 402149b0 02c86610 16f6225b 22a00232 a000c570  ..f..."["..2...p
 402149c0 ff41cbff 0c233244 c8061400 66201922  .A...#2D....f ."
 402149d0 a00101f2 ffc00000 22a00832 a000c56e  ........"..2...n
 402149e0 ff0c0201 eeffc000 0041eaff 52040002  .........A..R...
 402149f0 a0006615 0b22a000 22440045 d1fb02a0  ..f..".."D.E....
 40214a00 0021e5ff 62020066 16020242 00080112  .!..b..f...B....
 40214a10 c1100df0 22a00232 a001056b ff0110ff  ...."..2...k....
 40214a20 c000000c 0201ddff c0000085 940171b0  ..............q.
 40214a30 ff7207c9 6617b10c 1a91f4c7 c0200082  .r..f........ ..
 40214a40 2985a088 20c02000 82698522 a0a0018a  )... . ..i."....
 40214a50 cbc00000 46e4ff00 61a6ff22 063251c1  ....F...a..".2Q.
 40214a60 cbac12c0 20004206 3a522580 285638b6  .... .B.:R%.(V8.
 40214a70 5022c040 33822733 0c822612 7216148a  P".@3.'3..&.r...
 40214a80 7727b701 0df00c02 0df00000 44c3fe3f  w'..........D..?
 40214a90 50392340 1094fe3f 60392340 3ffe0000  P9#@...?`9#@?...
 40214aa0 12c1e0f2 6104e261 03026100 d921c911  ....a..a..a..!..
 40214ab0 c1f7ffdd 02020c00 0c1ecc40 85e3ffe2  ...........@....
 40214ac0 4c00c18b ff222c12 381c202d c005c5fe  L....",.8. -....
 40214ad0 f1a5cbc0 2000e22f 8032a12c 27330206  .... ../.2.,'3..
 40214ae0 29000c04 21cac7c0 20006222 850c1560  )...!... .b"...`
 40214af0 60046045 93404074 424cc966 14187ce8  `.`E.@@tBL.f..|.
 40214b00 c0200072 22858077 10c02000 7262855c  . .r"..w.. .rb.\
 40214b10 020159cb c0000085 85010c12 01a0ffc0  ..Y.............
 40214b20 00000c22 0547ff05 ddff381c 222c12e9  ...".G....8.",..
 40214b30 51202dc0 85befeed 02c02000 4851222f  Q -....... .HQ"/
 40214b40 80381c40 22c085bd fedd0201 c4fec000  .8.@"...........
 40214b50 0052a3e8 02aed40a 6e5a5d67 b53ad02e  .R......nZ]g.:..
 40214b60 c00a2285 deff020c 31420c30 00312426  ..".....1B.0.1$&
 40214b70 233a0764 3721c6ff 31c7ff42 a0f60198  #:.d7!..1..B....
 40214b80 c6c00000 06ffff21 c4ff0195 c6c00000  .......!........
 40214b90 01b4fec0 00008600 0045e0ff 0c12c811  .........E......
 40214ba0 d821e831 f8410801 12c1200d f0720c30  .!.1.A.... ..r.0
 40214bb0 62a00652 a0f15050 10605520 50507461  b..R..PP.`U PPta
 40214bc0 b7ff8055 11705520 60551052 4c305058  ...U.pU `U.RL0PX
 40214bd0 41524c31 45e0fe61 52b3c020 00822647  ARL1E..aR.. ..&G
 40214be0 897cc020 00722f80 798cc020 000c2268  .|. .r/.y.. .."h
 40214bf0 96699c22 4cc8c5ea fe224cc8 209074cc  .i."L...."L. .t.
 40214c00 390c22c5 fefe0c02 86e4ff00 4139ff0c  9.".........A9..
 40214c10 13420431 0c024041 2442c4fd 4023830d  .B.1..@A$B..@#..
 40214c20 f0000000 8c80fe3f 70392340 1894fe3f  .......?p9#@...?
 40214c30 9cc3fe3f 80392340 2094fe3f b80b0000  ...?.9#@ ..?....
 40214c40 90392340 a0392340 12c1f009 01e931c9  .9#@.9#@......1.
 40214c50 11d921cd 02d126ff e1acc7fc 322d0e01  ..!...&.....2-..
 40214c60 60b1c000 002d0e1c 930c140c 15015bb1  `....-........[.
 40214c70 c0000021 edff51eb ff42a640 0c03324d  ...!..Q..B.@..2M
 40214c80 ca324dcc 490531e9 ff0155c6 c0000086  .2M.I.1...U.....
 40214c90 1a0021e8 ff31e8ff 920dcc81 e5ff0c16  ..!..1..........
 40214ca0 72080062 4dcc9076 83724800 014dc6c0  r..bM..v.rH..M..
 40214cb0 0000261c 08262c05 c24dcb86 0f00320d  ..&..&,..M....2.
 40214cc0 ca371c2f 661c4be0 2e200145 b1c00000  .7./f.K.. .E....
 40214cd0 e02e2031 daff42a0 010c1501 40b1c000  .. 1..B.....@...
 40214ce0 0021d6ff 85810101 d5ff3d0c a1ceffc2  .!........=.....
 40214cf0 4dca090a 21d3ff01 3ac6c000 0021d1ff  M...!...:....!..
 40214d00 0138c6c0 0000c811 d821e831 080112c1  .8.......!.1....
 40214d10 100df0e0 2e200132 b1c00000 e02e2032  ..... .2...... 2
 40214d20 a0190c14 0c15012d b1c00000 22a06405  .......-....".d.
 40214d30 7d0102a6 4046ecff 21eefe0c 034202cc  }...@F..!....B..
 40214d40 2202ca0b 44402393 0df00000 d4170000  "...D@#.........
 40214d50 e4c2fe3f a8392340 b0392340 12c1f0d2  ...?.9#@.9#@....
 40214d60 61030261 01d1e2fe c26102d2 2d12c1fd  a..a.....a..-...
 40214d70 cad0d2c0 c02000c2 2c803c20 d7b07a0c  ..... ..,.< ..z.
 40214d80 120106ff c000000c 82c520ff 0c020103  .......... .....
 40214d90 ffc00000 c0200021 f3ca2222 8001ebff  ..... .!..""....
 40214da0 c0c2c022 cdce0a0c 27b05a21 e9ff2901  ..."....'.Z!..).
 40214db0 010cb1c0 000032a3 e8c02dc0 22c2ce01  ......2...-."...
 40214dc0 1db1c000 000c043d 020c1528 010103b1  .......=...(....
 40214dd0 c0000001 c7fe21c6 fe020031 22023000  ......!....1".0.
 40214de0 31242623 3007622d 21dbff31 2aff42a2  1$&#0.b-!..1*.B.
 40214df0 1601fbc5 c0000006 ffff21d7 ff01f8c5  ..........!.....
 40214e00 c0000086 000085b9 ff0c12c8 21d83108  ............!.1.
 40214e10 1112c110 0df032a0 f10c6430 30104033  ......2...d00.@3
 40214e20 2041b3fe 0c023244 3186f7ff c0392340   A....2D1....9#@
 40214e30 e0392340 94c2fe3f 12c1e009 21c931d9  .9#@...?....!.1.
 40214e40 41cd02d1 abfe2622 0b26425e 02c2f816  A.....&".&B^....
 40214e50 b00826b2 55020d31 00312426 332521f3  ..&.U..1.1$&3%!.
 40214e60 ff4d0c01 dfc5c000 00020d31 00212426  .M.........1.!$&
 40214e70 321121ef ff3107ff 42a24a01 d9c5c000  2.!..1..B.J.....
 40214e80 0006ffff 22a0f120 20105760 180ca000  ...."..  .W`....
 40214e90 0220024d 3185b0ff c24d3308 21c831d8  . .M1....M3.!.1.
 40214ea0 4112c120 0df00d02 86f9ff22 0d315762  A.. .......".1Wb
 40214eb0 a321e0ff 291101ca b0c00000 281142a0  .!..).......(.B.
 40214ec0 bf320d31 0c154033 104c0440 3320324d  .2.1..@3.L.@3 2M
 40214ed0 310c040c a301c1b0 c0000086 ddff22cd  1.............".
 40214ee0 50290101 bfb0c000 00222d13 32a3e801  P)......."-.2...
 40214ef0 d1b0c000 000c043d 020c1528 0101b7b0  .......=...(....
 40214f00 c0000086 d3ff0000 12c1f009 0101a0fe  ................
 40214f10 02000066 20040c82 c5f1ff08 0112c110  ...f ...........
 40214f20 0df00000 0df00000 0df00000 58572140  ............XW!@
 40214f30 c00d0040 316ffe21 fdff12c1 f0090101  ...@1o.!........
 40214f40 fcffc000 00216afe 02023132 a0f13000  .....!j...12..0.
 40214f50 100c4330 00200242 31080112 c1100df0  ..C0. .B1.......
 40214f60 f0392340 80c2fe3f 91b3ff12 c1e00901  .9#@...?........
 40214f70 f941e931 d921c911 c2c9ecd2 c99ce179  .A.1.!.........y
 40214f80 cac02000 020d3232 a0f1220d 31e22e80  .. ...22..".1...
 40214f90 3022100c 83302220 224d3116 3009584d  0"...0" "M1.0.XM
 40214fa0 38bde0f5 c0f7b34c 0c0c420d 3af2a064  8......L..B.:..d
 40214fb0 1bcc3064 82596d08 5d5a5359 4d5020c0  ..0d.Ym.]ZSYMP .
 40214fc0 27b6030a 76795df7 9c2421e5 ff6d0e01  '...vy]..$!..m..
 40214fd0 84c5c000 009197ff 584da141 c638bd42  ........XM.A.8.B
 40214fe0 0d3a0c1b 404b8342 4d3a303a 8339bde0  .:..@K.BM:0:.9..
 40214ff0 85c08733 ba2d09c1 dbff0179 b0c00000  ...3.-.....y....
 40215000 2d0c0177 b0c00000 32a3e842 2d12584d  -..w....2..B-.XM
 40215010 222d13e0 55c05a22 4022c001 86b0c000  "-..U.Z"@"......
 40215020 000c043d 020c152d 0c016cb0 c0000086  ...=...-..l.....
 40215030 07002d09 016bb0c0 00002d0c 0169b0c0  ..-..k....-..i..
 40215040 00002d0c 32a0690c 040c1501 64b0c000  ..-.2.i.....d...
 40215050 00c811d8 21e831f8 41080112 c1200df0  ....!.1.A.... ..
 40215060 203a2340 12c1f009 0105baff dca20c12   :#@............
 40215070 c5dd0021 1ffe0c23 02023142 a0f14000  ...!...#..1B..@.
 40215080 10300020 02423106 020021f5 ff0154c5  .0. .B1...!...T.
 40215090 c0000008 0112c110 0df00000 403a2340  ............@:#@
 402150a0 12c1f009 0145b6ff dca20c02 05da0021  .....E.........!
 402150b0 10fe0cc3 02023142 a0f14000 10300020  ......1B..@..0. 
 402150c0 02423106 020021f5 ff0145c5 c0000008  .B1...!...E.....
 402150d0 0112c110 0df00000 c4361040 0c020c03  .........6.@....
 402150e0 12c1f0c9 11090101 92ffc000 00c100fe  ................
 402150f0 32a0bf02 0c3122cc 50300010 024c3101  2....1".P0...L1.
 40215100 38b0c000 00214bff 0136b0c0 0000320c  8....!K..6....2.
 40215110 31420c37 47e332ec f402a0f1 0c02224c  1B.7G.2......."L
 40215120 39000310 5763100c e3303020 324c3101  9...Wc...00 2L1.
 40215130 eaffc000 00060200 024c3101 e7ffc000  .........L1.....
 40215140 00c81108 0112c110 0df045f5 ff06fcff  ..........E.....
 40215150 603a2340 28230000 12c1f0c9 11c1e4fd  `:#@(#..........
 40215160 0901020c 31000504 16600d22 cc50011c  ....1....`.".P..
 40215170 b0c00000 2130ff01 1ab0c000 003104fe  ....!0.......1..
 40215180 42a0ef02 0c310c05 524c3652 4c374000  B....1..RL6RL7@.
 40215190 10320300 024c3166 231505a7 ff8cc221  .2...L1f#......!
 402151a0 ecfe010f b0c00000 0c22c5c8 ff020c31  .........".....1
 402151b0 00312426 730a8c73 05f2ff32 0c313031  .1$&s..s...2.101
 402151c0 2461e8c9 21e3ff78 2c583c42 0c36c020  $a..!..x,X<B.6. 
 402151d0 00622680 7066c001 02c5c000 000c7722  .b&.pf........w"
 402151e0 a0df020c 314195fe 31dbff0c 05524c32  ....1A..1....RL2
 402151f0 59bc524c 3a596c59 4c595c59 8c326c13  Y.RL:YlYLY\Y.2l.
 40215200 426c1232 0c302000 10000074 2124fe80  Bl.2.0 ....t!$..
 40215210 00113000 2032a0fe 20001000 20740048  ..0. 2.. ... t.H
 40215220 41424c31 30221022 4c300008 74008141  ABL10"."L0..t..A
 40215230 87070e62 a0f16060 10624c31 01a7ffc0  ...b..``.bL1....
 40215240 0000c811 080112c1 100df000 d0c2fe3f  ...............?
 40215250 12c1f021 a7fd0261 0102a000 02423421  ...!...a.....B4!
 40215260 fbff2261 0001deaf c0000031 a1fd3203  .."a.......1..2.
 40215270 3157e313 c51702cc d2280132 a1f40c04  1W.......(.2....
 40215280 0c1501d6 afc00000 081112c1 100df000  ................
 40215290 0df00000 803a2340 6dc2fe3f a03a2340  .....:#@m..?.:#@
 402152a0 12c1f0d2 6103c261 02c191fd 02610102  ....a..a.....a..
 402152b0 0c31dd02 00050456 8009051e 02290116  .1.....V.....)..
 402152c0 020942a0 df320c31 21e1ff40 33102c04  ..B..2.1!..@3.,.
 402152d0 40332032 4c3101c2 afc00000 21eeff32  @3 2L1......!..2
 402152e0 0cca420c 31520c36 40412401 bdc4c000  ..B.1R.6@A$.....
 402152f0 00420c31 40012456 30060ce6 52a0f150  .B.1@.$V0...R..P
 40215300 54106055 20524c31 22a00032 a0000108  T.`U RL1"..2....
 40215310 ffc00000 380121e0 ff421310 d24c3c42  ....8.!..B...L<B
 40215320 5c2232c3 1a0c6401 42b5c000 00720c30  \"2...d.B....r.0
 40215330 82a0fe80 77100c18 80772072 4c306189  ....w....w rL0a.
 40215340 c9c02000 0c056226 80692c59 3c851e01  .. ...b&.i,Y<...
 40215350 852001c8 21d83108 1112c110 0df02660  . ..!.1.......&`
 40215360 a6920c30 0769a021 cdff31ca fd42a339  ...0.i.!..1..B.9
 40215370 019cc4c0 000006ff ff000000 b03a2340  .............:#@
 40215380 c03a2340 45c3fe3f 9880fe3f 46c3fe3f  .:#@E..?...?F..?
 40215390 5c6f1040 12c1d0d9 61f981c9 51e97109  \o.@....a...Q.q.
 402153a0 41ed0330 04c0a6a0 40cb0e32 1304c150  A..0....@..2...P
 402153b0 fd603311 39bc0034 c0a6231e 0c0d5200  .`3.9..4..#...R.
 402153c0 01720000 2b656723 20665701 dd000a05  .r..+eg# fW.....
 402153d0 2b000034 c0e623e5 4600000c 0d2931dc  +..4..#.F....)1.
 402153e0 6d21e6ff 017fc4c0 0000c851 d861e871  m!.........Q.a.q
 402153f0 f8810841 12c1300d f021dafe 0179afc0  ...A..0..!...y..
 40215400 000048bc 381e280e 621c680c 0f1b66f2  ..H.8.(.b.h...f.
 40215410 5c67625c 68e20d03 520d0249 11505e83  \gb\h...R..I.P^.
 40215420 40558259 215d0f01 daffc000 00983172  @U.Y!]........1r
 40215430 0c329889 a8119819 88212099 c0996c9a  .2.......! ...l.
 40215440 88895caa 99994c9c 27320c3a 371e104d  ..\...L.'2.:7..M
 40215450 0e21cbff 0163c4c0 00008600 00e24c3a  .!...c........L:
 40215460 32a0fe02 1c220c19 2d09924c 3200a0d4  2...."..-..L2...
 40215470 420d0482 0d013034 103a8840 4004424c  B.....04.:.@@.BL
 40215480 2a82c8fc 8080749c da0053a4 37351657  *.....t...S.75.W
 40215490 38130070 24306dc0 6a656206 05000740  8..p$0m.jeb....@
 402154a0 6060b107 e6010c02 0c1051b6 ff208074  ``........Q.. .t
 402154b0 20307432 4c2bcc34 0c073007 830c03e2   0t2L+.4..0.....
 402154c0 0d030901 42050000 f0741b44 4040748c  ....B....t.D@@t.
 402154d0 d8020c31 000124a6 2005e660 02924ce0  ...1..$. ..`..L.
 402154e0 f64e1a49 919c5e3d 0e0cf201 36b1c000  .N.I..^=....6...
 402154f0 000c0348 9151a3ff 20007446 00000cf0  ...H.Q.. .tF....
 40215500 07342532 4500e1a0 ff420ce0 01a0ff16  .4%2E....B......
 40215510 c40d2200 001b2220 2074b622 68324000  .."..."  t."h2@.
 40215520 42a51442 5e00c617 00424500 5801220c  B..B^....BE.X.".
 40215530 31505074 56950462 0d03020c 3b6060c1  1PPtV..b....;``.
 40215540 a6b6060c 1f0c0002 4c3b1b50 524c3b20  ........L;.PRL; 
 40215550 012416a0 06261039 26204826 30612640  .$...&.9& H&0a&@
 40215560 6926506f 72c0fa16 f7e782c0 f95698e7  i&Por........V..
 40215570 566fe705 be001602 e7850001 869aff00  Vo..............
 40215580 005d0346 f1ff2240 00324ce0 324ce146  .].F.."@.2L.2L.F
 40215590 e6ff164f e547e205 920c3716 b9e405b0  ...O.G....7.....
 402155a0 ff4691ff 162fe40c 020c0301 61fec000  .F.../......a...
 402155b0 00a20c31 a0a40416 fae245ae ff468aff  ...1......E..F..
 402155c0 166fe20c 12c5c200 8687ff16 5f0405ad  .o.........._...
 402155d0 ff4685ff 165f0421 17fe0101 afc00000  .F..._.!........
 402155e0 b20c31b0 b404160b e045abff 867eff42  ..1......E...~.B
 402155f0 0ce13240 0016f403 22000122 c2012020  ..2@....".."..  
 40215600 7416d202 0c033240 01c5ce00 0c03225e  t.....2@......"^
 40215610 0006ddff 47e214c5 a4ff0673 ff520c33  ....G......s.R.3
 40215620 52c5f856 35dcc590 ff466fff 4590ffc6  R..V5....Fo.E...
 40215630 6dff2240 0106d4ff 32400186 d2ff0000  m."@....2@......
 40215640 24cdfe3f a1ffff41 aafc980a 88347844  $..?...A.....4xD
 40215650 68543824 58642033 c02055c0 2066c020  hT8$Xd 3. U. f. 
 40215660 77c02a88 2a99990a 89347944 69545964  w.*.*....4yDiTYd
 40215670 39240df0 e03a2340 12c1e009 21c931d9  9$...:#@....!.1.
 40215680 41cd02d1 9bfc2622 13264208 66820206  A.....&".&B.f...
 40215690 210066b2 3f022d35 1b00026d 35322d36  !.f.?.-5...m52-6
 402156a0 220d311b 33326d36 57622921 e2fd2911  ".1.32m6Wb)!..).
 402156b0 01ccaec0 00002811 52a0bf42 0d310ca3  ......(.R..B.1..
 402156c0 5044104c 05504420 424d310c 150c0401  PD.L.PD BM1.....
 402156d0 c3aec000 00852cff 020d31c2 4d330061  ......,...1.M3.a
 402156e0 24263611 21e4ff31 ebfc42a4 9f01bcc3  $&6.!..1..B.....
 402156f0 c0000006 ffffc831 22a0f120 20105760  .......1"..  .W`
 40215700 100ca000 0220024d 31d84108 2112c120  ..... .M1.A.!.. 
 40215710 0df00d02 86fbff22 cd502901 01b1aec0  .......".P).....
 40215720 0000222d 1332a3e8 01c3aec0 00000c04  .."-.2..........
 40215730 3d020c15 280101a9 aec00000 46e5ff00  =...(.......F...
 40215740 f03a2340 003b2340 00daff3f 203b2340  .:#@.;#@...? ;#@
 40215750 103b2340 30371040 12c1e0c9 31d94109  .;#@07.@....1.A.
 40215760 2101bffb c00000d1 62fc020d 31003124  !.......b...1.1$
 40215770 66230747 6004420d 369c6457 601421f0  f#.G`.B.6.dW`.!.
 40215780 ff420d36 00540401 96c3c000 00020d31  .B.6.T.........1
 40215790 00312466 23074760 04520d36 9c355760  .1$f#.G`.R.6.5W`
 402157a0 1121e8ff 31bcfc42 a4af018d c3c00000  .!..1..B........
 402157b0 06ffffc1 5bb067e0 79006741 5636070c  ....[.g.y.gAV6..
 402157c0 1201e4ff c0000026 1268211a b8820d30  .......&.h!....0
 402157d0 0c099911 80a004a0 29930768 058527ff  ........)..h..'.
 402157e0 1622040c 2031d8ff b20dca32 23ec661b  .".. 1.....2#.f.
 402157f0 69295116 13110c20 2072a0f0 77117075  i)Q....  r..w.pu
 40215800 41c02000 689c5813 7a666735 010c1000  A. .h.X.zfg5....
 40215810 3074015f fc0b8332 40001648 0e662330  0t._...2@..H.f#0
 40215820 8553ff06 0b000574 ff0c020c 0301c0fd  .S.....t........
 40215830 c0000001 8afbc000 00c02000 989c92c9  .......... .....
 40215840 32c02000 99ccd841 c8310821 12c1200d  2. ....A.1.!.. .
 40215850 f00c028c 920571ff 46f3ff3d 0046ecff  ......q.F..=.F..
 40215860 a14cfca2 0a00661a bf320dc8 56d30342  .L....f..2..V..B
 40215870 2d07c020 00222c47 322d0140 22c045ed  -.. .",G2-.@".E.
 40215880 fd3138c8 c0200048 8d322380 4a223022  .18.. .H.2#.J"0"
 40215890 c0290105 dbff5801 489d5055 a0f05511  .)....X.H.PU..U.
 402158a0 5055415a 44c02000 498c320d c8c02000  PUAZD. .I.2... .
 402158b0 022c4a00 6014dc06 21a5ff31 76fc42a5  .,J.`...!..1v.B.
 402158c0 190147c3 c0000006 ffff0760 0bc02000  ..G........`.. .
 402158d0 222c4620 28544602 00005104 28110c24  ",F (TF...Q.(..$
 402158e0 5024930b 730c261c 0820b204 0c4ab02a  P$..s.&.. ...J.*
 402158f0 930b9290 92109028 93702683 85d7ff86  .......(.p&.....
 40215900 c9ffc519 ff86d2ff 2192ff01 35c3c000  ........!...5...
 40215910 0028510c 1346beff 283b2340 51f5fb12  .(Q..F..(;#@Q...
 40215920 c1f04205 31090140 31246663 1902a0f1  ..B.1..@1$fc....
 40215930 00041057 64200ce2 20202022 453101e6  ...Wd ..   "E1..
 40215940 fdc00000 06020021 f4ff0125 c3c00000  .......!...%....
 40215950 080112c1 100df002 453101df fdc00000  ........E1......
 40215960 06fbff00 303b2340 383b2340 403b2340  ....0;#@8;#@@;#@
 40215970 12c1f009 0101defb 02003100 31246613  ..........1.1$f.
 40215980 1457e02c 21f8ff31 43fc42a5 620114c3  .W.,!..1C.B.b...
 40215990 c0000006 ffff21f4 ff0111c3 c0000021  ......!........!
 402159a0 f3ff313c fc42a56b 010ec3c0 000006ff  ..1<.B.k........
 402159b0 ff450aff 8c42c557 ff060300 0c020c03  .E...B.W........
 402159c0 015cfdc0 0000055a ff080112 c1100df0  .\.....Z........
 402159d0 a8c2fe3f 48c3fe3f af360000 4d0212c1  ...?H..?.6..M...
 402159e0 f0c921d9 3121faff 09114901 01fdadc0  ..!.1!....I.....
 402159f0 0000d1bf fb380142 0d310c0c 400124bc  .....8.B.1..@.$.
 40215a00 90c24d37 c24d3638 8301f2ff 32030f62  ..M7.M68....2..b
 40215a10 0d392613 3101a2cd c0000042 0d390c10  .9&.1......B.9..
 40215a20 662408c2 4d398567 ffc60300 420d3157  f$..M9.g....B.1W
 40215a30 64064057 41bc45cd 00c24d39 c821d831  d.@WA.E...M9.!.1
 40215a40 081112c1 100df0c2 40001c08 72a0ef70  ........@...r..p
 40215a50 74108077 20724d31 662608c2 4d390564  t..w rM1f&..M9.d
 40215a60 ffc6f5ff c24d3985 f0ff86f3 ff85fefe  .....M9.........
 40215a70 81daff01 d8ff2738 08c24d39 854eff46  ......'8..M9.N.F
 40215a80 eeff9200 0052a00e 22c90197 350b2240  .....R.."...5."@
 40215a90 0022a001 853b0046 e8ff0c12 52400005  ."...;.F....R@..
 40215aa0 3b0086e5 ff000000 49c3fe3f 4d0212c1  ;.......I..?M...
 40215ab0 f0c92121 c7ff0911 490101c9 adc00000  ..!!....I.......
 40215ac0 c18cfb0c 12020c31 58010001 24168004  .......1X...$...
 40215ad0 41f6ff0c 00024c38 024c3632 04005885  A.....L8.L62..X.
 40215ae0 b6b30522 450f8600 0022050f 26123201  ..."E...."..&.2.
 40215af0 6ccdc000 00620c39 820c3166 16070c07  l....b.9..1f....
 40215b00 724c3986 04008087 41bc080c 20024c39  rL9.....A... .L9
 40215b10 46010002 4c3945e0 ffc82108 1112c110  F...L9E...!.....
 40215b20 0df00244 00920c39 220c3132 a0ef3022  ...D...9".12..0"
 40215b30 10224c31 6619db57 e2d246f5 ff220c3c  ."L1f..W..F..".<
 40215b40 31d6fd85 9901ccc2 0c04424c 39c5dcff  1.........BL9...
 40215b50 46f1ff00 000061d4 ff520600 0c021b55  F.....a..R.....U
 40215b60 524600c5 2e00c6eb ff000000 3c0f0000  RF..........<...
 40215b70 b42d0000 1b0c0000 cb100000 3d0212c1  .-..........=...
 40215b80 f0c911d9 21c15afb 0901d21c 6729311b  ....!.Z.....g)1.
 40215b90 ddd0d0f4 d25c6716 9d05221c 683d0d01  .....\g...".h=..
 40215ba0 a5adc000 00383120 20f40ca0 27301f02  .....81  ...'0..
 40215bb0 2c1241ee ff61eeff 07340552 c064526c  ,.A..a...4.R.dRl
 40215bc0 12022c13 72a12c07 36047a70 726c131c  ..,.r.,.6.zprl..
 40215bd0 d827b81f 022c1291 e7ffb1e7 ff07b905  .'...,..........
 40215be0 a2c09ca2 6c12022c 1322aed4 07bb042a  ....l..,.".....*
 40215bf0 20226c13 0c04425c 68b62d07 8c73c54d   "l...B\h.-..s.M
 40215c00 ff860000 0536ffc8 11d82108 0112c110  .....6....!.....
 40215c10 0df00000 483b2340 12c1f031 35fb0901  ....H;#@...15...
 40215c20 02033122 03330001 24665002 26820266  ..1".3..$fP.&..f
 40215c30 40226650 05420333 26841426 401121f5  @"fP.B.3&..&@.!.
 40215c40 ff3194fb 42a63901 66c2c000 0006ffff  .1..B.9.f.......
 40215c50 0c1285f2 ff080112 c1100df0 503b2340  ............P;#@
 40215c60 583b2340 42a0bf21 22fb12c1 f0090132  X;#@B..!"......2
 40215c70 02310147 fb403310 02000032 42316620  .1.G.@3....2B1f 
 40215c80 0bc541ff 0143fb02 00002119 fb66102a  ..A..C....!..f.*
 40215c90 02023100 31242653 1121f0ff 317efb42  ..1.1$&S.!..1~.B
 40215ca0 a648014f c2c00000 06ffff47 600c4202  .H.O.......G`.B.
 40215cb0 36ccd445 dafe9ca2 8527ff08 0112c110  6..E.....'......
 40215cc0 0df021e7 ff3173fb 42a65e01 45c2c000  ..!..1s.B.^.E...
 40215cd0 0006ffff 0c020c03 0196fcc0 00008528  ...............(
 40215ce0 ff86f5ff 213bff12 c1f00911 2901013c  ....!;......)..<
 40215cf0 adc00000 28013c73 0c040c15 0138adc0  ....(.<s.....8..
 40215d00 00000811 12c1100d f0000000 31f9fa22  ............1.."
 40215d10 033042a0 df402210 2c044022 20224330  .0B..@".,.@" "C0
 40215d20 0df00000 084f2140 c4090000 dc592140  .....O!@.....Y!@
 40215d30 ac5a2140 185c2140 645c2140 e45c2140  .Z!@.\!@d\!@.\!@
 40215d40 90522140 44622140 20c3fe3f 31f6ff42  .R!@Db!@ ..?1..B
 40215d50 a00062a0 0872a0f7 82a0fd92 a0fe0c4a  ..b..r.........J
 40215d60 b2a0fb21 1bff0c25 12c1f009 01524250  ...!...%.....RBP
 40215d70 52c28802 053022c2 3cb00010 a0002090  R....0".<..... .
 40215d80 00108000 10700010 60002002 45300112  .....p..`. .E0..
 40215d90 adc00000 22a0df81 effca1a8 fbb1e2ff  ...."...........
 40215da0 0c160c04 710bff0c 25524752 42475142  ....q...%RGRBGQB
 40215db0 47536247 5492c788 424932b2 5914a269  GSbGT...BI2.Y..i
 40215dc0 12826913 32093002 09312033 10200010  ..i.2.0..1 3. ..
 40215dd0 02493132 493021d5 ff0c5305 be0021d4  .I12I0!...S...!.
 40215de0 ff0c6385 bd00215f fc31d2ff 0c0401fa  ..c...!_.1......
 40215df0 acc00000 2110fc31 d0ff0c04 01f7acc0  ....!..1........
 40215e00 000021f3 fe31cdff 0c0401f3 acc00000  ..!..1..........
 40215e10 210ffd31 cbff0c04 01f0acc0 000021c9  !..1..........!.
 40215e20 ff1c4341 c9ff0c35 01d5cdc0 000071b0  ..CA...5......q.
 40215e30 fa0c1662 47358541 ff080112 c1100df0  ...bG5.A........
 40215e40 603b2340 ff0f00ff 00800100 f7ffff03  `;#@............
 40215e50 0c2512c1 d031a6fa 09a10c00 42033709  .%...1......B.7.
 40215e60 41dc7462 03388c56 5d020c10 06030072  A.tb.8.V]......r
 40215e70 03310c16 70774116 87040d06 20509352  .1..pwA..... P.R
 40215e80 4339860d 00b22106 922108a2 0b0102a0  C9....!..!......
 40215e90 1000aa20 a24b0198 892c0882 490e21cc  ... .K...,..I.!.
 40215ea0 fe295101 cfacc000 0028513c 730c040c  .)Q......(Q<s...
 40215eb0 1501caac c0000028 81c59d00 08a112c1  .......(........
 40215ec0 300df029 91624336 0971cc42 62433886  0..).bC6.q.BbC8.
 40215ed0 00006243 3722c110 32a01842 a0008567  ..bC7"..2..B...g
 40215ee0 02226108 dc0221d6 ff31eafa 42a6e001  ."a...!..1..B...
 40215ef0 bcc1c000 0006ffff 22220132 a0182812  ........"".2..(.
 40215f00 2961017b c2c00000 1c854881 68716254  )a.{......H.hqbT
 40215f10 0b52540a 4c0902a0 804814c0 2000b204  .RT.L....H.. ...
 40215f20 03b0b064 00bb20c0 2000b244 03a2a0bf  ...d.. . ..D....
 40215f30 c0200082 0403a088 10908820 c0200082  . ......... . ..
 40215f40 440372a0 dfc02000 52040370 55106055  D.r... .R..pU.`U
 40215f50 20c02000 52440361 bbff51bb ffc02000   . .RD.a..Q... .
 40215f60 32140100 3311c020 00721400 70332060  2...3.. .r..p3 `
 40215f70 33105033 20c02000 32540030 30f5c020  3.P3 . .2T.00.. 
 40215f80 00325401 0c02054b fe38814c 840c056d  .2T....K.8.L...m
 40215f90 0281c1fc 212bc27d 08284289 0185b604  ....!+.}.(B.....
 40215fa0 58816170 c67885c0 20000c63 42a0f092  X.ap.x.. ..cB...
 40215fb0 a08f8207 06622680 90881092 a0fd8247  .....b&........G
 40215fc0 06288569 47020204 814afa40 00104871  .(.iG....J.@..Hq
 40215fd0 30002002 42047885 3891b807 019cffb0  0. .B.x.8.......
 40215fe0 a054b0b6 4100bb10 a0bb11b0 aa20a907  .T..A........ ..
 40215ff0 62070082 083c9066 10808004 f0881180  b....<.f........
 40216000 66206247 00496556 a3e78881 88884c07  f bG.IeV......L.
 40216010 72480ec6 a1ff0000 4136fa42 04310c02  rH......A6.B.1..
 40216020 40312466 73045764 010c1220 20740df0  @1$fs.Wd...  t..
 40216030 4130fa0c 13420431 0c024045 040b4440  A0...B.1..@E..D@
 40216040 23830df0 683b2340 21ffff12 c1f00261  #...h;#@!......a
 40216050 000163c1 c0000021 26fa0202 3132a080  ..c....!&...12..
 40216060 00006430 00200242 31c54c00 02210012  ..d0. .B1.L..!..
 40216070 c1108000 00000000 0c0212c1 f00901c5  ................
 40216080 03000801 12c1100d f0000000 703b2340  ............p;#@
 40216090 21ffff12 c1f00261 000151c1 c0000022  !......a..Q...."
 402160a0 a0008501 00022100 12c1100d f0000000  ......!.........
 402160b0 803b2340 903b2340 983b2340 12c1f021  .;#@.;#@.;#@...!
 402160c0 fcffc911 c10bfa09 01320c31 420c3930  .........2.1B.90
 402160d0 31240143 c1c00000 020c3152 0c360040  1$.C......1R.6.@
 402160e0 64424c31 576432ec f5420c39 0c026614  dBL1Wd2..B.9..f.
 402160f0 34224c39 00612426 164f21ee ff3165fa  4"L9.a$&.O!..1e.
 40216100 42a74301 37c1c000 0006ffff 85f0ff8c  B.C.7...........
 40216110 72454200 10112045 4400c811 080112c1  rEB... ED.......
 40216120 100df000 00006624 e2224c39 00712426  ......f$."L9.q$&
 40216130 671121e1 ff3157fa 42a74a01 29c1c000  g.!..1W.B.J.)...
 40216140 0006ffff 85d0ffc6 f3ff0c12 05d0ffc6  ................
 40216150 f1ff0000 41e7f90c 13420431 0c024047  ....A....B.1..@G
 40216160 41402383 0df00000 61e2f942 06310c15  A@#.....a..B.1..
 40216170 40412426 74098c64 72063c27 97010c05  @A$&t..dr.<'....
 40216180 5020740d f0000000 3212018c 237cf20d  P t.....2...#|..
 40216190 f0421202 51d7f90c 02425522 0df00000  .B..Q....BU"....
 402161a0 12c1f009 0101d2f9 0c642240 3c22c03d  .........d"@<".=
 402161b0 01a0b1c0 00000801 12c1100d f0000000  ................
 402161c0 12c1f009 0101caf9 32003157 63110c64  ........2.1Wc..d
 402161d0 32c03d01 79c7c000 00cc320c 10460000  2.=.y.....2..F..
 402161e0 0c000020 74080112 c1100df0 40c3fe3f  ... t.......@..?
 402161f0 240e0040 12c1f009 0101bdf9 c9110200  $..@............
 40216200 35cd02bc 000115f9 c0000021 f8ff2a2c  5..........!..*,
 40216210 0202008c 900112f9 c000000c 02860500  ................
 40216220 1b303242 00010ef9 c000003d 0c1c420c  .02B.......=..B.
 40216230 0401efff c00000c8 11080112 c1100df0  ................
 40216240 dec2fe3f 12c1f009 11080251 e8ff1640  ...?.......Q...@
 40216250 07261031 29016620 250100f9 c0000038  .&.1).f %......8
 40216260 0141e2ff 38034a33 2203000b 22224300  .A..8.J3"...""C.
 40216270 01fcf8c0 000085fd fe860000 c5e5fe08  ................
 40216280 1112c110 0df05a60 42060001 99f90b44  ......Z`B......D
 40216290 02003142 46005760 e5000124 2670df26  ..1BF.W`...$&p.&
 402162a0 60dc21bb f9220200 6622d02d 0522c2a4  `.!.."..f".-."..
 402162b0 01ccabc0 00004595 fe8c320c 2285b7fe  ......E...2."...
 402162c0 85e1fe06 eeff4d05 4a403204 000c120b  ......M.J@2.....
 402162d0 33324400 0120fdc0 00005612 fa85d3ff  32D.. ....V.....
 402162e0 16b2f901 d7ff6200 1e661692 0c177240  ......b..f....r@
 402162f0 3305d7fe c6e1ff00 217ef912 c1f00261  3.......!~.....a
 40216300 0022023c 45190116 82022202 0132a01a  .".<E....."..2..
 40216310 80020100 083107a3 045c0246 03001c03  .....1...\.F....
 40216320 07a30f42 a07f4712 0922a0a0 080112c1  ...B..G.."......
 40216330 100df022 a0f086fc ff000000 48361040  ..."........H6.@
 40216340 54c3fe3f 31feff21 feff0c04 12c1f009  T..?1..!........
 40216350 0101a1ab c0000021 faff0c04 3132fa0c  .......!....12..
 40216360 15380301 9eabc000 00080112 c1100df0  .8..............
 40216370 0df00000 0df00000 80cbfe3f 21ffff32  ...........?!..2
 40216380 02055822 8c230c52 0df00c02 8cd51b22  ..X".#.R......."
 40216390 68252020 74671504 5d0686fb ff0df000  h%  tg..].......
 402163a0 21f6ff32 020548a2 cc330c02 8602000c  !..2..H..3......
 402163b0 520df048 241b2220 20745654 ff0df000  R..H$."  tVT....
 402163c0 68c3fe3f 21ffff12 c1f00901 0185abc0  h..?!...........
 402163d0 00000801 12c1100d f0000000 50c3fe3f  ............P..?
 402163e0 a03b2340 b03b2340 21f6ff12 c1e0c261  .;#@.;#@!......a
 402163f0 01d26102 e2610309 010179ab c00000c5  ..a..a....y.....
 40216400 80fe0c1e c1f6ff8c 42e24c2c 060200e0  ........B.L,....
 40216410 2e2032a0 01c59cf8 d1d8ff02 1d01d21d  . 2.............
 40216420 0000dd80 d0d07485 f7ffed02 0c03b62d  ......t........-
 40216430 72204074 b6246c32 4c2d8600 00024c2d  r @t.$l2L-....L-
 40216440 4597f8e2 c202d22c 0c21f6f9 e0e2211b  E......,.!....!.
 40216450 dde24206 e2120228 223d0e01 76abc000  ..B....("=..v...
 40216460 00273d13 d1f0f90c 0229cc05 7afeac42  .'=......)..z..B
 40216470 0c13324c 34860800 d9cc3d0e 21d1ff0c  ..2L4.....=.!...
 40216480 040c1501 56abc000 00c811d8 21e83108  ....V.......!.1.
 40216490 0112c120 0df00c02 4527fae2 1d0206f6  ... ....E'......
 402164a0 ff000000 22a3e831 dff9420c 2d321302  ...."..1..B.-2..
 402164b0 1b444040 74494101 43adc000 0008410c  .D@@tIA.C.....A.
 402164c0 0527a002 46ddff52 4c2df62d 0a3d0d21  .'..F..RL-.-.=.!
 402164d0 c4ff0143 c0c00000 e03074b6 230286d7  ...C.....0t.#...
 402164e0 ff21c0ff 013fc0c0 000086d4 ff000000  .!...?..........
 402164f0 12c1f009 0105efff 080112c1 100df000  ................
 40216500 12c1f029 01091121 aeff0c00 09620242  ...)...!.....b.B
 40216510 150133ab c0000021 aaff41c2 f938010c  ..3....!..A..8..
 40216520 15325402 0c04012d abc00000 081112c1  .2T....-........
 40216530 100df000 88c3fe3f 12c1f009 0101a7ff  .......?........
 40216540 22003566 12040c03 32403521 faff0124  ".5f....2@5!...$
 40216550 abc00000 080112c1 100df000 0c0431b1  ..............1.
 40216560 f9219eff 0c1512c1 f0090152 42353213  .!.........RB52.
 40216570 0622c238 011aabc0 00000801 12c1100d  .".8............
 40216580 f0000000 12c1f009 010194ff 22003532  ............".52
 40216590 004c8c12 66131821 e7ff31a2 f90c150c  .L..f..!..1.....
 402165a0 0442404c 52403532 1306010c abc00000  .B@LR@52........
 402165b0 080112c1 100df000 2899fe3f 12c1f0c9  ........(..?....
 402165c0 11cd0221 fdff0901 08021690 04320c01  ...!.........2..
 402165d0 020c0430 36419c03 00474126 14490050  ...06A...GA&.I.P
 402165e0 64e68543 620c0767 e63d720c 0c32a080  d..Cb..g.=r..2..
 402165f0 707034cc 17860300 321c1830 33a0f033  pp4.....2..03..3
 40216600 1132c332 3030f442 0c0042c4 a0424c00  .2.200.B..B..BL.
 40216610 08022d0c c000002d 0c01e3b6 c00000c8  ..-....-........
 40216620 11080112 c1100df0 0cc346f6 ff000000  ..........F.....
 40216630 00c5fe3f c03b2340 2894fe3f e8391040  ...?.;#@(..?.9.@
 40216640 2c381040 08411040 12c1f0c9 110901cd  ,8.@.A.@........
 40216650 02080221 f7fff640 1d3d023a 30420300  ...!...@.=.:0B..
 40216660 0020740b 04024300 01f5ffc0 0000c811  . t...C.........
 40216670 080112c1 100df026 407c6650 02062700  .......&@|fP..'.
 40216680 2670ea42 c0f81674 0b0c9557 106062c0  &p.B...t...W.`b.
 40216690 f616160c 72c0f516 f70d26a0 1121e5ff  ....r.....&..!..
 402166a0 31e6ff42 a1a901ce bfc00000 06ffff01  1..B............
 402166b0 ebf7c000 000c0241 deffa148 ff080c82  .......A...H....
 402166c0 0a4e320a 4d920a00 4a00b200 00309283  .N2.M...J....0..
 402166d0 924a000b bbb24000 cca852a0 736190ac  .J....@...R.sa..
 402166e0 c0200052 66c501de f7c00000 86dfff28  . .Rf..........(
 402166f0 1c85ecff 86ddff01 d9f7c000 0091ccff  ................
 40216700 880c9a88 7208000b 77724800 01d5f7c0  ....r...wrH.....
 40216710 00000c12 01cbffc0 000006d4 ff01cff7  ................
 40216720 c0000001 c3ffb22c 0000bb80 a20b00a2  .......,........
 40216730 caffa24b 0001caf7 c0000005 2d0006cb  ...K........-...
 40216740 ff3d023a 30220300 0b222243 0001bdff  .=.:0"...""C....
 40216750 c00000c6 c5ff01c1 f7c00000 61b5ff52  ............a..R
 40216760 2c006055 80420500 42c4ff42 450001bc  ,.`U.B..B..BE...
 40216770 f7c00000 4559ffc6 bcff01b8 f7c00000  ....EY..........
 40216780 91acff88 0c9a8872 08000b77 72480001  .......r...wrH..
 40216790 b4f7c000 0046b5ff c83b2340 0c240cc9  .....F...;#@.$..
 402167a0 12c1f009 01784258 82320704 08050763  .....xBX.2.....c
 402167b0 10003641 00005440 3320a033 11300020  ..6A..T@3 .3.0. 
 402167c0 09058207 0062a0f0 90481060 68106684  .....b...H.`h.f.
 402167d0 49008054 0c830006 41300020 a0001100  I..T....A0. ....
 402167e0 08200905 26d60542 a0c04796 13006054  . ..&..B..G...`T
 402167f0 3197fd00 06413000 10a00011 00062009  1....A0....... .
 40216800 05004641 08012774 0c581242 170b5815  ..FA..'t.X.B..X.
 40216810 40444142 450312c1 100df097 88e20046  @DABE..........F
 40216820 4166e63b 79110090 5481fef8 a1a2b488  Af.;y...T.......
 40216830 48a0a420 a0aa11a0 99209905 62285729  H.. ..... ..b(W)
 40216840 211b6662 6857b666 0e21d3ff 0165bfc0  !.fbhW.f.!...e..
 40216850 00002821 58827811 08050046 41c6e8ff  ..(!X.x....FA...
 40216860 66d6a077 e09d31cf e8000054 303420a0  f..w..1....T04 .
 40216870 33113000 200905c6 f7ff0000 d03b2340  3.0. ........;#@
 40216880 e03b2340 e0471040 f8431040 68411040  .;#@.G.@.C.@hA.@
 40216890 0c431040 e8421040 12c1f009 01c91158  .C.@.B.@.......X
 402168a0 82cd0232 05060205 04303424 0000349c  ...2.....04$..4.
 402168b0 30263011 a630090c 12a6600b 0c028601  0&0..0....`.....
 402168c0 000c3246 00000c22 37121121 ecff315a  ..2F..."7..!..1Z
 402168d0 ff42a208 0143bfc0 000006ff ffc02c20  .B...C........, 
 402168e0 85ebffc0 2c20854b 0042c2ff 16b40a01  ...., .K.B......
 402168f0 5bf7c000 00286c38 8c01e2ff c0000001  [....(l8........
 40216900 58f7c000 002d0c01 e0ffc000 002d0c01  X....-.......-..
 40216910 dfffc000 000c0541 c3f85662 04014ff7  .......A..Vb..O.
 40216920 c0000061 c0f8788c 0c08897c 82070068  ...a..x....|...h
 40216930 46808234 b088118a 868878c9 08720700  F..4......x..r..
 40216940 52cc1c70 7234b077 117a6659 760144f7  R..pr4.w.zfYv.D.
 40216950 c0000028 8c220206 20242401 cdffc000  ...(.".. $$.....
 40216960 00061300 66122768 8c597c82 06007844  ....f.'h.Y|...xD
 40216970 80810470 88b08228 47c90862 060032cc  ...p...(G..b..2.
 40216980 1c606104 7066b032 66470c02 46080066  .`a.pf.2fG..F..f
 40216990 22f721bb ff0112bf c0000001 30f7c000  ".!.........0...
 402169a0 002d0c01 bcffc000 00012df7 c000000c  .-........-.....
 402169b0 12c81108 0112c110 0df00000 719af80c  ............q...
 402169c0 18784762 a0b86a67 52068000 03405040  .xGb..jgR....@P@
 402169d0 b1076403 2d080df0 00134070 93a000a8  ..d.-.....@p....
 402169e0 a1a0a520 a2468022 694f0c02 0df00000  ... .F."iO......
 402169f0 22a00012 c1f00261 00857fff 02210012  "......a.....!..
 40216a00 c1100df0 8431ff3f f83b1040 12c1f0c9  .....1.?.;.@....
 40216a10 11d921e9 310901e2 a0f54601 000128c2  ..!.1.....F...(.
 40216a20 c0000001 f9ffc000 0020c220 163209d2  ......... . .2..
 40216a30 22046222 01cb5d59 16020d08 8c10e790  ".b"..]Y........
 40216a40 db2d0c3d 0d050900 5672fd02 0d03913a  .-.=....Vr.....:
 40216a50 c047e002 67600400 8741ac08 92096426  .G..g`...A....d&
 40216a60 191b57e0 0400a741 acfab1e6 ffb20b00  ..W....A........
 40216a70 661b322d 0c0112c2 c0000006 e9ffc03c  f.2-...........<
 40216a80 2052a000 422c0421 6ebf4204 00284280   R..B,.!n.B..(B.
 40216a90 44014048 31459e06 c6e1ff2d 0c0108c2  D.@H1E.....-....
 40216aa0 c0000006 dfffc03c 2052a000 422c0421  .......< R..B,.!
 40216ab0 64bf4204 00285280 44014048 31c5f801  d.B..(R.D.@H1...
 40216ac0 c6d7ffc8 11d821e8 31080112 c1100df0  ......!.1.......
 40216ad0 14361040 68471040 52a0f012 c1d0c261  .6.@hG.@R......a
 40216ae0 04226109 026103e9 61f971d9 510ccfdd  ."a..a..a.q.Q...
 40216af0 03e81201 4cf8e81e 32000642 0e008033  ....L...2..B...3
 40216b00 01f0f410 30383150 44104981 a6130d85  ....081PD.I.....
 40216b10 2af80144 f82b3230 32213240 06324d0b  *..D.+202!2@.2M.
 40216b20 320d0347 e3053046 0416f413 57e30930  2..G..0F....W..0
 40216b30 6741cc36 0c0c8600 00c2a002 668f2d85  gA.6........f.-.
 40216b40 9fff454d ff16b207 8560ff16 520752a0  ..EM.....`..R.R.
 40216b50 013134f8 2122fe0c 14424235 32130622  .14.!"...BB52.."
 40216b60 c2380c04 019ea9c0 00008615 00563f05  .8...........V?.
 40216b70 488166e4 4e2d0e01 d6ffc000 00520d01  H.f.N-.......R..
 40216b80 29115056 41cc9562 1d016060 b4690106  ).PVA..b..``.i..
 40216b90 0400721d 03821d02 00771180 77207078  ..r......w..w px
 40216ba0 f47901ab 2e8561ff 9c822891 58114801  .y....a...(.X.H.
 40216bb0 32ce1850 44c042c4 fc4040f4 4a4e42c4  2..PD.B..@@.JNB.
 40216bc0 18057dfe f62c452d 0cab3e39 21c59000  ..}..,E-..>9!...
 40216bd0 68913d0d 296601bf ffc00000 720d002d  h.=.)f......r..-
 40216be0 0c3b7772 4d000592 fd16b206 568f062d  .;wrM.......V..-
 40216bf0 0e01b7ff c0000082 0d018086 41ec0802  ............A...
 40216c00 1d010000 b4c60900 2d0c8591 fd0c02c8  ........-.......
 40216c10 41d851e8 61f87108 3112c130 0df00000  A.Q.a.q.1..0....
 40216c20 00021d03 321d0200 00113000 200008f4  ....2.....0. ...
 40216c30 32210826 b3043c05 57931c20 30c022ce  2!.&..<.W.. 0.".
 40216c40 1832c3fc 3030f43a 3e32c318 8553ff8c  .2..00.:>2...S..
 40216c50 522d0c38 218554ff 420e0152 0e046764  R-.8!.T.B..R..gd
 40216c60 ab0765a3 2d0cc58c fd06e8ff 57e30430  ..e.-.......W..0
 40216c70 67418c36 0c1c86b0 ff0c2c46 afff0000  gA.6......,F....
 40216c80 05080000 48662140 10c5fe3f f0692140  ....Hf!@...?.i!@
 40216c90 f0642140 10270000 c0270900 0c040c16  .d!@.'...'......
 40216ca0 12c1f031 e0f70901 0c003843 b020111b  ...1......8C. ..
 40216cb0 002a2349 62424227 00007452 c2185972  .*#IbBB'..tR..Yr
 40216cc0 6680e80c 000c75b0 20111b00 2a236242  f.....u. ...*#bB
 40216cd0 27524224 00007466 20ec4903 0c000060  'RB$..tf .I....`
 40216ce0 903050a0 4915f066 113a503b 266026b3  .0P.I..f.:P;&`&.
 40216cf0 1b000000 74202221 2b222245 146640dd  ....t "!+""E.f@.
 40216d00 0c0062a1 183020b0 42624602 c0016052  ..b..0 .BbF...`R
 40216d10 80526247 00007466 20ea4263 4c42634a  .RbG..tf .BcLBcJ
 40216d20 92a13082 a1288083 809a9392 634d8263  ..0..(......cM.c
 40216d30 4b61d3ff 7178bfc0 20006267 fec52e01  Ka..qx.. .bg....
 40216d40 21d1ff2c 0341d0ff 2c25010c cac00000  !..,.A..,%......
 40216d50 21f9fd31 ceff0c04 0120a9c0 00002198  !..1..... ....!.
 40216d60 fd31cbff 0c04b1af f7518dd6 01caff52  .1.......Q.....R
 40216d70 056aa1c9 ff0005c1 50a093a9 2b0116a9  .j......P...+...
 40216d80 c0000045 66ff0801 12c1100d f0000000  ...Ef...........
 40216d90 f83b2340 2b0a0000 00f00000 0ff80000  .;#@+...........
 40216da0 12c1f009 01088258 6202000d a2120b00  .......Xb.......
 40216db0 00348cd0 26101032 c0fe1683 0c42c0fd  .4..&..2.....B..
 40216dc0 1684120c 40460000 0c800aaa a2520bb1  ....@F.......R..
 40216dd0 4dbf8822 c0200092 18010099 11c02000  M..". ........ .
 40216de0 321800a1 18fc3099 20b09910 909c410a  2.....0. .....A.
 40216df0 999090b4 409911c0 20007218 01007711  ....@... .r...w.
 40216e00 c02000b2 1800b077 20a07710 907720c0  . .....w .w..w .
 40216e10 20007258 007070f5 c0200068 824c0368   .rX.pp.. .h.L.h
 40216e20 06725801 877606ec 350c1206 060042a0  .rX..v..5.....B.
 40216e30 bf0822c0 2000b200 0340bb10 30bb20c0  ..". ....@..0. .
 40216e40 2000b240 030c0208 0112c110 0df02c06   ..@..........,.
 40216e50 72a0df48 12c02000 32040370 33106033  r..H.. .2..p3.`3
 40216e60 20c02000 32440308 8202000d 00003426   . .2D........4&
 40216e70 30189c50 21c7ff31 f0fd41c6 ff01d8bd  0..P!..1..A.....
 40216e80 c0000006 ffff1c00 86cfff41 c2bf3212  ...........A..2.
 40216e90 0b28124a 33281241 c0ff0212 003030b4  .(.J3(.A.....00.
 40216ea0 40001030 00203202 02025200 52057462  @..0. 2...R.R.tb
 40216eb0 02010000 b44b8080 33116033 20872508  .....K..3.`3 .%.
 40216ec0 0005c000 02214600 000c0051 b4ff0040  .....!F....Q...@
 40216ed0 64c04411 50331040 33203242 0142a0cf  d.D.P3.@3 2B.B..
 40216ee0 30387440 33103242 0206d6ff 0cc006b6  08t@3.2B........
 40216ef0 ff000000 30c6fe3f 2eba0000 175d0000  ....0..?.....]..
 40216f00 c00f0000 aaaa0000 c7710000 55550000  .........q..UU..
 40216f10 e3380000 aa2a0000 711c0000 55150000  .8...*..q...U...
 40216f20 f6120000 899d0000 c44e0000 83340000  .........N...4..
 40216f30 62270000 411a0000 b1130000 81110000  b'..A...........
 40216f40 c88d0000 e4460000 422f0000 72230000  .....F..B/..r#..
 40216f50 a1170000 b9110000 2d0e0000 91e7ff41  ........-......A
 40216f60 dab2b1da b271e5ff 0c750c36 0c020c1a  .....q...u.6....
 40216f70 31e1ff0c 28824336 82431482 43158243  1...(.C6.C..C..C
 40216f80 16a2432e a2430ca2 430da243 0e224304  ..C..C..C..C."C.
 40216f90 22430522 43062243 2662433e 62431c62  "C."C."C&bC>bC.b
 40216fa0 431d6243 1e52433c 52433d52 43465243  C.bC.RC<RC=RCFRC
 40216fb0 6679e379 63b9a3b9 23490399 c3994349  fy.yc...#I....CI
 40216fc0 8391cfff 0cb40cab 0c677243 34724335  .........grC4rC5
 40216fd0 72434e72 436e7243 9e7243a6 7243ae72  rCNrCnrC.rC.rC.r
 40216fe0 43b67243 be7243de 7243e672 43ee7243  C.rC.rC.rC.rC.rC
 40216ff0 f67243fe b24354b2 4355b243 74b24375  .rC..CT.CU.Ct.Cu
 40217000 b2438cb2 438db243 94b24395 b243ccb2  .C..C..C..C..C..
 40217010 43cdb243 d4b243d5 42435c42 435d4243  C..C..C.BC\BC]BC
 40217020 7c42437d 42438442 43854243 c44243c5  |BC}BC.BC.BC.BC.
 40217030 92632e92 633c51b4 ff61b2ff 0c420c5a  .c..c<Q..a...B.Z
 40217040 0c988243 4c82434d 82436c82 436d8243  ...CL.CM.Cl.Cm.C
 40217050 44824345 82436482 43658243 9c82439d  D.CE.Cd.Ce.C..C.
 40217060 8243a482 43a58243 ac8243ad 8243b482  .C..C..C..C..C..
 40217070 43b58243 bc8243bd 8243dc82 43dd8243  C..C..C..C..C..C
 40217080 e48243e5 8243ec82 43ed8243 f48243f5  ..C..C..C..C..C.
 40217090 8243fc82 43fda243 2ca2432d a24356a2  .C..C..C,.C-.CV.
 402170a0 4376a243 8ea24396 a243cea2 43d62243  Cv.C..C..C..C."C
 402170b0 24224325 22435e22 437e2243 862243c6  $"C%"C^"C~"C."C.
 402170c0 62631652 631e9195 ff926310 5198ff61  bc.Rc.....c.Q..a
 402170d0 96ff6263 22526324 919aff92 6330519c  ..bc"Rc$....c0Q.
 402170e0 ff619aff 62633652 63382189 ff4187ff  .a..bc6Rc8!..A..
 402170f0 42631422 631c418e ff218eff a187ffa2  Bc."c.A..!......
 40217100 631a2263 28426326 2194ffb1 82ff4191  c."c(Bc&!.....A.
 40217110 ffa18aff a2632c42 633ab263 1222633e  .....c,Bc:.c."c>
 40217120 b186ff71 80ff7263 20b2632a 7187ff72  ...q..rc .c*q..r
 40217130 6334817b ff826318 8183ff82 63320df0  c4.{..c.....c2..
 40217140 12c1f009 0102a15f 07c20505 e1ffc60b  ......._........
 40217150 004168ff 0c580c75 0c320b93 0c170c06  .Ah..X.u.2......
 40217160 90678360 25936078 9372445c 72447c72  .g.`%.`x.rD\rD|r
 40217170 44542244 7422444c 22446c22 44442244  DT"Dt"DL"Dl"DD"D
 40217180 640c0208 0112c110 0df00000 8cd30c06  d...............
 40217190 62420acb 221b6660 60746793 f20df000  bB..".f``tg.....
 402171a0 e4451040 1482fe3f 6081fe3f 74451040  .E.@...?`..?tE.@
 402171b0 b481fe3f 10461040 0c380c07 12c1f091  ...?.F.@.8......
 402171c0 f8ff3242 150901c9 1101f6ff cd022222  ..2B..........""
 402171d0 1762c0dc 16420726 1231626c 1a724c04  .b...B.&.1bl.rL.
 402171e0 824c0592 6c1b026c 182d0c02 6c1901f1  .L..l..l.-..l...
 402171f0 ffc00000 02a07f02 4c00024c 01024c02  ........L..L..L.
 40217200 024c03c8 11080112 c1100df0 724c04b1  .L..........rL..
 40217210 e8ff0c79 0ca651e4 ffa1e4ff a26c1b22  ...y..Q......l."
 40217220 c5a04069 93624c05 40258322 6c1ae6a3  ..@i.bL.@%."l...
 40217230 2c0ca08c 34b68001 0c700000 902000a0  ,...4....p... ..
 40217240 026c1802 cba0400b 8306e7ff 626c1a72  .l....@.....bl.r
 40217250 4c04824c 05926c1b 026c1886 e2ff1c05  L..L..l..l......
 40217260 3725040c 5086f2ff 1c563726 040d0806  7%..P....V7&....
 40217270 f0ff0c20 1ce88723 b90d0706 edff0000  ... ...#........
 40217280 30c7fe3f 2082fe3f b082fe3f 0081fe3f  0..? ..?...?...?
 40217290 f081fe3f 41fbff0c 0512c1f0 09015244  ...?A.........RD
 402172a0 046b048b 44524000 1b004790 f721f5ff  .k..DR@...G..!..
 402172b0 0cc385ed ff21f4ff 0c9305ed ff21baff  .....!.......!..
 402172c0 0cb385ec ff21f1ff 0c8305ec ff21f0ff  .....!.......!..
 402172d0 0c4385eb ff080112 c1100df0 40c7fe3f  .C..........@..?
 402172e0 21ffff0d f0000000 0df00000 9ca23202  !.............2.
 402172f0 1442a0fe 4033100c 14403320 42a0fb40  .B..@3...@3 B..@
 40217300 33100c44 40332032 42140df0 9c023202  3..D@3 2B.....2.
 40217310 1442a0fe 40331042 a0fb4033 10324214  .B..@3.B..@3.2B.
 40217320 0df00000 303c2340 203c2340 0c1981eb  ....0<#@ <#@....
 40217330 ff12c1e0 d9413901 f9610921 e951c931  .....A9..a.!.Q.1
 40217340 72c8f0cd 04e2c8f6 eae2000c 404d0502  r...........@M..
 40217350 07044911 00509107 652bf20e 00f0f091  ..I..P..e+......
 40217360 076f7f0c 64d2a078 c0ddc1da d8f2cd1a  .o..d..x........
 40217370 2d0f0111 c3c00000 56720671 c1ff0c19  -.......Vr.q....
 40217380 02070406 030022c8 1af2a078 c0ffc18a  ......"....x....
 40217390 df2aff00 1c400029 a1003220 32470402  .*...@.)..2 2G..
 402173a0 0e0032a0 78200020 2d0d024e 000150bd  ..2.x . -..N..P.
 402173b0 c000002d 0fc24d76 48113801 425d100c  ...-..MvH.8.B]..
 402173c0 64011bad c000003d 0c21d6ff 0185bcc0  d......=.!......
 402173d0 00000821 c831e851 2d0df861 d84112c1  ...!.1.Q-..a.A..
 402173e0 200df021 d1ff017e bcc00000 0c0d06f8   ..!...~........
 402173f0 ff000000 21a3ff22 02040df0 36c7fe3f  ....!.."....6..?
 40217400 403c2340 503c2340 12c1f009 11c92101  @<#@P<#@......!.
 40217410 fbffcd04 0a424901 42040000 0c404040  .....BI.B....@@@
 40217420 91076446 ab2042a0 78c044d1 4a2222c2  ..dF. B.x.D.J"".
 40217430 1a0c6401 e1c2c000 00ece221 f1ff9801  ..d........!....
 40217440 7cf8618f ff001c40 0c170077 a1520604  |.a....@...w.R..
 40217450 80773082 09007055 10524604 70881082  .w0...pU.RF.p...
 40217460 4900015f bcc00000 06020021 e6ff015c  I.._.......!...\
 40217470 bcc00000 c8210811 12c1100d f0000000  .....!..........
 40217480 6180ff0c 03720604 6b464a42 52040032  a....r..kFJBR..2
 40217490 44007055 30524604 0df00000 12c1f009  D.pU0RF.........
 402174a0 1101d6ff 0a022200 00290101 ebf3c000  ......"..)......
 402174b0 0052a078 48010811 40306012 c1104033  .R.xH...@0`...@3
 402174c0 100b4230 f3403030 602184ff 32c31f50  ..B0.@00`!..2..P
 402174d0 33823a22 0c034023 930df000 12c1e0d9  3.:"..@#........
 402174e0 21f94109 01c911c1 c5ffe931 cac2c20c  !.A........1....
 402174f0 00ed03c0 d060c0dd 10d0fd40 d0d060d2  .....`.....@..`.
 40217500 cd1f96fd 023d0e0c 64f174ff 02a07800  .....=..d.t...x.
 40217510 0d820aff 22cf1a01 a8c2c000 00ac527c  ....".........R|
 40217520 f0001d40 0c1f00ff a100ff30 f0cc10c0  ...@.......0....
 40217530 c07446ef ff0c02c8 11d821e8 31f84108  .tF.......!.1.A.
 40217540 0112c120 0df02d0f c6faff00 414dff00  ... ..-.....AM..
 40217550 02403204 0452c410 30309107 630932a0  .@2..R..00..c.2.
 40217560 782023c1 2a250df0 0c020df0 2145ff12  x #.*%......!E..
 40217570 c1f00901 22020401 b8f3c000 00080166  ...."..........f
 40217580 120f413f ff0c1342 04060c02 40238346  ..A?...B....@#.F
 40217590 00007cf2 12c1100d f0000000 00a08000  ..|.............
 402175a0 f7bfdf7f 91feff81 6ae731ee c0c02000  ........j.1... .
 402175b0 7223a290 7720c020 007263a2 61f9ffc0  r#..w . .rc.a...
 402175c0 20005223 a2605510 c0200052 63a20c84   .R#.`U.. .Rc...
 402175d0 c0200022 23a44022 20c02000 2263a40c  . ."#.@" . ."c..
 402175e0 3bc02000 a223a5b0 aa20c020 00a263a5  ;. ..#... . ..c.
 402175f0 92af0fc0 20007828 907710c0 20007928  .... .x(.w.. .y(
 40217600 62af000c 45c02000 42239b60 44105044  b...E. .B#.`D.PD
 40217610 20c02000 42639b21 31e2b2a4 00c02000   . .Bc.!1..... .
 40217620 a2239b20 aa10b0aa 20c02000 a2639b91  .#. .... . ..c..
 40217630 cddd82a0 f0c02000 72238590 77108077  ...... .r#..w..w
 40217640 20c02000 72638561 79a9c020 00522385   . .rc.ay.. .R#.
 40217650 605520c0 20005263 854100d3 c0200022  `U . .Rc.A... ."
 40217660 23854022 20c02000 2263850d f0000000  #.@" . ."c......
 40217670 000000c4 41ffff31 36e7c020 00222396  ....A..16.. ."#.
 40217680 402220c0 20002263 960df000 ffffff3b  @" . ."c.......;
 40217690 41ffff31 2fe7c020 00222396 402210c0  A..1/.. ."#.@"..
 402176a0 20002263 960df000 1c83fe3f 31ffff29   ."c.......?1..)
 402176b0 130df000 12c1f009 0145fdff 312ffb0c  .........E..1/..
 402176c0 00026368 2123e7c0 20000262 97c02000  ..ch!#.. ..b.. .
 402176d0 02629805 faff0801 12c1100d f0000000  .b..............
 402176e0 511ce771 25fb61f0 ff12c1f0 09016816  Q..q%.a.......h.
 402176f0 0227686a 00c02000 22259220 20c02736  .'hj.. ."%.  .'6
 40217700 f132a3e8 02676801 cba6c000 00080112  .2...gh.........
 40217710 c1100df0 98250000 30cdfe3f 20f3fe3f  .....%..0..? ..?
 40217720 a012ff3f 18f3fe3f 001aff3f ffffffdf  ...?...?...?....
 40217730 404f0040 b8581040 4c8351f6 ff62a644  @O.@.X.@L.Q..b.D
 40217740 0c1741f5 ff12c1d0 c951d961 e971f981  ..A......Q.a.q..
 40217750 0941f1d5 ff2d0488 0f42c450 cb080911  .A...-...B.P....
 40217760 8b888901 01f3ffc0 0000c18b fd080f0c  ................
 40217770 65d82052 5000165d 06e1b2f9 c0200092  e. RP..]..... ..
 40217780 1d009090 b492c9fc 9090b4c0 2000821d  ............ ...
 40217790 00c08810 908820c0 2000825d 00c02000  ...... . ..].. .
 402177a0 721d0070 70b44077 11c02000 621d0100  r..pp.@w.. .b...
 402177b0 6611c020 00821d00 806620e0 66107066  f.. .....f .f.pf
 402177c0 20c02000 625d0060 60f5c020 00625d01   . .b].``.. .b].
 402177d0 2d0d01d8 ffc00000 d82d56ed f9080f3c  -........-V....<
 402177e0 c3510fac 62a6400c 0721ccff a2c02cb2  .Q..b.@..!....,.
 402177f0 c028b901 a91142c2 4001cdff c0000008  .(....B.@.......
 40217800 0f0c0ee9 8092c024 e2500199 70d1c4ff  .......$.P..p...
 40217810 0c49c020 0082100c c0881090 8820c020  .I. ......... . 
 40217820 0082500c 82a080c0 20007200 1b707064  ..P..... .r..ppd
 40217830 807720c0 20007240 1b62a0bf c0200052  .w . .r@.b... .R
 40217840 001b6055 10c02000 52401b42 a0dfc020  ..`U.. .R@.B... 
 40217850 0032001b 403310c0 200042cd 6052a700  .2..@3.. .B.`R..
 40217860 62a1000c 1732401b 22c0305c 43290102  b....2@.".0\C)..
 40217870 c0342d0d 091101ae ffc00000 f80f0c78  .4-............x
 40217880 824f04b1 19c6c020 0071a3ff 726ba061  .O..... .q..rk.a
 40217890 a5ffc020 00626b9f c02000d2 6ba251a2  ... .bk.. ..k.Q.
 402178a0 ffc02000 526ba142 af00c020 00322b80  .. .Rk.B... .2+.
 402178b0 403310c0 2000326b 80282fc0 2000226b  @3.. .2k.(/. ."k
 402178c0 8208cfc0 2000026b 83e24f05 c02000e2  .... ..k..O.. ..
 402178d0 6b84c196 ffc02000 a22b80c0 aa10c020  k..... ..+..... 
 402178e0 00a26b80 c851d861 e871f881 084112c1  ..k..Q.a.q...A..
 402178f0 300df000 10325076 bbbbbbbb 41feff21  0....2Pv....A..!
 40217900 feff3121 f1c02000 426380c0 20002263  ..1!.. .Bc.. ."c
 40217910 81c02000 2263820d f0000000 ffefffff  .. ."c..........
 40217920 12c1f009 0172a707 21f0c5c0 20006222  .....r..!... .b"
 40217930 9b706620 c0200062 629b6cf5 c0200042  .pf . .bb.l.. .B
 40217940 229b5044 10c02000 42629b31 f4ffc020  ".PD.. .Bb.1... 
 40217950 0002229b 300010c0 20000c03 02629b0c  ..".0... ....b..
 40217960 040c02c5 13000c02 0c130c04 05130008  ................
 40217970 0112c110 0df00000 00039f00 12c1f009  ................
 40217980 010c0321 f8bfc020 00326286 7cf0c020  ...!... .2b.|.. 
 40217990 00026289 c5c0ff85 3c00c5d9 ffc5f5ff  ..b.....<.......
 402179a0 c5f7ff91 f5ff51d0 c5c02000 a1eebf92  ......Q... .....
 402179b0 6a860c28 c0200072 25de8077 20c02000  j..(. .r%..w . .
 402179c0 7265de61 92a8c020 00422581 604410c0  re.a... .B%.`D..
 402179d0 20004265 81080112 c1100df0 000b0700   .Be............
 402179e0 070c0700 41e9f08c 9231fcff c0200032  ....A....1... .2
 402179f0 64830df0 21fbffc0 20002264 830df000  d...!... ."d....
 40217a00 7cf98133 b0720303 52030162 03008055  |..3.r..R..b...U
 40217a10 11605520 62030280 77010066 11706620  .`U b...w..f.pf 
