
user1.elf:     file format elf32-xtensa-le
user1.elf
architecture: xtensa, flags 0x00000112:
EXEC_P, HAS_SYMS, D_PAGED
start address 0x40100004

Xtensa header:

Machine     = Base
Insn tables = true
Literal tables = true

Program Header:
    LOAD off    0x000000d4 vaddr 0x00000000 paddr 0x00000000 align 2**0
         filesz 0x00000000 memsz 0x00000000 flags ---
    LOAD off    0x000000e0 vaddr 0x3ffe8000 paddr 0x3ffe8000 align 2**0
         filesz 0x00000d7c memsz 0x00000d7c flags rw-
    LOAD off    0x00000e60 vaddr 0x3ffe8d80 paddr 0x3ffe8d80 align 2**0
         filesz 0x00000000 memsz 0x0000a218 flags rw-
    LOAD off    0x00000e5c vaddr 0x40100000 paddr 0x40100000 align 2**0
         filesz 0x000074f4 memsz 0x000074f4 flags r-x
    LOAD off    0x00008350 vaddr 0x40201010 paddr 0x40201010 align 2**0
         filesz 0x0002b8c4 memsz 0x0002b8c4 flags r-x

Sections:
Idx Name          Size      VMA       LMA       File off  Algn
  0 .data         00000544  3ffe8000  3ffe8000  000000e0  2**4
                  CONTENTS, ALLOC, LOAD, DATA
  1 .rodata       0000082c  3ffe8550  3ffe8550  00000630  2**4
                  CONTENTS, ALLOC, LOAD, DATA
  2 .bss          0000a218  3ffe8d80  3ffe8d80  00000e60  2**4
                  ALLOC
  3 .irom0.text   0002b8c4  40201010  40201010  00008350  2**4
                  CONTENTS, ALLOC, LOAD, READONLY, CODE
  4 .text         000074f4  40100000  40100000  00000e5c  2**2
                  CONTENTS, ALLOC, LOAD, READONLY, CODE
  5 .xtensa.info  00000038  00000000  00000000  00033c14  2**0
                  CONTENTS, READONLY
  6 .xt.prop      00025254  00000000  00000000  00033c4c  2**0
                  CONTENTS, READONLY
  7 .xt.lit       00001330  00000000  00000000  00058ea0  2**0
                  CONTENTS, READONLY
  8 .comment      00001586  00000000  00000000  0005a1d0  2**0
                  CONTENTS, READONLY
  9 .xt.prop._ZTV6Stream 0000000c  00000000  00000000  0005b756  2**0
                  CONTENTS, READONLY
 10 .xt.prop._ZTV14HardwareSerial 0000000c  00000000  00000000  0005b762  2**0
                  CONTENTS, READONLY
 11 .xt.prop._ZTV5Print 0000000c  00000000  00000000  0005b76e  2**0
                  CONTENTS, READONLY
 12 .debug_line   00003b6b  00000000  00000000  0005b77a  2**0
                  CONTENTS, READONLY, DEBUGGING
 13 .debug_info   00002560  00000000  00000000  0005f2e5  2**0
                  CONTENTS, READONLY, DEBUGGING
 14 .debug_abbrev 00000707  00000000  00000000  00061845  2**0
                  CONTENTS, READONLY, DEBUGGING
 15 .debug_aranges 00000378  00000000  00000000  00061f50  2**3
                  CONTENTS, READONLY, DEBUGGING
 16 .debug_frame  000000d0  00000000  00000000  000622c8  2**2
                  CONTENTS, READONLY, DEBUGGING
 17 .debug_loc    00001693  00000000  00000000  00062398  2**0
                  CONTENTS, READONLY, DEBUGGING
 18 .debug_str    000002ce  00000000  00000000  00063a2b  2**0
                  CONTENTS, READONLY, DEBUGGING
 19 .debug_ranges 000000f8  00000000  00000000  00063cf9  2**0
                  CONTENTS, READONLY, DEBUGGING
SYMBOL TABLE:
3ffe8000 l    d  .data	00000000 .data
3ffe8550 l    d  .rodata	00000000 .rodata
3ffe8d80 l    d  .bss	00000000 .bss
40201010 l    d  .irom0.text	00000000 .irom0.text
40100000 l    d  .text	00000000 .text
00000000 l    d  .xtensa.info	00000000 .xtensa.info
00000000 l    d  .xt.prop	00000000 .xt.prop
00000000 l    d  .xt.lit	00000000 .xt.lit
00000000 l    d  .comment	00000000 .comment
00000000 l    d  .xt.prop._ZTV6Stream	00000000 .xt.prop._ZTV6Stream
00000000 l    d  .xt.prop._ZTV14HardwareSerial	00000000 .xt.prop._ZTV14HardwareSerial
00000000 l    d  .xt.prop._ZTV5Print	00000000 .xt.prop._ZTV5Print
00000000 l    d  .debug_line	00000000 .debug_line
00000000 l    d  .debug_info	00000000 .debug_info
00000000 l    d  .debug_abbrev	00000000 .debug_abbrev
00000000 l    d  .debug_aranges	00000000 .debug_aranges
00000000 l    d  .debug_frame	00000000 .debug_frame
00000000 l    d  .debug_loc	00000000 .debug_loc
00000000 l    d  .debug_str	00000000 .debug_str
00000000 l    d  .debug_ranges	00000000 .debug_ranges
00000000 l    df *ABS*	00000000 libc_replacements.c
3ffe90f0 l     O .bss	00000004 ret$3404
3ffe90ec l     O .bss	00000004 ret$3418
3ffe90f4 l     O .bss	00000004 errno_var
00000000 l    df *ABS*	00000000 user_main.cpp
00000000 l    df *ABS*	00000000 core_esp8266_main.cpp
3ffe90fc l     O .bss	00000004 _ZL22g_micros_at_task_start
3ffe9108 l     O .bss	00001020 _ZL6g_cont
3ffe90f8 l     O .bss	00000001 _ZZ12loop_wrappervE10setup_done
3ffe9100 l     O .bss	00000008 _ZL12g_loop_queue
00000000 l    df *ABS*	00000000 Blink.cpp
00000000 l    df *ABS*	00000000 cont_util.c
00000000 l    df *ABS*	00000000 core_esp8266_wiring.c
3ffea198 l     O .bss	00000004 micros_at_last_overflow_tick
3ffea194 l     O .bss	00000004 micros_overflow_count
3ffea1b0 l     O .bss	00000014 delay_timer
3ffea19c l     O .bss	00000014 micros_overflow_timer
00000000 l    df *ABS*	00000000 core_esp8266_wiring_digital.c
3ffe8560 l     O .rodata	00000010 esp8266_gpioToFn
3ffea1c8 l     O .bss	00000004 interrupt_reg
3ffea1cc l     O .bss	00000080 interrupt_handlers
00000000 l    df *ABS*	00000000 cont.o
40101305 l       .text	00000000 cont_continue
40101350 l       .text	00000000 cont_ret
40101340 l       .text	00000000 cont_resume
4010134c l       .text	00000000 cont_norm
00000000 l    df *ABS*	00000000 HardwareSerial.cpp
40201ffc l     F .irom0.text	00000026 _Z21uart_wait_for_tx_fifoP5uart_j$part$3
40202024 l     F .irom0.text	00000023 _Z21uart_get_tx_fifo_roomP5uart_$part$4
4020219c l     F .irom0.text	0000001d _Z14uart_set_debugi$part$7
3ffea294 l     O .bss	00000004 _ZL15s_uart_debug_nr
40202c04 l     F .irom0.text	00000034 _GLOBAL__sub_I_Serial
00000000 l    df *ABS*	00000000 Print.cpp
00000000 l    df *ABS*	00000000 abi.cpp
00000000 l    df *ABS*	00000000 core_esp8266_timer.c
00000000 l    df *ABS*	00000000 s_fpclassify.c
00000000 l    df *ABS*	00000000 w_atan2.c
00000000 l    df *ABS*	00000000 w_cosh.c
00000000 l    df *ABS*	00000000 w_exp.c
3ffe8578 l     O .rodata	00000008 o_threshold
3ffe8580 l     O .rodata	00000008 u_threshold
00000000 l    df *ABS*	00000000 w_hypot.c
00000000 l    df *ABS*	00000000 w_log.c
00000000 l    df *ABS*	00000000 w_log10.c
00000000 l    df *ABS*	00000000 w_sinh.c
00000000 l    df *ABS*	00000000 w_sqrt.c
00000000 l    df *ABS*	00000000 wf_atan2.c
00000000 l    df *ABS*	00000000 wf_cosh.c
00000000 l    df *ABS*	00000000 wf_exp.c
3ffe85c0 l     O .rodata	00000004 o_threshold
3ffe85c4 l     O .rodata	00000004 u_threshold
00000000 l    df *ABS*	00000000 wf_hypot.c
00000000 l    df *ABS*	00000000 wf_log.c
00000000 l    df *ABS*	00000000 wf_log10.c
00000000 l    df *ABS*	00000000 wf_sinh.c
00000000 l    df *ABS*	00000000 wf_sqrt.c
00000000 l    df *ABS*	00000000 s_fabs.c
00000000 l    df *ABS*	00000000 s_finite.c
00000000 l    df *ABS*	00000000 s_lib_ver.c
00000000 l    df *ABS*	00000000 s_matherr.c
00000000 l    df *ABS*	00000000 s_nan.c
00000000 l    df *ABS*	00000000 sf_fabs.c
00000000 l    df *ABS*	00000000 sf_finite.c
00000000 l    df *ABS*	00000000 sf_fpclassify.c
00000000 l    df *ABS*	00000000 _addsubdf3.o
40101498 l       .text	00000000 __adddf3_aux
401015e4 l       .text	00000000 __subdf3_aux
00000000 l    df *ABS*	00000000 _muldf3.o
40101790 l       .text	00000000 __muldf3_aux
00000000 l    df *ABS*	00000000 _divdf3.o
40101a2c l       .text	00000000 __divdf3_aux
00000000 l    df *ABS*	00000000 libgcc2.c
00000000 l    df *ABS*	00000000 int_asm--set_intclear.o
00000000 l       *ABS*	00000000 .callsz
00000000 l       *ABS*	00000000 .locsz
00000000 l    df *ABS*	00000000 core_esp8266_noniso.c
00000000 l    df *ABS*	00000000 _addsubsf3.o
40106620 l       .text	00000000 __addsf3_aux
40106704 l       .text	00000000 __subsf3_aux
00000000 l    df *ABS*	00000000 _mulsf3.o
40106820 l       .text	00000000 __mulsf3_aux
00000000 l    df *ABS*	00000000 _divsf3.o
40106980 l       .text	00000000 __divsf3_aux
00000000 l    df *ABS*	00000000 libgcc2.c
00000000 l    df *ABS*	00000000 libgcc2.c
00000000 l    df *ABS*	00000000 libgcc2.c
00000000 l    df *ABS*	00000000 libgcc2.c
00000000 l    df *ABS*	00000000 
3ffe8f44 g     O .bss	00000024 info
3fff2704 g     O .bss	00000004 current_iphdr_src
4021a15c g     F .irom0.text	0000002e chm_check_same_channel
4022a824 g     F .irom0.text	00000025 aes_encrypt_deinit
4020d958 g     F .irom0.text	000000d7 cal_rf_ana_gain
40205284 g     F .irom0.text	00000008 system_init_done_cb
4022c5b0 g     F .irom0.text	00000017 inet_chksum
40220350 g     F .irom0.text	0000000f raw_bind
4020f6cc g     F .irom0.text	00000002 chip_v6_get_sense
402122ac g     F .irom0.text	0000001d pm_force_scan_unlock
40225ab0 g     F .irom0.text	00000091 wpa_get_ntp_timestamp
4021fdec g     F .irom0.text	00000048 pbuf_realloc
3ffe800a g     O .data	00000001 dhcps_flag
40224338 g     F .irom0.text	00000012 espconn_mdns_server_register
40100860 g     F .text	00000028 pvPortCalloc
402029c4 g     F .irom0.text	0000000b _ZNK14HardwareSerialcvbEv
401010bc g     F .text	00000013 strcpy
402056a0 g     F .irom0.text	00000098 wifi_param_save_protect
40204d20 g     F .irom0.text	00000100 system_upgrade_reboot
40221f4c g     F .irom0.text	00000010 tcp_next_iss
4022a924 g     F .irom0.text	00000085 system_upgrade_init
40218210 g     F .irom0.text	00000031 ieee80211_phy_init
4020e1e8 g     F .irom0.text	000001b6 rc_cal
402136b8 g     F .irom0.text	0000003f rc_get_sta_trc
40207d5c g     F .irom0.text	00000037 _ZN5Print7printlnERK6String
402246bc g     F .irom0.text	0000002e igmp_report_groups
402217e4 g     F .irom0.text	00000042 tcp_update_rcv_ann_wnd
4020a7f4 g     F .irom0.text	000001bd tx_cap_init
3fff17f0 g     O .bss	00000001 auth_type
40213890 g     F .irom0.text	00000017 wDev_Enable_Beacon_Tsf
40202cc0 g     F .irom0.text	00000019 _Znaj
40201030 g     F .irom0.text	00000041 _Z9loop_taskP11ETSEventTag
40203cc4 g     F .irom0.text	0000003e fabs
40105448 g     F .text	0000003f wDev_EnableTransmit
40201100  w    F .irom0.text	00000021 yield
4000ba48 g       *ABS*	00000000 sha1_prf
3ffea2a8 g     O .bss	00000001 rxdc_init_flag
402031a8 g     F .irom0.text	00000111 log
402044e0 g     F .irom0.text	00000007 xPortGetFreeHeapSize
3fff2714 g     O .bss	00000004 netif_list
402034e4 g     F .irom0.text	000000da sqrt
4021bc64 g     F .irom0.text	00000020 dhcp_cleanup
402143f8 g     F .irom0.text	00000044 ieee80211_ifattach
4021c9fc g     F .irom0.text	00000022 node_remove_from_list
40229980 g     F .irom0.text	00000034 rsn_pmkid
40226040 g     F .irom0.text	0000003e wpa_auth_sta_init
40202ea8 g     F .irom0.text	000000d6 cosh
40208014 g     F .irom0.text	0000002b _ZN5Print7printlnEji
40101c38 g     F .text	00000000 .hidden __eqdf2
40222a30 g     F .irom0.text	00000145 tcp_rst
4010548c g     F .text	0000001e wDev_DisableTransmit
40223e3c g     F .irom0.text	0000006e espconn_get_keepalive
40220220 g     F .irom0.text	0000004f pbuf_memfind
40106b70 g     F .text	000003eb .hidden __divdi3
40205e34 g     F .irom0.text	000000a0 wifi_station_disconnect
4021b280 g     F .irom0.text	0000005f cnx_node_alloc
40100efc g     F .text	00000056 system_rtc_mem_read
40207a98 g     F .irom0.text	00000052 _Z13at_upDate_rspPv
40207e14 g     F .irom0.text	00000035 _ZN5Print7printlnERK9Printable
40202880 g     F .irom0.text	0000000a _ZN14HardwareSerial11isTxEnabledEv
4000a2cc g       *ABS*	00000000 hmac_md5
40207990 g     F .irom0.text	0000000f __ieee754_sinh
402114a8 g     F .irom0.text	00000002 pm_idle_sleep
402134b0 g     F .irom0.text	00000048 rcAttach
3ffe8d7c g       *ABS*	00000000 _bss_table_end
40207618 g     F .irom0.text	0000009d strtok_r
4022372c g     F .irom0.text	0000001c espconn_pbuf_create
3ffea64f g     O .bss	00000001 loop_pwctrl_correct_atten_high_power
4021f028 g     F .irom0.text	00000021 etharp_request
4020dcbc g     F .irom0.text	0000009c txiq_get_mis_pwr
3ffea1c4 g     O .bss	00000004 interruptsState
40100fb8 g     F .text	00000030 printf
4021bc88 g     F .irom0.text	000000af dhcp_start
4021271c g     F .irom0.text	00000033 reset_noise_timer
4020a794 g     F .irom0.text	0000002c stop_dig_rx
402163cc g     F .irom0.text	000002fe ieee80211_parse_beacon
4020b350 g     F .irom0.text	0000004f target_power_backoff
40206574 g     F .irom0.text	000000b7 wifi_softap_deauth
40221e88 g     F .irom0.text	00000005 tcp_err
3ffe86ac g     O .rodata	00000004 ip_addr_any
40205870 g     F .irom0.text	000000b6 wifi_station_get_ap_info
4022c400 g     F .irom0.text	000000c9 inet_chksum_pseudo
fffff00f g       *ABS*	00000000 _memmap_cacheattr_unused_mask
4021bde0 g     F .irom0.text	00000046 dhcp_network_changed
40207d44 g     F .irom0.text	00000018 _ZN5Print7printlnEv
40207f44 g     F .irom0.text	0000002b _ZN5Print7printlnEii
40100698 g     F .text	000000b7 ets_timer_arm_new
402235ec g     F .irom0.text	00000033 udp_remove
402079a0 g     F .irom0.text	0000000f __ieee754_hypot
4020a0cc g     F .irom0.text	0000013e gen_rx_gain_table
4020c5a4 g     F .irom0.text	00000053 tx_cont_dis
40216aa8 g     F .irom0.text	00000004 ieee80211_setup_rateset
40202a08 g     F .irom0.text	000000d5 _ZN14HardwareSerial13_tx_empty_irqEv
4021f7e0 g     F .irom0.text	00000019 ip_output_if
3ffe8044 g     O .data	00000001 tx_pwctrl_atten_init_en
402022f4 g     F .irom0.text	0000005e _Z10uart_flushP5uart_
4021054c g     F .irom0.text	00000102 sleep_reset_analog_rtcreg_8266
40206638 g     F .irom0.text	000000a5 wifi_set_phy_mode
40205850 g     F .irom0.text	00000011 wifi_station_get_config_default
3ffea94e g     O .bss	00000001 dbg_stop_hw_wdt
40223a68 g     F .irom0.text	00000034 espconn_tcp_set_max_con_allow
4020ce74 g     F .irom0.text	00000062 reduce_current_init
4020d8c0 g     F .irom0.text	0000008b get_sar_dout
401074f4 g       *ABS*	00000000 _lit4_end
4022a280 g     F .irom0.text	00000039 wpa_sm_alloc_eapol
3ffe8514 g     O .data	00000018 tkip
4021fea0 g     F .irom0.text	00000078 pbuf_free
40221e78 g     F .irom0.text	00000005 tcp_recv
401069fc g     F .text	00000000 .hidden __divsf3
3ffe8090 g     O .data	00000004 tcb
00000110 g       *ABS*	00000000 _memmap_cacheattr_wt_base
4021ff3c g     F .irom0.text	00000029 pbuf_cat
4022a2d8 g     F .irom0.text	00000004 wpa_sm_mlme_setprotection
3ffea538 g     O .bss	00000008 noise_array
40202d0c g     F .irom0.text	00000008 __cxa_deleted_virtual
402144f8 g     F .irom0.text	00000028 ieee80211_find_channel
4021853c g     F .irom0.text	00000034 ieee80211_iserp_rateset
4020224c g     F .irom0.text	00000024 _Z18uart_transmit_charP5uart_c
4020283c g     F .irom0.text	00000013 _ZN14HardwareSerial4swapEv
4021f9e0 g     F .irom0.text	00000039 ip_output
4021ea58 g     F .irom0.text	0000003c etharp_cleanup_netif
402040f0 g     F .irom0.text	00000054 user_uart_wait_tx_fifo_empty
401074f4 g       *ABS*	00000000 _text_end
40100930 g     F .text	00000057 spi_flash_get_id
4022ae94 g     F .irom0.text	000000bd system_upgrade_start
40229e28 g     F .irom0.text	00000127 ppInstallKey
402063cc g     F .irom0.text	00000011 wifi_softap_set_config_current
40223354 g     F .irom0.text	0000004f udp_sendto
40208d54 g     F .irom0.text	000000c5 ram_rfpll_set_freq
3ffe8f68 g     O .bss	00000014 check_timeouts_timer
402239fc g     F .irom0.text	0000001c espconn_tcp_set_wnd
40229b00 g     F .irom0.text	00000025 wpa_parse_wpa_ie
40201fb0 g     F .irom0.text	0000001c _ZN14HardwareSerial4peekEv
3ffe9098 g     O .bss	00000001 cpu_overclock
40101020 g     F .text	0000002c snprintf
401001c8 g     F .text	00000052 NMI_Handler
402238f0 g     F .irom0.text	00000047 espconn_create
40208cc8 g     F .irom0.text	00000058 wait_rfpll_cal_end
4021f164 g     F .irom0.text	0000001c ipaddr_addr
40106ab8 g     F .text	00000000 .hidden __fixsfsi
40201970 g     F .irom0.text	0000001a reverse
4021a5ac g     F .irom0.text	00000011 cnx_start_handoff_cb
402023cc g     F .irom0.text	00000056 _Z22uart_interrupt_disableP5uart_
40222cb8 g     F .irom0.text	00000077 tcp_keepalive
40103b18 g     F .text	00000024 ppRollBackTxQ
402012d0 g     F .irom0.text	000002c2 __pinMode
3ffea50b g     O .bss	00000001 pwctrl_debug
4021e838 g     F .irom0.text	00000057 etharp_tmr
40207e4c g     F .irom0.text	00000088 _ZN5Print11printNumberEmh
40223c88 g     F .irom0.text	0000008f espconn_get_packet_info
4020d2d4 g     F .irom0.text	0000002c set_rf_gain_stage10
40210660 g     F .irom0.text	0000000f ic_set_opmode
400018a4 g       *ABS*	00000000 ets_memset
401074f4 g       *ABS*	00000000 _lit4_start
40221d88 g     F .irom0.text	000000d8 tcp_alloc
402184bc g     F .irom0.text	00000036 ieee80211_node_pwrsave
40218ccc g     F .irom0.text	0000000a scan_set_desChan
40218308 g     F .irom0.text	00000027 ieee80211_dot11Rate_rix
40207bf0 g     F .irom0.text	00000043 _ZN5Print5writeEPKhj
40101c68 g     F .text	00000000 .hidden __gtdf2
40201948 g     F .irom0.text	00000013 atol
40207970 g     F .irom0.text	00000020 __errno
4021d3b4 g     F .irom0.text	00000043 wifi_softap_set_dhcps_offer_option
40208250 g     F .irom0.text	00000013 _ZN5Print5printEdi
40000dc0 g       *ABS*	00000000 ets_set_idle_cb
40103b3c g     F .text	0000000f ppRecordBarRRC
402233a4 g     F .irom0.text	0000014a udp_sendto_if
4020af24 g     F .irom0.text	00000052 ram_set_noise_floor
40229df4 g     F .irom0.text	00000031 wpa_gen_wpa_ie
4020aef4 g     F .irom0.text	0000002e get_noisefloor_sat
40209410 g     F .irom0.text	00000060 chip_v6_set_chan_wakeup
3ffe800c g     O .data	00000001 reconnect_internal
4020c1b4 g     F .irom0.text	0000033b phy_gpio_cfg
40221e74 g     F .irom0.text	00000004 tcp_arg
40222ef4 g     F .irom0.text	0000005b sys_timeouts_init
40206a4c g     F .irom0.text	0000005e wifi_get_macaddr
40009410 g       *ABS*	00000000 aes_unwrap
3ffea24c g     O .bss	00000024 Serial1
402109e8 g     F .irom0.text	00000025 ic_get_rssi
40207cfc g     F .irom0.text	0000002b _ZN5Print7printlnEPK19__FlashStringHelper
3fff275c g     O .bss	00000004 tcp_active_pcbs
402010c0 g     F .irom0.text	00000007 esp_micros_at_task_start
402123a4 g     F .irom0.text	00000016 pm_assoc_parse
40227c2c g     F .irom0.text	0000006c wpa_add_kde
4020616c g     F .irom0.text	00000011 wifi_softap_get_config_default
402038d8 g     F .irom0.text	0000010b logf
402127a0 g     F .irom0.text	00000033 pp_try_enable_idle_timer
3ffeb130 g     O .bss	00000040 wDevCtrl
3fff2780 g     O .bss	00000004 udp_pcbs
40229bf4 g     F .irom0.text	0000009a wpa_supplicant_parse_ies
402115ac g     F .irom0.text	000002aa pm_onBcnRx
4020d4fc g     F .irom0.text	0000001d phy_set_most_tpw
4020851c g     F .irom0.text	00000064 ram_pbus_xpd_tx_on
40221598 g     F .irom0.text	00000059 tcp_shutdown
40212590 g     F .irom0.text	00000002 pp_soft_wdt_restart
4021f04c g     F .irom0.text	00000077 ethernet_input
40218d6c g     F .irom0.text	000001b9 scan_profile_check
401074f4 g       .text	00000000 _etext
402016dc g     F .irom0.text	0000005a __attachInterrupt
40101290 g     F .text	00000010 isblank
4021af28 g     F .irom0.text	000001ab cnx_update_bss_more
4021da24 g     F .irom0.text	00000069 espconn_kill_oldest_pcb
401009c0 g     F .text	0000002d spi_flash_write_status
4010654c g     F .text	00000017 mdns_set_name
4020a750 g     F .irom0.text	0000003e start_dig_rx
40204f3c g     F .irom0.text	00000015 system_get_cpu_freq
40002ae8 g       *ABS*	00000000 ets_bzero
40229a54 g     F .irom0.text	00000060 rsn_cipher_put_suites
4020aed8 g     F .irom0.text	0000001c ram_get_noisefloor
40218254 g     F .irom0.text	00000032 ieee80211_setup_ratetable
4021add8 g     F .irom0.text	00000088 cnx_rc_update_rssi
4021ff30 g     F .irom0.text	0000000c pbuf_ref
3ffea659 g     O .bss	00000001 SDIO_slp_reject
3ffea65a g     O .bss	00000001 hardware_reject
40223aa8 g     F .irom0.text	00000015 espconn_regist_write_finish
4020f6d0 g     F .irom0.text	00000004 chip_v6_unset_chanfreq
401054ac g     F .text	00000045 Tx_Copy2Queue
4021fbc4 g     F .irom0.text	0000000d netif_set_netmask
40221cd4 g     F .irom0.text	00000031 tcp_recv_null
3fff2708 g     O .bss	00000004 current_netif
40205d68 g     F .irom0.text	00000036 wifi_station_set_auto_connect
40216d2c g     F .irom0.text	00000133 ieee80211_send_setup
40201fcc g     F .irom0.text	0000002a _ZN14HardwareSerial9availableEv
402249a8 g     F .irom0.text	000000a6 igmp_leavegroup
40106724 g     F .text	00000000 .hidden __subsf3
3ffea524 g     O .bss	00000001 periodic_cal_flag
402225b4 g     F .irom0.text	000000e3 tcp_enqueue_flags
401028c0 g     F .text	0000000b GetAccess
40201604  w    F .irom0.text	00000034 digitalRead
40213788 g     F .irom0.text	0000002d rc_only_sta_trc
40201f38 g     F .irom0.text	00000071 loop
3ffe84f0 g     O .data	00000002 memp_sizes_test
402114b8 g     F .irom0.text	000000d9 pm_open
4020180c g     F .irom0.text	00000040 timer1_isr_handler
402181ec g     F .irom0.text	00000005 ieee80211_get_11g_ratetable
40101fa8 g     F .text	00000007 register_get_phy_addr
40202484 g     F .irom0.text	00000037 _Z17uart_set_baudrateP5uart_i
40201078  w    F .irom0.text	00000002 initVariant
40221574 g     F .irom0.text	00000024 tcp_close
40225988 g     F .irom0.text	00000052 hostapd_get_psk
40221828 g     F .irom0.text	0000005a tcp_recved
40203bec g     F .irom0.text	000000d7 sqrtf
40216ab0 g     F .irom0.text	0000027a ieee80211_output_pbuf
40210770 g     F .irom0.text	0000000d ic_set_gtk_alg
3ffe8778 g     O .rodata	00000100 .hidden __popcount_tab
40100180 g     F .text	00000032 Cache_Read_Enable_New
40221e9c g     F .irom0.text	00000048 tcp_pcb_purge
40218c58 g     F .irom0.text	00000022 scan_clear_channles
40205ba0 g     F .irom0.text	00000011 wifi_station_set_config
4020b154 g     F .irom0.text	000001f9 noise_init
40210678 g     F .irom0.text	0000004f ic_enable_interface
40206ce0 g     F .irom0.text	00000005 system_get_sdk_version
40226224 g     F .irom0.text	000003d2 wpa_receive
4020a6e0 g     F .irom0.text	0000006f do_noisefloor
402020ac g     F .irom0.text	000000e7 _ZN14HardwareSerial5writeEh
40204a34 g     F .irom0.text	0000000b system_get_boot_version
4021f3ac g     F .irom0.text	00000014 ipaddr_ntoa
402052dc g     F .irom0.text	00000041 wifi_softap_dhcps_stop
40225610 g     F .irom0.text	00000031 mdns_reg
40205ed4 g     F .irom0.text	0000002d wifi_station_get_connect_status
40223c58 g     F .irom0.text	0000002d espconn_disconnect
40210724 g     F .irom0.text	0000001c ic_is_pure_sta
40002d40 g       *ABS*	00000000 ets_timer_disarm
4020fc1c g     F .irom0.text	00000074 pm_sdio_nidle
3ffe86f0 g     O .rodata	00000007 tcp_persist_backoff
4020b3a4 g     F .irom0.text	00000077 sdt_on_noise_start
40206bf4 g     F .irom0.text	0000003d system_os_task
3ffea2b0 g     O .bss	000001e4 chip6_sleep_params
40202270 g     F .irom0.text	00000078 _Z13uart_transmitP5uart_PKcj
40209c58 g     F .irom0.text	0000002e rtc_mem_backup
40101078 g     F .text	00000013 memcpy
40229890 g     F .irom0.text	000000e3 wpa_pmk_to_ptk
3fff2770 g     O .bss	00000004 tcp_ticks
40209c88 g     F .irom0.text	00000030 rtc_mem_recovery
3fff276c g     O .bss	00000004 tcp_listen_pcbs
402185e4 g     F .irom0.text	00000011 ieee80211_addbasicrates
40004400 g       *ABS*	00000000 SPI_write_status
4010437c g     F .text	0000007b ppCalTxop
4000242c g       *ABS*	00000000 ets_install_putc1
4010656c g     F .text	0000001c mdns_enable
40212384 g     F .irom0.text	0000001d pm_allow_tx
40205c14 g     F .irom0.text	000000ee wifi_station_ap_change
402025c8 g     F .irom0.text	0000004b _Z11uart_uninitP5uart_
40222b78 g     F .irom0.text	00000039 tcp_rexmit_rto
40226148 g     F .irom0.text	0000002d wpa_auth_sta_deinit
4010577c g     F .text	000000ed wDev_AppendRxAmpduLensBlocks
40204064 g     F .irom0.text	0000007e wdt_init
40201e60 g     F .irom0.text	00000027 _Z15do_global_ctorsv
40214c6c g     F .irom0.text	00000329 hostap_input
4020a20c g     F .irom0.text	0000006e pbus_set_rxbbgain
40107328 g     F .text	00000000 .hidden __floatsidf
4022a1d4 g     F .irom0.text	00000037 wpa_attach
3ffe8d7c g       *ABS*	00000000 _rodata_end
40221e60 g     F .irom0.text	00000011 tcp_new
40101d14 g     F .text	00000000 .hidden __ltdf2
402235cc g     F .irom0.text	00000015 udp_disconnect
40220064 g     F .irom0.text	00000086 pbuf_copy_partial
3ffea94d g     O .bss	00000001 dbg_stop_sw_wdt
402079b0 g     F .irom0.text	0000000f __ieee754_hypotf
40104768 g     F .text	0000005a rcUpdateRxDone
402246ec g     F .irom0.text	00000020 igmp_lookfor_group
40225a64 g     F .irom0.text	00000043 hexstr2bin
402074a8 g     F .irom0.text	0000005c eagle_lwip_if_free
40103274 g     F .text	00000048 lmacProcessCtsTimeout
40222f50 g     F .irom0.text	00000075 sys_timeout
40100fa0 g     F .text	00000017 puts
402055e4 g     F .irom0.text	0000002e system_get_checksum
402079c0 g     F .irom0.text	0000000f __ieee754_logf
40100820 g     F .text	0000003a vPortFree
3ffea654 g     O .bss	00000001 periodic_cal_sat
401011b4 g     F .text	0000000e islower
4021c2c0 g     F .irom0.text	000000bd dhcp_release
40202de0 g     F .irom0.text	0000009d __fpclassifyd
40101270 g     F .text	0000000e tolower
40220414 g     F .irom0.text	00000011 raw_send
40218960 g     F .irom0.text	00000032 scan_cancel
4022c5c8 g     F .irom0.text	00000072 inet_chksum_pbuf
402200ec g     F .irom0.text	00000064 pbuf_take
3ffea64e g     O .bss	00000001 tx_pwctrl_pk_num
400025e0 g       *ABS*	00000000 rtc_get_reset_reason
40214704 g     F .irom0.text	0000006b ieee80211_crypto_decap
40100f54 g     F .text	00000019 malloc
3fff2700 g     O .bss	00000004 current_iphdr_dest
4020ec64 g     F .irom0.text	00000026 ram_get_bb_atten
40107298 g     F .text	0000004c .hidden __udivsi3
40213f38 g     F .irom0.text	00000045 wDev_Crypto_Conf
40103a60 g     F .text	0000004d ppGetTxQFirstAvail_Locked
40224390 g     F .irom0.text	000001b3 icmp_input
4020fbf8 g     F .irom0.text	0000001f pm_prepare_to_sleep
40002c48 g       *ABS*	00000000 ets_timer_setfn
3ffea94c g     O .bss	00000001 idle_timer_reopen_flag
40217d94 g     F .irom0.text	0000015d ieee80211_send_proberesp
401042e8 g     F .text	00000020 ppDiscardMPDU
4020a9b4 g     F .irom0.text	00000040 target_power_add_backoff
40004a00 g       *ABS*	00000000 SPIEraseSector
4021fa24 g     F .irom0.text	00000065 netif_add
40100a70 g     F .text	00000026 spi_flash_read
4010104c g     F .text	00000013 vsnprintf
3ffe90a0 g     O .bss	00000001 status_led_output_level
401013bc g     F .text	00000000 .hidden __lesf2
402123bc g     F .irom0.text	0000001d pm_set_addr
4021a22c g     F .irom0.text	000000bb cnx_sta_connect_cmd
3ffe8d80 g       *ABS*	00000000 _bss_start
4021224c g     F .irom0.text	00000014 pm_is_open
40101dec g     F .text	00000000 .hidden __fixunsdfsi
4021f500 g     F .irom0.text	00000072 ip_router
40101f88 g     F .text	0000001d register_phy_ops
40221c88 g     F .irom0.text	0000001c tcp_segs_free
401012a8 g     F .text	00000015 cont_init
40224620 g     F .irom0.text	0000003c igmp_start
402146b0 g     F .irom0.text	00000004 ieee80211_crypto_setkey
40206d28 g     F .irom0.text	00000025 skip_atoi
401046d4 g     F .text	00000094 rcUpdateTxDone
40203df4 g     F .irom0.text	00000089 __fpclassifyf
3ffe8d74 g       *ABS*	00000000 __XT_EXCEPTION_DESCS__
40223b00 g     F .irom0.text	000000c9 espconn_get_connection_info
3ffea298 g     O .bss	00000004 __dso_handle
40201994 g     F .irom0.text	00000093 itoa
40213c04 g     F .irom0.text	0000001b wDevForceAck6M
4020b988 g     F .irom0.text	00000235 phy_dig_spur_prot
4020bcbc g     F .irom0.text	000003ff phy_bb_rx_cfg
402136f8 g     F .irom0.text	0000006f rc_get_trc
4021fb4c g     F .irom0.text	00000065 netif_set_ipaddr
4020f64c g     F .irom0.text	0000007c dpd_mem_write
22222112 g       *ABS*	00000000 _memmap_cacheattr_wb_allvalid
40223a40 g     F .irom0.text	00000028 espconn_tcp_get_max_con_allow
402146ac g     F .irom0.text	00000004 ieee80211_crypto_available
402157a4 g     F .irom0.text	0000003f ieee80211_ht_node_init
4020a7c0 g     F .irom0.text	00000022 chip_v6_set_chanfreq
401011e8 g     F .text	00000038 ispunct
4022a02c g     F .irom0.text	0000001e dhcp_bind_check
40205bc8 g     F .irom0.text	00000012 wifi_station_get_current_ap_id
4020fbb0 g     F .irom0.text	00000046 pm_set_pll_xtal_wait_time
40212370 g     F .irom0.text	00000012 pm_scan_unlocked
40203dc0 g     F .irom0.text	00000034 finitef
40208e60 g     F .irom0.text	00000321 ram_set_channel_freq
40002ab8 g       *ABS*	00000000 ets_strncmp
4020d724 g     F .irom0.text	00000069 set_txdc_pbus
40102198 g     F .text	00000015 lmacIsIdle
4022227c g     F .irom0.text	00000336 tcp_write
40215a0c g     F .irom0.text	000000d1 ieee80211_setup_htrates
4022434c g     F .irom0.text	00000012 espconn_mdns_server_unregister
4021b74c g     F .irom0.text	00000012 ieee80211_recv_action_unregister
40217630 g     F .irom0.text	0000004d ieee80211_getcapinfo
40100000 g       *ABS*	00000000 _text_start
402255c0 g     F .irom0.text	00000045 mdns_server_register
4021ea94 g     F .irom0.text	0000003a etharp_find_addr
4021768c g     F .irom0.text	0000054e ieee80211_send_mgmt
40207ddc g     F .irom0.text	00000035 _ZN5Print7printlnEc
4010488c g     F .text	0000005b rcGetRate
402015a0  w    F .irom0.text	0000005a digitalWrite
40002ac8 g       *ABS*	00000000 ets_strlen
40203d94 g     F .irom0.text	0000002a fabsf
40104488 g     F .text	0000000b RC_GetAckRate
402010d0 g     F .irom0.text	00000015 esp_yield
402079d0 g     F .irom0.text	0000000f __ieee754_log10
402104f0 g     F .irom0.text	0000001f sleep_opt_8266
40210654 g     F .irom0.text	0000000a ic_get_addr
40225798 g     F .irom0.text	0000006b hostapd_config_defaults
402021f4 g     F .irom0.text	00000017 _Z21uart_wait_for_tx_fifoP5uart_j
402158f8 g     F .irom0.text	0000010b ieee80211_ht_updateparams
40101224 g     F .text	0000001e isspace
40219f64 g     F .irom0.text	00000037 wifi_station_stop
402138d0 g     F .irom0.text	00000029 wDev_Reset_TBTT
4020107c  w    F .irom0.text	00000002 _Z24preloop_update_frequencyv
40210978 g     F .irom0.text	0000005c ic_set_key
40213cc0 g     F .irom0.text	00000054 wDev_SetRxPolicy
40100004 g     F .text	00000000 call_user_start
00000110 g       *ABS*	00000000 _memmap_cacheattr_wb_base
402216a0 g     F .irom0.text	0000008a tcp_bind
3ffe8074 g     O .data	00000004 chip_version
40221688 g     F .irom0.text	00000011 tcp_abort
4010589c g     F .text	00000017 wDevDisableRx
40225c30 g     F .irom0.text	0000003d ets_strdup
40212514 g     F .irom0.text	00000041 pm_get_idle_wait_time
3ffea527 g     O .bss	00000001 deep_sleep_en
402012d0  w    F .irom0.text	000002c2 pinMode
401073a0 g     F .text	00000000 xthal_set_intclear
40209398 g     F .irom0.text	00000074 chip_v6_set_chan
4020807c g     F .irom0.text	000001d3 _ZN5Print10printFloatEdh
402109d4 g     F .irom0.text	00000012 ic_remove_key
40101ee8 g     F .text	00000000 .hidden __extendsfdf2
4020a68c g     F .irom0.text	0000001a check_data_func
4000ba28 g       *ABS*	00000000 hmac_sha1
40105d54 g     F .text	00000048 esf_rx_buf_alloc
3fff28b8 g     O .bss	00000014 mdns_timer
4021d93c g     F .irom0.text	00000057 dns_gethostbyname
40219fa8 g     F .irom0.text	00000065 chm_init
402051a0 g     F .irom0.text	0000000b system_get_rtc_time
40205d54 g     F .irom0.text	00000012 wifi_station_get_auto_connect
4022a2dc g     F .irom0.text	00000004 wpa_sm_get_beacon_ie
40218ad0 g     F .irom0.text	0000000a scan_remove_bssid
401014b8 g     F .text	00000000 .hidden __adddf3
4021d144 g     F .irom0.text	0000007f dhcps_start
40101374 g     F .text	00000000 .hidden __nesf2
40105da8 g     F .text	00000123 esf_buf_alloc
4021a0b8 g     F .irom0.text	00000034 chm_end_op
3ffea656 g     O .bss	00000002 lslp_mem_opt_8266
40206760 g     F .irom0.text	0000005b wifi_promiscuous_set_mac
40229868 g     F .irom0.text	00000026 wpa_compare_rsn_ie
402102e8 g     F .irom0.text	00000206 pm_wakeup_init
40215fa0 g     F .irom0.text	00000031 ieee80211_add_htinfo_vendor
40106f5c g     F .text	0000033a .hidden __umoddi3
40210284 g     F .irom0.text	00000055 pm_unmask_bt
40106588 g     F .text	0000001b mdns_disable
4020235c g     F .irom0.text	0000006d _Z21uart_interrupt_enableP5uart_
40220378 g     F .irom0.text	0000009a raw_sendto
3ffe8ba8  w    O .rodata	00000010 _ZTV5Print
3ffe8010 g     O .data	00000004 __fdlib_version
fffff22f g       *ABS*	00000000 _memmap_cacheattr_bp_strict
402259dc g     F .irom0.text	0000001d inc_byte_array
40207d28 g     F .irom0.text	00000019 _ZN5Print5printERK9Printable
401073a8 g     F .text	00000002 ram_tx_mac_disable
40202cdc g     F .irom0.text	00000013 _ZdlPv
401065c0 g     F .text	00000060 mdns_set_hostname
40210e28 g     F .irom0.text	00000015 pm_rf_is_closed
4020f93c g     F .irom0.text	00000034 pm_usec2rtc
40101320 g     F .text	0000003f cont_run
40225900 g     F .irom0.text	00000069 hostapd_maclist_found
401047e0 g     F .text	000000a6 rcGetSched
401065a8 g     F .text	00000011 mdns_get_hostname
40225880 g     F .irom0.text	0000002e hostapd_setup_wpa_psk
40201c38 g     F .irom0.text	000001eb dtostrf
402079e0 g     F .irom0.text	0000000f __ieee754_exp
3ffea2a4 g     O .bss	00000004 rxiq_compute_num
40224378 g     F .irom0.text	00000012 espconn_mdns_init
40223a9c g     F .irom0.text	0000000c espconn_regist_sentcb
40205f68 g     F .irom0.text	0000005e wifi_softap_cacl_mac
40205400 g     F .irom0.text	00000011 wifi_get_opmode
40218adc g     F .irom0.text	00000008 scan_hidden_ssid
4021da90 g     F .irom0.text	00000078 espconn_kill_pcb
4021c380 g     F .irom0.text	00000036 dhcp_stop
402063b8 g     F .irom0.text	00000011 wifi_softap_set_config
4020bbc0 g     F .irom0.text	0000004b chip_v6_rxmax_ext_dig
4021e278 g     F .irom0.text	000000c8 espconn_tcp_client
402010c8 g     F .irom0.text	00000003 abort
40002e68 g       *ABS*	00000000 ets_timer_init
40100e70 g     F .text	00000030 system_os_post
402100a0 g     F .irom0.text	00000113 pm_set_wakeup_btco
40107320 g     F .text	00000000 .hidden __floatunsidf
402157e4 g     F .irom0.text	00000011 ieee80211_ht_node_cleanup
4021270c g     F .irom0.text	0000000f pp_noise_test
4021a134 g     F .irom0.text	00000026 chm_freq2index
4021ffc0 g     F .irom0.text	000000a4 pbuf_copy
40100a20 g     F .text	0000004a spi_flash_write
40222bb4 g     F .irom0.text	000000aa tcp_rexmit
3ffe8080 g     O .data	00000002 NoiseTimerInterval
4010076c g     F .text	000000b3 pvPortMalloc
3ffe90a4 g     O .bss	00000004 done_cb
2222211f g       *ABS*	00000000 _memmap_cacheattr_wt_trapnull
3ffea2a0 g     O .bss	00000004 g_phyFuns
4021554c g     F .irom0.text	000000ed wifi_softap_start
40224270 g     F .irom0.text	0000001d espconn_igmp_leave
401032c0 g     F .text	0000003c lmacProcessAckTimeout
402016dc  w    F .irom0.text	0000005a attachInterrupt
3ffe8088 g     O .data	00000002 sleep_start_wait_time
40101fb0 g     F .text	00000018 phy_change_channel
402248fc g     F .irom0.text	000000a9 igmp_joingroup
40211f68 g     F .irom0.text	000000f4 pm_attach
40101254 g     F .text	0000001c isxdigit
402028c8 g     F .irom0.text	00000078 _Z16uart0_write_charc
40100030 g       .text	00000000 _KernelExceptionVector
40216f54 g     F .irom0.text	00000002 ieee80211_tx_mgt_cb
402299d8 g     F .irom0.text	00000023 wpa_cipher_to_alg
3ffe8610 g     O .rodata	00000008 ieee80211_opcap
402079f0 g     F .irom0.text	0000000f __ieee754_cosh
4010089c g     F .text	00000038 pvPortRealloc
4022465c g     F .irom0.text	0000005d igmp_stop
4021e6b8 g     F .irom0.text	000000a2 espconn_tcp_server
3fffccf0 g       *ABS*	00000000 Te0
4021aecc g     F .irom0.text	00000023 cnx_rc_update_age
4021fbdc g     F .irom0.text	0000003a netif_set_up
4010607c g     F .text	0000002a chm_return_home_channel
3ffe90a8 g     O .bss	0000001c rst_if
40207f34 g     F .irom0.text	0000000f _ZN5Print5printEii
40207a00 g     F .irom0.text	0000000f __ieee754_expf
40208468 g     F .irom0.text	000000b3 ram_pbus_debugmode
40000f98 g       *ABS*	00000000 ets_isr_mask
4020f6c8 g     F .irom0.text	00000002 chip_v6_set_sense
40207758 g     F .irom0.text	000000d6 strtol
3ff00000 g       *ABS*	00000000 _dport0_literal_start
40201888 g     F .irom0.text	0000002f timer1_detachInterrupt
40202230 g     F .irom0.text	00000019 _Z22uart_wait_for_transmitP5uart_
40102df4 g     F .text	0000005c lmacProcessCollisions
40225b44 g     F .irom0.text	000000e8 wpa_config_parse_string
3ffea52c g     O .bss	00000001 phy_set_most_tpw_index
40207528 g     F .irom0.text	0000002d strnlen
40002f0c g       *ABS*	00000000 ets_get_cpu_frequency
40207a10 g     F .irom0.text	0000000f __ieee754_log10f
3ffe86e0 g     O .rodata	00000010 tcp_pcb_lists
4010009c g       .text	00000000 _NMILevelVector
40004a4c g       *ABS*	00000000 SPIWrite
402125bc g     F .irom0.text	0000001f TxNodeNum
3ffea529 g     O .bss	00000001 rtc_recovery_en
40223654 g     F .irom0.text	00000090 espconn_copy_partial
3ffe8009 g     O .data	00000001 timer2_ms_flag
3fff2f98 g       *ABS*	00000000 _bss_end
402185f8 g     F .irom0.text	00000002 ieee80211_wme_initparams
402068a4 g     F .irom0.text	00000008 wifi_set_promiscuous_rx_cb
40201920 g     F .irom0.text	00000014 timer1_disable
401001b8 g     F .text	00000007 NmiTimSetFunc
4021f120 g     F .irom0.text	00000041 ip4_addr_netmask_valid
3fff2760 g     O .bss	00000004 tcp_tmp_pcb
40206450 g     F .irom0.text	0000009b wifi_softap_get_station_info
3fff2790 g     O .bss	00000004 plink_active
40204ca8 g     F .irom0.text	0000003c system_upgrade_userbin_check
40223748 g     F .irom0.text	00000022 espconn_pbuf_delete
4022a060 g     F .irom0.text	0000014b eagle_auth_done
402066e0 g     F .irom0.text	0000001f wifi_set_sleep_type
4021b3c0 g     F .irom0.text	000000db cnx_node_leave
4021df14 g     F .irom0.text	00000040 espconn_recv_hold
40207504 g     F .irom0.text	00000022 eagle_lwip_getif
4010652c g     F .text	00000019 mdns_close
40207c34 g     F .irom0.text	0000005f _ZN5Print5printEPK19__FlashStringHelper
402236e4 g     F .irom0.text	00000020 espconn_list_creat
40202898 g     F .irom0.text	00000030 _ZN14HardwareSerial17availableForWriteEv
40207574 g     F .irom0.text	0000001e strrchr
3fff17f2 g     O .bss	00000002 scannum
4021a544 g     F .irom0.text	00000068 cnx_connect_timeout
402049cc g     F .irom0.text	00000044 system_restore
4021b760 g     F .irom0.text	0000005d ieee80211_recv_action
40100b70 g     F .text	000000ca system_restart_local
40201abc g     F .irom0.text	00000085 utoa
40210f50 g     F .irom0.text	00000012 pm_get_sleep_type
40101da4 g     F .text	00000000 .hidden __fixdfsi
40225fcc g     F .irom0.text	00000074 wpa_init
3fff1734 g     O .bss	00000001 TmpSTAAPCloseAP
3ffea2ac g     O .bss	00000004 check_result
40207fc0 g     F .irom0.text	00000013 _ZN5Print5printEhi
401012e8 g     F .text	0000002e cont_yield
3fff2f98 g       *ABS*	00000000 _heap_start
40004b1c g       *ABS*	00000000 SPIRead
40223eec g     F .irom0.text	0000001c espconn_gethostbyname
40209968 g     F .irom0.text	0000016d phy_get_check_flag
3ffea52a g     O .bss	00000001 phy_in_vdd33_offset
4022a7e4 g     F .irom0.text	0000002d aes_encrypt_init
4020f83c g     F .irom0.text	000000a8 slop_test
40204e84 g     F .irom0.text	0000001c system_deep_sleep_set_option
402181f8 g     F .irom0.text	00000018 ieee80211_get_ratetable
4020493c g     F .irom0.text	00000017 system_adc_read
40104494 g     F .text	0000000b RC_GetRtsRate
40222090 g     F .irom0.text	0000004b tcp_send_fin
40207844 g     F .irom0.text	00000123 strtod
4020ec94 g     F .irom0.text	000001be ram_rfcal_txcap
40204ec8 g     F .irom0.text	00000012 system_phy_set_rfoption
4022272c g     F .irom0.text	000002ff tcp_output
40204c60 g     F .irom0.text	00000045 system_upgrade_userbin_set
4020294c g     F .irom0.text	00000075 _Z16uart1_write_charc
40001da0 g       *ABS*	00000000 ets_write_char
40229fd8 g     F .irom0.text	0000003e wpa_config_bss
40229310 g     F .irom0.text	00000088 eapol_txcb
40207a20 g     F .irom0.text	0000000f __ieee754_atan2
22222222 g       *ABS*	00000000 _memmap_cacheattr_bp_allvalid
40102e5c g     F .text	00000077 lmacProcessCollision
4020195c g     F .irom0.text	00000014 atof
4010139c g     F .text	00000000 .hidden __gtsf2
40213dec g     F .irom0.text	0000002a wDev_ClearBssid
3ffe8000 g       .data	00000000 _Pri_3_HandlerAddress
402258b0 g     F .irom0.text	00000050 hostapd_wep_key_cmp
40201e88 g     F .irom0.text	00000014 user_rf_pre_init
3ffe8050 g     O .data	00000020 rx_gain_swp
3ffea92c g     O .bss	00000001 pend_flag_noise_check
4021424c g     F .irom0.text	0000011a esf_buf_setup
22222112 g       *ABS*	00000000 _memmap_cacheattr_wt_allvalid
3fff2754 g     O .bss	00000004 tcp_input_pcb
4021e7e8 g     F .irom0.text	0000001c espconn_init
3ffea694 g     O .bss	00000020 lmacConfMib
402202c8 g     F .irom0.text	00000088 raw_input
40215ae0 g     F .irom0.text	00000080 ieee80211_setup_basic_htrates
4020c928 g     F .irom0.text	00000053 periodic_cal_top
40101c8c g     F .text	00000000 .hidden __ledf2
3ffe8d74 g       *ABS*	00000000 __XT_EXCEPTION_DESCS_END__
40222698 g     F .irom0.text	00000089 tcp_send_empty_ack
40202048 g     F .irom0.text	0000005f _ZN14HardwareSerial5flushEv
40214bd8 g     F .irom0.text	00000089 hostap_handle_timer
4020722c g     F .irom0.text	00000026 ets_sprintf
4021809c g     F .irom0.text	0000014b ieee80211_beacon_alloc
4021d458 g     F .irom0.text	0000002a dns_setserver
402075e8 g     F .irom0.text	00000026 strcat
3fff1c48 g     O .bss	00000014 sta_con_timer
40222c60 g     F .irom0.text	00000057 tcp_rexmit_fast
40206158 g     F .irom0.text	00000011 wifi_softap_get_config
40217bf4 g     F .irom0.text	0000019f ieee80211_alloc_proberesp
40225668 g     F .irom0.text	000000e1 mdns_init
401072e4 g     F .text	00000039 .hidden __umodsi3
401036d8 g     F .text	00000058 ppRecycleRxPkt
40219ef0 g     F .irom0.text	00000071 wifi_station_start
4022c748 g     F .irom0.text	00000004 eloop_register_timeout
40103730 g     F .text	000000d3 ppCheckTxIdle
40204928 g     F .irom0.text	00000012 system_pp_recycle_rx_pkt
4021f180 g     F .irom0.text	00000226 ipaddr_aton
402299b4 g     F .irom0.text	00000024 wpa_cipher_key_len
40207208 g     F .irom0.text	00000021 ets_vsprintf
40106b4c g     F .text	00000021 .hidden __popcountsi2
4021410c g     F .irom0.text	00000049 wdev_set_sniffer_addr
4020af80 g     F .irom0.text	00000041 ram_start_noisefloor
4021f0f4 g     F .irom0.text	0000002b ip4_addr_isbroadcast
3fff28a4 g     O .bss	00000004 PUCK_SERVICE
4020cc28 g     F .irom0.text	000000ec change_bbpll160_sleep
3ff00000 g       *ABS*	00000000 _dport0_rodata_start
40203800 g     F .irom0.text	000000d7 hypotf
4020583c g     F .irom0.text	00000011 wifi_station_get_config
3ff00000 g       *ABS*	00000000 _dport0_data_start
3fff28ac g     O .bss	00000002 PUCK_PORT
4020a6ac g     F .irom0.text	00000034 do_noisefloor_lsleep_v50
4021fbd4 g     F .irom0.text	00000007 netif_set_default
402235e4 g     F .irom0.text	00000006 udp_recv
40105618 g     F .text	0000015d wDev_AppendRxBlocks
40201738  w    F .irom0.text	00000050 detachInterrupt
40223d70 g     F .irom0.text	0000005e espconn_clear_opt
40212294 g     F .irom0.text	00000011 pm_try_scan_unlock
4020f254 g     F .irom0.text	000001a4 ram_rxiq_cover_mg_mp
4021a2e8 g     F .irom0.text	000000d9 cnx_sta_scan_cmd
402161cc g     F .irom0.text	0000004a ieee80211_deliver_data
401032fc g     F .text	00000008 lmacProcessRtsStart
40207d94 g     F .irom0.text	00000045 _ZN5Print7printlnEPKc
40205d08 g     F .irom0.text	00000045 wifi_station_scan
4022c8d4 g       *ABS*	00000000 _irom0_text_end
40213ef8 g     F .irom0.text	0000003c wDev_remove_KeyEntry
40000e04 g       *ABS*	00000000 ets_run
3ffe800b g     O .data	00000001 dhcpc_flag
40102788 g     F .text	000000ce lmacProcessTxSuccess
4020f3f8 g     F .irom0.text	0000020b ram_rfcal_rxiq
4020fb64 g     F .irom0.text	0000003f pm_sleep_opt_bb_on
4022a90c g     F .irom0.text	00000018 system_upgrade
402138c8 g     F .irom0.text	00000007 wDev_Set_Beacon_Int
40208348 g     F .irom0.text	00000016 phy_disable_agc
4021fc18 g     F .irom0.text	00000024 netif_set_down
40202620 g     F .irom0.text	000000a7 _Z9uart_swapP5uart_
4021fc9c g     F .irom0.text	0000014d pbuf_alloc
402039e4 g     F .irom0.text	00000113 log10f
4021fc3c g     F .irom0.text	00000049 netif_set_link_up
40208afc g     F .irom0.text	00000160 ram_ana_inf_gating_en
3ffea270 g     O .bss	00000024 Serial
4021563c g     F .irom0.text	00000106 wifi_softap_stop
402173e8 g     F .irom0.text	00000039 ieee80211_add_xrates
4020969c g     F .irom0.text	0000004c low_power_set
40201174 g     F .irom0.text	00000026 micros_overflow_tick
40209198 g     F .irom0.text	000001c1 chip_60_set_channel
4020cf40 g     F .irom0.text	00000029 deep_sleep_set_option
4022a3c8 g     F .irom0.text	00000417 rijndaelEncrypt
40227aa0 g     F .irom0.text	00000106 wpa_write_rsn_ie
3ffe8b70  w    O .rodata	00000020 _ZTV14HardwareSerial
4021b2e0 g     F .irom0.text	00000078 cnx_node_remove
40212bd8 g     F .irom0.text	00000032 ppRegisterTxCallback
40105fb4 g     F .text	0000002d scan_pm_channel_op_cb
402045d4 g     F .irom0.text	00000098 overlap_hspi_deinit
4020cfbc g     F .irom0.text	000002bd register_chipv6_phy
40223c14 g     F .irom0.text	00000044 espconn_regist_time
3ffea670 g     O .bss	00000020 if_ctrl
40208c5c g     F .irom0.text	00000067 ram_restart_cal
40208318 g     F .irom0.text	00000016 phy_delete_channel
40208378 g     F .irom0.text	00000016 phy_set_sense
3ffe86b0 g     O .rodata	00000004 ip_addr_broadcast
3fff1735 g     O .bss	00000001 PendFreeBcnEb
40213548 g     F .irom0.text	000000c5 rc_enable_trc
4020daa0 g     F .irom0.text	00000149 tx_pwr_backoff
40218520 g     F .irom0.text	00000015 ieee80211_set_shortslottime
402106c8 g     F .irom0.text	00000011 ic_interface_enabled
3ffe86c0 g     O .rodata	00000014 memp_sizes
40207ce0 g     F .irom0.text	00000017 _ZN5Print5printEc
4021ae60 g     F .irom0.text	0000006c cnx_rc_update_state_metric
40107498 g     F .text	00000018 .hidden __ashrdi3
40225a30 g     F .irom0.text	00000033 hex2byte
40204954 g     F .irom0.text	00000015 system_get_vdd33
40208748 g     F .irom0.text	00000025 ram_chip_v6_rx_init
40225c88 g     F .irom0.text	0000000f os_random
402196a0 g     F .irom0.text	00000245 sta_input
40224290 g     F .irom0.text	0000001d espconn_igmp_join
40223570 g     F .irom0.text	0000005a udp_connect
40224324 g     F .irom0.text	00000012 espconn_mdns_get_servername
4021a104 g     F .irom0.text	00000030 chm_set_current_channel
40000f74 g       *ABS*	00000000 ets_intr_lock
4020d56c g     F .irom0.text	00000014 phy_get_rand
3fff270c g     O .bss	00000004 current_header
40213528 g     F .irom0.text	00000016 trc_onScanDone
40210af0 g     F .irom0.text	0000001c lmacSetRetryLimit
40208360 g     F .irom0.text	00000016 phy_initialize_bb
4020273c g     F .irom0.text	0000009d _ZN14HardwareSerial5beginEmh
40208394 g     F .irom0.text	000000c6 ram_pbus_set_rxgain
40204ea0 g     F .irom0.text	00000012 system_phy_set_max_tpw
40210760 g     F .irom0.text	0000000d ic_set_ptk_alg
40002ad8 g       *ABS*	00000000 ets_strstr
4021fa8c g     F .irom0.text	00000027 netif_set_addr
4021be28 g     F .irom0.text	00000022 dhcp_arp_reply
40104ca0 g     F .text	00000015 rcReachRetryLimit
40220274 g     F .irom0.text	0000004a pbuf_strstr
40101118 g     F .text	00000013 strstr
4020528c g     F .irom0.text	00000005 system_get_rst_info
3ffe8000 g       *ABS*	00000000 _data_start
40100ea4 g     F .text	00000056 system_rtc_mem_write
40002ecc g       *ABS*	00000000 ets_delay_us
402035e0 g     F .irom0.text	000000d3 coshf
40000dd0 g       *ABS*	00000000 ets_task
40218350 g     F .irom0.text	00000002 ieee80211_psq_cleanup
402027dc g     F .irom0.text	0000005d _ZN14HardwareSerial3endEv
4020220c g     F .irom0.text	00000023 _Z21uart_get_tx_fifo_roomP5uart_
40204fcc g     F .irom0.text	0000000e system_relative_time
40229010 g     F .irom0.text	0000002b wpa_register
40212604 g     F .irom0.text	00000105 pp_enable_noise_timer
40202d04 g     F .irom0.text	00000008 __cxa_pure_virtual
40000f80 g       *ABS*	00000000 ets_intr_unlock
402185fc g     F .irom0.text	00000002 ieee80211_wme_updateparams
40206630 g     F .irom0.text	00000008 wifi_get_phy_mode
3fff27a0 g     O .bss	000000b4 premot
3ffea660 g     O .bss	00000001 interface_mask
40105528 g     F .text	00000017 wDev_ClearTxqCollisions
40201798 g     F .irom0.text	00000064 initPins
40222d38 g     F .irom0.text	000000fc tcp_zero_window_probe
40216954 g     F .irom0.text	000000fc ieee80211_parse_rsn
40202e80 g     F .irom0.text	00000027 atan2
40201100 g     F .irom0.text	00000021 __yield
4021d484 g     F .irom0.text	00000013 dns_getserver
40208828 g     F .irom0.text	00000187 readvdd33
40212598 g     F .irom0.text	00000023 RxNodeNum
40205320 g     F .irom0.text	00000008 wifi_softap_dhcps_status
401074b8 g     F .text	00000000 .hidden __floatsisf
40208778 g     F .irom0.text	000000a8 tsen_meas
4021ba18 g     F .irom0.text	0000003b dhcp_fine_tmr
3fff1c60 g     O .bss	0000000a dhcp_rx_options_given
4021258c g     F .irom0.text	00000002 pp_soft_wdt_stop
3ffe84c0 g     O .data	00000006 ieee80211_addr_bcast
40213610 g     F .irom0.text	00000008 rc_get_mask
4020d7b8 g     F .irom0.text	00000106 correct_rf_ana_gain
40205414 g     F .irom0.text	00000011 wifi_get_opmode_default
3ffea50c g     O .bss	00000001 txbk_dpdby_flag
40101244 g     F .text	0000000e isupper
401010e8 g     F .text	00000013 strncmp
4021d22c g     F .irom0.text	000000ce wifi_softap_set_dhcps_lease
402029d0 g     F .irom0.text	00000037 _ZN14HardwareSerial16_rx_complete_irqEc
2222211f g       *ABS*	00000000 _memmap_cacheattr_wba_trapnull
40206ea8 g     F .irom0.text	00000360 ets_vsnprintf
4021f3c0 g     F .irom0.text	000000c4 ipaddr_ntoa_r
3ffe90c8 g     O .bss	00000004 promiscuous_cb
40105118 g     F .text	00000329 wDev_ProcessFiq
40227c98 g     F .irom0.text	00000126 wpa_validate_wpa_ie
402247a4 g     F .irom0.text	00000156 igmp_input
4020186c g     F .irom0.text	0000001b timer1_attachInterrupt
401060b8 g     F .text	00000019 dns_tmr
40002aa8 g       *ABS*	00000000 ets_strcmp
40101100 g     F .text	00000013 strncpy
402033e0 g     F .irom0.text	00000102 sinh
3fff2768 g     O .bss	00000004 tcp_bound_pcbs
40101374 g     F .text	00000000 .hidden __eqsf2
4021aa00 g     F .irom0.text	000000af cnx_bss_alloc
402076d8 g     F .irom0.text	00000034 strcasecmp
40211f28 g     F .irom0.text	00000016 pm_enable_gpio_wakeup
3fff11c4 g     O .bss	00000558 g_ic
40210000 g     F .irom0.text	000000a0 pm_set_sleep_btco
40221ca4 g     F .irom0.text	00000026 tcp_seg_free
402032bc g     F .irom0.text	00000121 log10
4022a9ac g     F .irom0.text	0000001e system_upgrade_deinit
40204f54 g     F .irom0.text	00000029 system_overclock
402201ac g     F .irom0.text	00000072 pbuf_memcmp
40214520 g     F .irom0.text	00000028 ieee80211_find_channel_byieee
40212560 g     F .irom0.text	0000002c pp_soft_wdt_init
40201e2c g     F .irom0.text	00000032 _Z9init_donev
4022904c g     F .irom0.text	00000020 wpa_set_pmk
4020aa00 g     F .irom0.text	00000159 tx_pwctrl_init_cal
40225804 g     F .irom0.text	00000014 hostapd_mac_comp
402101b4 g     F .irom0.text	000000c0 pm_set_sleep_mode
40207fd4 g     F .irom0.text	0000002e _ZN5Print7printlnEhi
40205bb4 g     F .irom0.text	00000011 wifi_station_set_config_current
fffff11f g       *ABS*	00000000 _memmap_cacheattr_wb_strict
40223bcc g     F .irom0.text	00000047 espconn_accept
4020ff0c g     F .irom0.text	00000093 pm_set_wakeup_mac
401025c8 g     F .text	00000094 lmacProcessTXStartData
40100f80 g     F .text	00000019 realloc
4020d520 g     F .irom0.text	00000015 phy_vdd33_set_tpw
40214448 g     F .irom0.text	00000057 ieee80211_mhz2ieee
4020fcc0 g     F .irom0.text	0000014b pm_goto_sleep
40202424 g     F .irom0.text	0000002b _Z21uart_arm_tx_interruptP5uart_
40000454 g       *ABS*	00000000 _xtos_set_exception_handler
4010586c g     F .text	0000002d wDev_GetBAInfo
40218ae4 g     F .irom0.text	0000003d scan_add_probe_ssid
402184f8 g     F .irom0.text	00000027 ieee80211_proto_attach
4021632c g     F .irom0.text	0000006a ieee80211_setup_rates
402137c0 g     F .irom0.text	000000c9 wDev_Option_Init
3ffea190 g     O .bss	00000004 i2c
40221884 g     F .irom0.text	00000108 tcp_connect
40206b68 g     F .irom0.text	0000003e wifi_status_led_install
4022c4cc g     F .irom0.text	000000e3 inet_chksum_pseudo_partial
40223adc g     F .irom0.text	0000000e espconn_regist_reconcb
400018d4 g       *ABS*	00000000 ets_memcmp
40001b40 g       *ABS*	00000000 mem_malloc
40206bcc g     F .irom0.text	00000011 wifi_set_status_led_output_level
40218b24 g     F .irom0.text	00000018 scan_remove_probe_ssid
4021b66c g     F .irom0.text	00000030 ieee80211_send_action_register
4020fe44 g     F .irom0.text	00000034 pm_open_rf
402138ac g     F .irom0.text	00000017 wDev_Disable_Beacon_Tsf
40209700 g     F .irom0.text	00000243 test_tout
402076bc g     F .irom0.text	0000001b strtok
40210b14 g     F .irom0.text	00000035 pm_rtc_clock_cali_proc
40209d70 g     F .irom0.text	0000034f set_rx_gain_cal_iq
401035fc g     F .text	00000016 lmacRxDone
40101064 g     F .text	00000013 memcmp
40223a18 g     F .irom0.text	0000000e espconn_tcp_get_max_con
40105fe8 g     F .text	00000043 chm_acquire_lock
402138fc g     F .irom0.text	00000034 wDev_Get_Next_TBTT
40207310 g     F .irom0.text	00000196 eagle_lwip_if_alloc
40211140 g     F .irom0.text	00000002 pm_suspend
40204670 g     F .irom0.text	000000d5 overlap_hspi_read_data
3ffea64c g     O .bss	00000002 loop_pwctrl_pwdet_error_accum_high_power
4022969c g     F .irom0.text	00000183 wpa_parse_wpa_ie_wpa
3ffe8f7c g     O .bss	00000001 user_init_flag
40215f84 g     F .irom0.text	0000001b ieee80211_add_htinfo
3ffe8544 g       *ABS*	00000000 _data_end
4021fc88 g     F .irom0.text	00000011 netif_set_link_down
40204cfc g     F .irom0.text	00000008 system_upgrade_flag_check
4021c0c0 g     F .irom0.text	0000009a dhcp_renew
40226080 g     F .irom0.text	0000007a wpa_auth_sta_associated
4021581c g     F .irom0.text	00000036 ieee80211_parse_htcap
40201278 g     F .irom0.text	00000035 init
40101150 g     F .text	00000014 isalpha
40209490 g     F .irom0.text	00000207 chip_v6_rf_init
4022376c g     F .irom0.text	00000078 espconn_find_connection
40101b14 g     F .text	00000000 .hidden __divdf3
40216398 g     F .irom0.text	00000026 ieee80211_alloc_challenge
40207594 g     F .irom0.text	00000053 strncat
40213c20 g     F .irom0.text	00000095 wDev_SetMacAddress
3ffe8d0c g       *ABS*	00000000 __XT_EXCEPTION_TABLE__
40221f5c g     F .irom0.text	00000033 tcp_eff_send_mss
401054f4 g     F .text	00000023 wDev_ProcessCollision
4021d1c4 g     F .irom0.text	00000066 dhcps_stop
40205fd8 g     F .irom0.text	00000052 wifi_softap_set_default_ssid
4021aef0 g     F .irom0.text	00000030 cnx_update_bss
40213768 g     F .irom0.text	00000020 rc_get_trc_by_index
4021091c g     F .irom0.text	0000005a ic_bss_info_update
40212eb8 g     F .irom0.text	000000f1 pp_attach
4021de94 g     F .irom0.text	0000001e espconn_tcp_disconnect
4021df58 g     F .irom0.text	00000055 espconn_recv_unhold
40101870 g     F .text	00000000 .hidden __muldf3
40002c64 g       *ABS*	00000000 timer_insert
40210740 g     F .irom0.text	0000000d ic_get_ptk_alg
3ffe9097 g     O .bss	00000001 deep_sleep_flag
3fff2570 g     O .bss	00000078 espconn_TaskQueue
400060ec g     F *ABS*	00000000 rom_chip_v5_enable_cca
4022aac8 g     F .irom0.text	00000054 system_upgrade_erase_flash
3ffea904 g     O .bss	00000014 SoftWdtTimer
40204eb4 g     F .irom0.text	00000012 system_phy_set_tpw_via_vdd33
40223eac g     F .irom0.text	0000003d espconn_delete
402230cc g     F .irom0.text	0000000f sys_restart_timeouts
40201738 g     F .irom0.text	00000050 __detachInterrupt
4020770c g     F .irom0.text	00000043 strdup
4021bd38 g     F .irom0.text	000000a8 dhcp_inform
40218ce0 g     F .irom0.text	00000012 cannel_scan_connect_state
40103448 g     F .text	0000013d lmacTxFrame
402193d8 g     F .irom0.text	000002c8 ieee80211_sta_new_state
40220360 g     F .irom0.text	0000000f raw_connect
40206520 g     F .irom0.text	0000004e wifi_softap_get_station_num
4021dddc g     F .irom0.text	000000b5 espconn_tcp_sent
4022a2e4 g     F .irom0.text	000000df aes_wrap
40206cb0 g     F .irom0.text	00000029 system_uart_de_swap
402146a8 g     F .irom0.text	00000002 ieee80211_crypto_attach
40217484 g     F .irom0.text	000001ab ieee80211_send_probereq
4020d790 g     F .irom0.text	00000028 get_rf_gain_qdb
4020cd50 g     F .irom0.text	00000053 set_crystal_uart
4020b428 g     F .irom0.text	00000188 chip_v6_set_chan_rx_cmp
4020e848 g     F .irom0.text	0000006b tx_pwctrl_bg_init
4020d27c g     F .irom0.text	00000052 set_dpd_bypass
4020c61c g     F .irom0.text	00000159 chip_v6_initialize_bb
40009300 g       *ABS*	00000000 rijndaelKeySetupEnc
fffff11f g       *ABS*	00000000 _memmap_cacheattr_wt_strict
40210b4c g     F .irom0.text	00000019 pm_set_sleep_time
4020e4b0 g     F .irom0.text	00000048 get_pwctrl_correct
4010108c g     F .text	00000013 memset
40204b2c g     F .irom0.text	0000001a system_get_boot_mode
40209ad8 g     F .irom0.text	0000017c phy_get_vdd33
40207a30 g     F .irom0.text	0000000f __ieee754_sqrtf
4022596c g     F .irom0.text	00000019 hostapd_rate_found
4021b4a8 g     F .irom0.text	000001b3 cnx_node_join
4020d688 g     F .irom0.text	00000099 set_rfanagain_dc_reg
4020fae4 g     F .irom0.text	00000039 get_chip_version
40227ba8 g     F .irom0.text	00000082 wpa_auth_gen_wpa_ie
40212c0c g     F .irom0.text	00000014 pp_tx_idle_timeout
4022a1ac g     F .irom0.text	0000000f wpa_neg_complete
40211370 g     F .irom0.text	000000f3 pm_shutdown
402055d0 g     F .irom0.text	00000011 wifi_set_opmode_current
4020f980 g     F .irom0.text	00000023 pm_set_sleep_cycles
40000e24 g       *ABS*	00000000 ets_post
40100e38 g     F .text	00000014 system_phy_temperature_alert
40214b14 g     F .irom0.text	00000082 ieee80211_hostap_attach
402144c0 g     F .irom0.text	00000035 ieee80211_ieee2mhz
40103af0 g     F .text	00000026 ppDequeueTxQ
40223ac0 g     F .irom0.text	0000000e espconn_regist_connectcb
40101428 g     F .text	00000000 .hidden __ltsf2
40208588 g     F .irom0.text	0000006d set_rf_freq_offset
40224544 g     F .irom0.text	00000014 icmp_dest_unreach
3ff00000 g       *ABS*	00000000 _dport0_rodata_end
40100010 g       .text	00000000 _DebugExceptionVector
40209cb8 g     F .irom0.text	000000a3 set_cal_rxdc
40106520 g     F .text	00000007 getPcb
40202d14 g     F .irom0.text	00000008 _ZSt25__throw_bad_function_callv
40221e80 g     F .irom0.text	00000005 tcp_sent
40213e24 g     F .irom0.text	000000d0 wDev_Insert_KeyEntry
40002f04 g       *ABS*	00000000 ets_update_cpu_frequency
40202cf0 g     F .irom0.text	00000013 _ZdaPv
40220184 g     F .irom0.text	00000025 pbuf_get_at
40203d34 g     F .irom0.text	00000035 matherr
40100020 g       .text	000000c7 _NMIExceptionVector
401060a8 g     F .text	00000007 chm_get_current_channel
40101e48 g     F .text	00000000 .hidden __truncdfsf2
4021b358 g     F .irom0.text	0000005e cnx_node_search
3ffe8d74 g       *ABS*	00000000 __init_array_end
40201eb8 g     F .irom0.text	00000002 _Z13pre_user_loopv
40103b70 g     F .text	00000034 ppEnqueueTxDone
4022045c g     F .irom0.text	00000043 raw_new
40100888 g     F .text	00000013 pvPortZalloc
40208004 g     F .irom0.text	0000000f _ZN5Print5printEji
40103648 g     F .text	00000079 pp_soft_wdt_feed
40206cec g     F .irom0.text	0000003c divide
4021c9e0 g     F .irom0.text	0000001c node_insert_to_list
40101194 g     F .text	0000001e isgraph
3ffea526 g     O .bss	00000001 phy_in_most_power
40207cb0 g     F .irom0.text	0000002e _ZN5Print5printEPKc
4020288c g     F .irom0.text	0000000a _ZN14HardwareSerial11isRxEnabledEv
402067c0 g     F .irom0.text	000000e3 wifi_promiscuous_enable
4020d378 g     F .irom0.text	000000af get_phy_target_power
4020fe0c g     F .irom0.text	00000038 pm_wait4wakeup
4021683c g     F .irom0.text	00000116 ieee80211_parse_wpa
40201240 g     F .irom0.text	00000013 micros
4010112c g     F .text	00000022 isalnum
4020c4fc g     F .irom0.text	000000a1 tx_cont_en
40204fb0 g     F .irom0.text	00000015 system_timer_reinit
402242fc g     F .irom0.text	00000012 espconn_mdns_get_hostname
4021400c g     F .irom0.text	00000017 wDevEnableRx
401011c4 g     F .text	00000022 isprint
40204fec g     F .irom0.text	000000de system_station_got_ip_set
40202f80 g     F .irom0.text	00000146 exp
402123dc g     F .irom0.text	0000002c pm_sleep_for
3ffe8022 g     O .data	00000002 tx_rf_ana_gain
40218330 g     F .irom0.text	00000020 ieee80211_psq_init
4020d5a0 g     F .irom0.text	0000001b dcoindex2txbbgain
401073e8 g     F .text	00000064 .hidden __divsi3
40220428 g     F .irom0.text	00000033 raw_remove
40202714 g     F .irom0.text	00000007 _Z14uart_get_debugv
402024bc g     F .irom0.text	00000006 _Z17uart_get_baudrateP5uart_
4021ac74 g     F .irom0.text	000000d1 cnx_remove_rc
40225540 g     F .irom0.text	0000002d mdns_set_servername
402106dc g     F .irom0.text	00000048 ic_disable_interface
4021b718 g     F .irom0.text	00000030 ieee80211_recv_action_register
4000b840 g       *ABS*	00000000 pbkdf2_sha1
3ffe90c4 g     O .bss	00000001 default_interface
3ffea52b g     O .bss	00000001 phy_set_most_tpw_disbg
4020f8f0 g     F .irom0.text	00000049 wd_reset_cnt
40106898 g     F .text	00000000 .hidden __mulsf3
4020dd60 g     F .irom0.text	0000020e txiq_cover
40203d04 g     F .irom0.text	00000030 finite
40204a10 g     F .irom0.text	0000001e system_get_flash_size_map
40100220 g     F .text	00000015 call_user_start_local
40213b9c g     F .irom0.text	00000060 wDev_Initialize
402234f4 g     F .irom0.text	0000007b udp_bind
4021b218 g     F .irom0.text	00000063 cnx_sta_associated
40221550 g     F .irom0.text	00000020 tcp_tmr
40004678 g       *ABS*	00000000 Cache_Read_Enable
4021ee04 g     F .irom0.text	00000145 etharp_query
40206aac g     F .irom0.text	000000b7 wifi_set_macaddr
3ffea650 g     O .bss	00000001 tx_pwctrl_set_chan_flag
401010a4 g     F .text	00000013 strcmp
40001f00 g       *ABS*	00000000 ets_vprintf
40205da0 g     F .irom0.text	00000092 wifi_station_connect
40227f34 g     F .irom0.text	00000011 wpa_auth_uses_mfp
4021f0c8 g     F .irom0.text	0000002c lwip_init
40225c74 g     F .irom0.text	00000012 r_rand
4020f6dc g     F .irom0.text	000000bf data_collect
401028cc g     F .text	00000013 lmacDiscardAgedMSDU
40209360 g     F .irom0.text	00000030 chip_v6_set_chan_offset
402241d4 g     F .irom0.text	00000031 espconn_udp_disconnect
40210780 g     F .irom0.text	0000000d ic_interface_is_p2p
402239d8 g     F .irom0.text	00000021 espconn_tcp_get_wnd
4020ea84 g     F .irom0.text	000001de ram_cal_tos_v60
4021ecec g     F .irom0.text	0000010e etharp_output
40218244 g     F .irom0.text	0000000f ieee80211_phy_type_get
40218404 g     F .irom0.text	000000b7 pwrsave_flushq
4021b6a0 g     F .irom0.text	00000012 ieee80211_send_action_unregister
40202450 g     F .irom0.text	0000002b _Z24uart_disarm_tx_interruptP5uart_
40205f04 g     F .irom0.text	00000016 wifi_station_set_reconnect_policy
40214164 g     F .irom0.text	000000cf wdev_exit_sniffer
400043c8 g       *ABS*	00000000 SPI_read_status
40206ba8 g     F .irom0.text	00000023 wifi_status_led_uninstall
3fffc714 g       *ABS*	00000000 flashchip
400038a4 g       *ABS*	00000000 uart_buff_switch
40201650 g     F .irom0.text	0000008b interrupt_handler
402018f0 g     F .irom0.text	0000002e timer1_write
4021456c g     F .irom0.text	0000013b wifi_mode_set
40101fd4 g     F .text	0000002c unsign_to_sign
402011b0 g     F .irom0.text	0000004c delay
40101c38 g     F .text	00000000 .hidden __nedf2
3ffea530 g     O .bss	00000004 adc_rand_noise
4020f9a8 g     F .irom0.text	00000102 pm_sleep_opt
4020c0bc g     F .irom0.text	0000001b uart_wait_idle
40207b0c g     F .irom0.text	000000e3 _Z17at_exeCmdCiupdateh
3ffe8070 g     O .data	00000003 test_rffreq_txcap
3fff2860 g     O .bss	00000028 pktinfo
40208298 g     F .irom0.text	0000001c rf_init
40213508 g     F .irom0.text	00000020 trc_onScanStart
40205328 g     F .irom0.text	00000053 wifi_station_dhcpc_start
40225e60 g     F .irom0.text	00000004 wpa_auth_for_each_sta
40003a14 g       *ABS*	00000000 Uart_Init
4020b5b0 g     F .irom0.text	00000056 chip_v6_set_chan_misc
402186e4 g     F .irom0.text	000000e9 scan_start
4020f970 g     F .irom0.text	00000008 pm_rtc2usec
4020b628 g     F .irom0.text	0000035e phy_dig_spur_set
40224610 g     F .irom0.text	0000000f igmp_init
402026d4 g     F .irom0.text	0000003f _Z14uart_set_debugi
40202c3c g     F .irom0.text	00000066 _ZN5Print6printfEPKcz
40100fec g     F .text	0000002f sprintf
4021fbb4 g     F .irom0.text	0000000d netif_set_gw
4021ff18 g     F .irom0.text	00000017 pbuf_clen
40210a14 g     F .irom0.text	0000002c lmacInitAc
401043f8 g     F .text	00000070 ppCalFrameTimes
4020537c g     F .irom0.text	00000041 wifi_station_dhcpc_stop
3ffea528 g     O .bss	00000001 rtc_mem_check_fail
40201074  w    F .irom0.text	00000004 atexit
3fff1c5c g     O .bss	00000004 g_cnx_probe_rc_list_cb
4022a2bc g     F .irom0.text	0000001a wpa_sm_deauthenticate
40102568 g     F .text	00000053 lmacSetAcParam
40101408 g     F .text	00000000 .hidden __gesf2
4021b0d8 g     F .irom0.text	000000df cnx_sta_leave
4010098c g     F .text	0000002d spi_flash_read_status
40221ccc g     F .irom0.text	00000005 tcp_setprio
4020d304 g     F .irom0.text	00000071 get_vdd33_offset
40218aac g     F .irom0.text	00000021 scan_add_bssid
4020c890 g     F .irom0.text	00000092 bbpll_cal
40224364 g     F .irom0.text	00000012 espconn_mdns_close
40216224 g     F .irom0.text	00000107 ieee80211_decap
402082fc g     F .irom0.text	0000001c RFChannelSel
40223340 g     F .irom0.text	00000014 udp_send
40201a28 g     F .irom0.text	00000093 ltoa
40227e98 g     F .irom0.text	0000009a wpa_parse_kde_ies
401012c4 g     F .text	0000001d cont_check
401044a4 g     F .text	00000014 RC_GetAckTime
40220150 g     F .irom0.text	00000032 pbuf_coalesce
40202aec g     F .irom0.text	00000117 _Z22uart_interrupt_handlerP5uart_
40220370 g     F .irom0.text	00000006 raw_recv
4020f7b0 g     F .irom0.text	00000078 operation_test
4020f828 g     F .irom0.text	0000000e slop_wdt_feed
4020bc0c g     F .irom0.text	0000001d chip_v6_rxmax_ext
4021fab4 g     F .irom0.text	0000005c netif_remove
3ffea651 g     O .bss	00000001 rxiq_cover_fail_num
40223ad0 g     F .irom0.text	0000000c espconn_regist_recvcb
3ffe8b50  w    O .rodata	00000020 _ZTV6Stream
4022a018 g     F .irom0.text	00000014 wpa_config_assoc_ie
40221994 g     F .irom0.text	00000275 tcp_slowtmr
40229398 g     F .irom0.text	00000028 wpa_sm_set_state
402185d0 g     F .irom0.text	00000011 ieee80211_setbasicrates
3ffe84fc g     O .data	00000018 ccmp
402055bc g     F .irom0.text	00000011 wifi_set_opmode
40207a40 g     F .irom0.text	0000000f __ieee754_sinhf
3fff1ca8 g     O .bss	00000002 s
402015a0 g     F .irom0.text	0000005a __digitalWrite
402035c0 g     F .irom0.text	0000001f atan2f
40204b5c g     F .irom0.text	000000fd system_restart_enhance
40214778 g     F .irom0.text	00000048 ieee80211_getmgtframe
3ffea50e g     O .bss	00000001 sw_scan_mode
40207a50 g     F .irom0.text	0000000f __ieee754_log
40204a94 g     F .irom0.text	00000098 system_get_userbin_addr
40210a48 g     F .irom0.text	00000074 lmacInit
4021db08 g     F .irom0.text	0000009a espconn_find_current_pcb
40201fac g     F .irom0.text	00000002 _Z16uart_ignore_charc
40202720 g     F .irom0.text	0000001b _ZN14HardwareSerialC1Ei
2222211f g       *ABS*	00000000 _memmap_cacheattr_wb_trapnull
40229078 g     F .irom0.text	00000080 wpa_set_bss
402063e0 g     F .irom0.text	00000069 wifi_softap_set_station_info
402173b0 g     F .irom0.text	00000038 ieee80211_add_rates
4020474c g     F .irom0.text	0000000d system_set_os_print
40229ab4 g     F .irom0.text	0000004a wpa_cipher_put_suites
4022903c g     F .irom0.text	0000000d wpa_set_profile
4020fe88 g     F .irom0.text	00000083 pm_sleep_set_mac
40212778 g     F .irom0.text	00000025 pp_enable_idle_timer
40208a7c g     F .irom0.text	00000080 set_txcap_reg
40229a00 g     F .irom0.text	00000051 wpa_cipher_to_suite
40105ecc g     F .text	000000e2 esf_buf_recycle
4021e760 g     F .irom0.text	00000080 espconn_tcp_delete
4020a28c g     F .irom0.text	0000030a set_rx_gain_testchip_50
3ffea520 g     O .bss	00000004 periodic_cal_dc_num
3ffeb2d4 g     O .bss	00000004 WdevTimOffSet
40229fa0 g     F .irom0.text	00000037 wpa_config_profile
40219a14 g     F .irom0.text	00000062 ieee80211_parse_wmeparams
3ffe8d74 g       *ABS*	00000000 _bss_table_start
4020f604 g     F .irom0.text	00000045 dpd_scale_set
40202850 g     F .irom0.text	00000030 _ZN14HardwareSerial14setDebugOutputEb
40221e90 g     F .irom0.text	00000004 tcp_accept
402089bc g     F .irom0.text	000000bf txpwr_offset
40218cf8 g     F .irom0.text	00000046 scan_connect_state
402125e0 g     F .irom0.text	00000015 pp_disable_noise_timer
3ffea508 g     O .bss	00000002 phy_freq_offset
40207f9c g     F .irom0.text	00000021 _ZN5Print5printEmi
3fff173c g     O .bss	000000a4 gScanStruct
40228eac g     F .irom0.text	00000160 wpa_sm_rx_eapol
400024cc g       *ABS*	00000000 ets_printf
4000448c g       *ABS*	00000000 Wait_SPI_Idle
40201edc g     F .irom0.text	00000057 setup
4020df78 g     F .irom0.text	0000026a ram_rfcal_txiq
40225c98 g     F .irom0.text	0000005c os_get_random
4020faac g     F .irom0.text	0000002e pm_wakeup_opt
40225588 g     F .irom0.text	0000002d mdns_server_unregister
401033b4 g     F .text	0000007e lmacProcessTxError
4020475c g     F .irom0.text	00000008 system_get_os_print
401009f4 g     F .text	00000028 spi_flash_erase_sector
40104cb8 g     F .text	000000b5 trc_NeedRTS
40224310 g     F .irom0.text	00000012 espconn_mdns_set_servername
40103314 g     F .text	00000092 lmacProcessTxRtsError
40103be0 g     F .text	00000016 ppEnqueueRxq
400047f0 g       *ABS*	00000000 Cache_Read_Disable
402242cc g     F .irom0.text	00000012 espconn_mdns_disable
3ffea494 g     O .bss	00000074 chip6_phy_init_ctrl
402144a0 g     F .irom0.text	00000015 ieee80211_chan2ieee
40204f80 g     F .irom0.text	0000002f system_restoreclock
401044b8 g     F .text	00000036 RC_GetCtsTime
40223f6c g     F .irom0.text	00000160 espconn_udp_sent
4020e508 g     F .irom0.text	0000033f tx_pwctrl_cal
402051b4 g     F .irom0.text	000000d0 system_mktime
40000f88 g       *ABS*	00000000 ets_isr_attach
40207f70 g     F .irom0.text	0000002b _ZN5Print7printlnEli
40103ab0 g     F .text	0000003e ppFetchTxQFirstAvail
40203d6c g     F .irom0.text	00000027 nan
4020e97c g     F .irom0.text	00000063 read_sar_dout
40223f08 g     F .irom0.text	00000012 espconn_dns_setserver
402127d8 g     F .irom0.text	00000071 ppPeocessRxPktHdr
40212264 g     F .irom0.text	0000002d pm_scan_lock
40202720 g     F .irom0.text	0000001b _ZN14HardwareSerialC2Ei
40216e60 g     F .irom0.text	000000f3 ieee80211_mgmt_output
40226bcc g     F .irom0.text	000000a5 wpa_auth_sm_event
4021a010 g     F .irom0.text	00000037 chm_start_op
40207a60 g     F .irom0.text	0000000f __ieee754_sqrt
40204a6c g     F .irom0.text	00000021 system_get_test_result
40225750 g     F .irom0.text	00000047 hostapd_config_defaults_bss
3ff00000 g       *ABS*	00000000 _dport0_data_end
40214030 g     F .irom0.text	000000db wdev_go_sniffer
40206730 g     F .irom0.text	0000002a wifi_set_channel
40100aac g     F .text	000000ae os_printf_plus
4020e8c4 g     F .irom0.text	000000b5 tx_pwctrl_background
40201130 g     F .irom0.text	0000002b _Z12arduino_initv
402068c4 g     F .irom0.text	000000d5 wifi_get_ip_info
400039d8 g       *ABS*	00000000 uart_div_modify
3fff2764 g     O .bss	00000004 tcp_tw_pcbs
4020fb24 g     F .irom0.text	0000003f pm_sleep_opt_bb_off
3ffe909c g     O .bss	00000004 event_cb
40223a28 g     F .irom0.text	00000016 espconn_tcp_set_max_con
40101184 g     F .text	0000000e isdigit
40101fc8 g     F .text	0000000b phy_get_mactime
4022c744 g     F .irom0.text	00000004 eloop_cancel_timeout
402230e0 g     F .irom0.text	00000260 udp_input
4020dc28 g     F .irom0.text	00000085 ram_set_txbb_atten
401028e0 g     F .text	00000022 lmacRecycleMPDU
4022a2e0 g     F .irom0.text	00000002 wpa_sm_disassociate
3ffe8550 g       *ABS*	00000000 _rodata_start
40100070 g       .text	00000000 _DoubleExceptionVector
40005050 g       *ABS*	00000000 lldesc_num2link
40209c54 g     F .irom0.text	00000002 ram_tx_mac_enable
40218cd8 g     F .irom0.text	00000007 scan_get_type
400031b4 g       *ABS*	00000000 roundup2
4010015c g       .text	00000000 _UserExceptionVector_1
4022380c g     F .irom0.text	000000e3 espconn_connect
40101474 g     F .text	00000000 .hidden __unordsf2
40201010 g       *ABS*	00000000 _irom0_text_start
4021b6b4 g     F .irom0.text	00000052 ieee80211_send_action
40212410 g     F .irom0.text	0000004c pm_post
4021fa1c g     F .irom0.text	00000002 netif_init
4021d348 g     F .irom0.text	00000069 dhcps_coarse_tmr
4021335c g     F .irom0.text	0000004a RC_SetBasicRate
401039e8 g     F .text	00000076 ppProcessTxQ
4020115c g     F .irom0.text	0000000f delay_end
40206718 g     F .irom0.text	00000015 wifi_get_channel
40204ce8 g     F .irom0.text	00000014 system_upgrade_flag_set
4020d580 g     F .irom0.text	00000020 txbbgain2dcoindex
4021369c g     F .irom0.text	0000001a rc_disable_trc_by_interface
4020cedc g     F .irom0.text	00000035 rtc_mem_check
400018b4 g       *ABS*	00000000 ets_memcpy
4021f484 g     F .irom0.text	00000075 ip_route
4020ade4 g     F .irom0.text	000000f4 tx_pwctrl_init
40201ea0 g     F .irom0.text	00000018 user_init
40210e60 g     F .irom0.text	000000f0 pm_set_sleep_type_from_upper
40221730 g     F .irom0.text	000000b2 tcp_listen_with_backlog
3ffea640 g     O .bss	00000006 tx_pwctrl_atten_init
4022c8d4 g       *ABS*	00000000 _flash_code_end
40206be0 g     F .irom0.text	00000008 wifi_set_event_handler_cb
40225570 g     F .irom0.text	0000000e mdns_get_servername
40201b44 g     F .irom0.text	00000085 ultoa
40204ee0 g     F .irom0.text	00000056 system_update_cpu_freq
401008d4 g     F .text	00000002 vPortInitialiseBlocks
4021fe34 g     F .irom0.text	0000006a pbuf_header
3ffe807c g     O .data	00000004 soft_wdt_interval
3fff2718 g     O .bss	00000004 netif_default
4022420c g     F .irom0.text	00000062 espconn_udp_server
40208264 g     F .irom0.text	0000002e _ZN5Print7printlnEdi
40221ee4 g     F .irom0.text	00000063 tcp_pcb_remove
40000fa8 g       *ABS*	00000000 ets_isr_unmask
3fff2794 g     O .bss	00000004 pserver_list
402082b4 g     F .irom0.text	00000016 bb_init
40218358 g     F .irom0.text	0000003d ieee80211_set_tim
402085f8 g     F .irom0.text	0000014e chip_v6_rxmax_ext_ana
40223938 g     F .irom0.text	000000a0 espconn_sent
40202ca4 g     F .irom0.text	00000019 _Znwj
402054cc g     F .irom0.text	0000007e wifi_set_broadcast_if
4021aab0 g     F .irom0.text	00000072 cnx_rc_search
40229268 g     F .irom0.text	000000a5 pp_michael_mic_failure
4021ff68 g     F .irom0.text	0000001a pbuf_chain
4020592c g     F .irom0.text	00000038 wifi_station_ap_number_set
402215f4 g     F .irom0.text	00000092 tcp_abandon
40205f1c g     F .irom0.text	00000008 wifi_station_get_reconnect_policy
3fff2f90 g     O .bss	00000004 timer1_user_cb
40222e74 g     F .irom0.text	00000030 tcp_timer_needed
40207ed4 g     F .irom0.text	0000005f _ZN5Print5printEli
2222211f g       *ABS*	00000000 _memmap_cacheattr_wbna_trapnull
401074b0 g     F .text	00000000 .hidden __floatunsisf
4021bc40 g     F .irom0.text	00000024 dhcp_set_struct
40221c0c g     F .irom0.text	0000007c tcp_fasttmr
4020da30 g     F .irom0.text	0000006d meas_tone_pwr_db
40218d40 g     F .irom0.text	0000001e scan_check_hidden
40213624 g     F .irom0.text	00000075 rc_disable_trc
40207a70 g     F .irom0.text	0000000f __ieee754_coshf
40216a50 g     F .irom0.text	00000056 ieee80211_parse_action
402021bc g     F .irom0.text	00000038 _ZN14HardwareSerial4readEv
4020518c g     F .irom0.text	00000012 system_rtc_clock_cali_proc
4020e3a8 g     F .irom0.text	00000108 get_target_power_offset
4010744c g     F .text	00000049 .hidden __modsi3
40210510 g     F .irom0.text	00000029 sleep_opt_bb_on_8266
402260fc g     F .irom0.text	00000009 wpa_auth_sta_no_wpa
40002a88 g       *ABS*	00000000 ets_strcpy
40210750 g     F .irom0.text	0000000d ic_get_gtk_alg
4020ab68 g     F .irom0.text	0000026d tx_atten_set_interp
402050f0 g     F .irom0.text	0000005f system_print_meminfo
40205490 g     F .irom0.text	00000035 wifi_get_broadcast_if
40208040 g     F .irom0.text	0000002b _ZN5Print7printlnEmi
40213504 g     F .irom0.text	00000002 trc_onDisconnect
4020cf14 g     F .irom0.text	0000002c phy_afterwake_set_rfoption
3fff1c70 g     O .bss	00000028 dhcp_rx_options_val
40218600 g     F .irom0.text	0000004f ieee80211_mlme_connect_bss
4021a198 g     F .irom0.text	0000003f cnx_attach
4000b8b4 g       *ABS*	00000000 hmac_sha1_vector
40204538 g     F .irom0.text	00000099 overlap_hspi_init
4020cd18 g     F .irom0.text	00000030 change_bbpll160
40201934 g     F .irom0.text	00000013 atoi
4020dbec g     F .irom0.text	0000003a get_fcc_1m2m_pwr_offset
4021ab78 g     F .irom0.text	000000fc cnx_add_rc
40101164 g     F .text	0000001d iscntrl
40205294 g     F .irom0.text	00000046 wifi_softap_dhcps_start
2222222f g       *ABS*	00000000 _memmap_cacheattr_bp_trapnull
40226698 g     F .irom0.text	000003b9 __wpa_send_eapol
4021206c g     F .irom0.text	000001c6 pm_send_nullfunc
40204970 g     F .irom0.text	00000056 system_restart
3ffe8d70 g       *ABS*	00000000 __init_array_start
40223aec g     F .irom0.text	0000000e espconn_regist_disconcb
4020cdc8 g     F .irom0.text	0000009c ant_switch_init
40101d78 g     F .text	00000000 .hidden __unorddf2
402134fc g     F .irom0.text	00000005 rcGetTrc
401047c4 g     F .text	00000002 rcUpdateDataRxDone
40224a50 g     F .irom0.text	00000030 igmp_tmr
4020f084 g     F .irom0.text	000001ca ram_rxiq_get_mis
4020d5c4 g     F .irom0.text	000000b7 init_cal_dcoffset
4020c0f4 g     F .irom0.text	000000a6 phy_pbus_soc_cfg
40208330 g     F .irom0.text	00000016 phy_enable_agc
40106af8 g     F .text	00000000 .hidden __fixunssfsi
402024d0 g     F .irom0.text	000000f1 _Z9uart_initiih
40205150 g     F .irom0.text	00000012 system_get_free_heap_size
40006b08 g       *ABS*	00000000 phy_get_romfuncs
4020a59c g     F .irom0.text	000000f0 ram_get_corr_power
40205168 g     F .irom0.text	00000023 system_get_chip_id
4021b9d0 g     F .irom0.text	00000047 dhcp_coarse_tmr
402036b4 g     F .irom0.text	0000014b expf
40229508 g     F .irom0.text	00000194 wpa_parse_wpa_ie_rsn
40213d14 g     F .irom0.text	000000d5 wDev_SetBssid
40229828 g     F .irom0.text	0000003f wpa_eapol_key_mic
40101f48 g     F .text	00000036 .hidden __muldi3
40100050 g       .text	00000000 _UserExceptionVector
40100000 g       .text	00000000 _stext
4020d428 g     F .irom0.text	000000cd set_most_pwr_reg
401064e8 g     F .text	00000032 espconn_port
40221e94 g     F .irom0.text	00000008 tcp_poll
40216f58 g     F .irom0.text	00000143 ieee80211_send_nulldata
401010d0 g     F .text	00000013 strlen
4020ee58 g     F .irom0.text	00000221 ram_rfcal_pwrctrl
4021d404 g     F .irom0.text	0000004e dns_init
402146b4 g     F .irom0.text	0000004f ieee80211_crypto_encap
40215e44 g     F .irom0.text	0000001b ieee80211_add_htcap
4020c5f8 g     F .irom0.text	00000018 tx_cont_cfg
40101280 g     F .text	0000000e toupper
40101cf0 g     F .text	00000000 .hidden __gedf2
40223620 g     F .irom0.text	00000031 udp_new
40213fd4 g     F .irom0.text	00000037 wDev_Crypto_Disable
40212754 g     F .irom0.text	00000023 pp_disable_idle_timer
40210880 g     F .irom0.text	0000008e ic_set_sta
3ffea525 g     O .bss	00000001 bbpll_cal_flag
4020c988 g     F .irom0.text	0000029c register_chipv6_phy_init_param
40204e24 g     F .irom0.text	00000060 system_deep_sleep
40106044 g     F .text	00000034 chm_cancel_op
3ffea658 g     O .bss	00000001 software_slp_reject
402064ec g     F .irom0.text	00000032 wifi_softap_free_station_info
40203af8 g     F .irom0.text	000000f3 sinhf
400060d0 g     F *ABS*	00000000 rom_chip_v5_disable_cca
40207558 g     F .irom0.text	0000001c strchr
402053c0 g     F .irom0.text	00000008 wifi_station_dhcpc_status
401036c4 g     F .text	0000000f ppProcessWaitQ
40205bdc g     F .irom0.text	00000033 wifi_station_ap_check
3ffe86a0 g     O .rodata	00000006 ethbroadcast
3ffe8700 g     O .rodata	0000000d tcp_backoff
40105518 g     F .text	0000000e wDev_GetTxqCollisions
40207c94 g     F .irom0.text	00000019 _ZN5Print5printERK6String
4010209c g     F .text	000000b5 pm_rtc_clock_cali
4020fc90 g     F .irom0.text	0000001d chg_lslp_mem_opt_8266
402018b8 g     F .irom0.text	0000002f timer1_enable
40225c70 g     F .irom0.text	00000004 os_get_time
402242e4 g     F .irom0.text	00000012 espconn_mdns_set_hostname
4020d538 g     F .irom0.text	0000002f get_adc_rand
4020c784 g     F .irom0.text	0000010a periodic_cal
4021f7fc g     F .irom0.text	000001e2 ip_output_if_opt
40218398 g     F .irom0.text	00000069 ieee80211_pwrsave
4010200c g     F .text	00000087 phy_get_bb_freqoffset
40104350 g     F .text	00000022 pp_post2
40102184 g     F .text	0000000f lmacIsActive
40102154 g     F .text	0000002b clockgate_watchdog
40102ed4 g     F .text	00000004 lmacMSDUAged
00000220 g       *ABS*	00000000 _memmap_cacheattr_bp_base
4021a1d8 g     F .irom0.text	00000046 cnx_sta_connect_led_timer_cb
40201604 g     F .irom0.text	00000034 __digitalRead
401044f0 g     F .text	0000003a RC_GetBlockAckTime
4022581c g     F .irom0.text	00000027 hostapd_mac_comp_empty
4020e9e0 g     F .irom0.text	00000091 ram_get_fm_sar_dout
40201850 g     F .irom0.text	00000019 timer1_isr_init
3ffe852c g     O .data	00000018 wep
40100e54 g     F .text	00000012 system_get_time
40209944 g     F .irom0.text	00000017 check_data_flag
402030c8 g     F .irom0.text	000000de hypot
40219390 g     F .irom0.text	00000048 sta_status_set
40101608 g     F .text	00000000 .hidden __subdf3
4000dd68 g       *ABS*	00000000 rc4_skip
4020699c g     F .irom0.text	000000b0 wifi_set_ip_info
40211468 g     F .irom0.text	0000003f pm_reset_idle_sleep
3ffea934 g     O .bss	00000001 pend_flag_periodic_cal
402242b4 g     F .irom0.text	00000012 espconn_mdns_enable
40223d18 g     F .irom0.text	00000057 espconn_set_opt
40215e60 g     F .irom0.text	00000031 ieee80211_add_htcap_vendor
40107358 g     F .text	00000048 .hidden __umulsidi3
40223dd0 g     F .irom0.text	0000006c espconn_set_keepalive
40226b80 g     F .irom0.text	00000049 wpa_remove_ptk
40206700 g     F .irom0.text	00000012 wifi_get_sleep_type
401055b4 g     F .text	0000005b wDev_SetFrameAckType
4020afcc g     F .irom0.text	0000001c read_hw_noisefloor
4020aff8 g     F .irom0.text	00000153 noise_check_loop
4010430c g     F .text	00000044 pp_post
4021113c g     F .irom0.text	00000002 uart_tx_flush
40222fc8 g     F .irom0.text	0000004a sys_untimeout
402204a4 g     F .irom0.text	000004b5 tcp_input
40210804 g     F .irom0.text	0000006e ic_set_vif
40201204 g     F .irom0.text	0000003b millis
40004f40 g       *ABS*	00000000 lldesc_build_chain
402010e8 g     F .irom0.text	00000018 esp_schedule
4010663c g     F .text	00000000 .hidden __addsf3
40105544 g     F .text	00000047 wDev_SetWaitingQueue
3ffea50a g     O .bss	00000001 do_pwctrl_flag
3ffea128 g     O .bss	00000067 config
40004cd0 g       *ABS*	00000000 gpio_output_set
4021f57c g     F .irom0.text	00000264 ip_input
3ff00000 g       *ABS*	00000000 _dport0_literal_end
402133d4 g     F .irom0.text	000000c6 rcUpdatePhyMode
40215754 g     F .irom0.text	0000004b ieee80211_ht_attach
40212234 g     F .irom0.text	00000018 pm_is_waked
40218660 g     F .irom0.text	00000051 ieee80211_scan_attach
3ffe86a6 g     O .rodata	00000006 ethzero
40223704 g     F .irom0.text	00000026 espconn_list_delete
4021e054 g     F .irom0.text	00000054 espconn_tcp_write
40205f24 g     F .irom0.text	0000003e wifi_station_get_rssi
3ffea534 g     O .bss	00000001 dpd_bypass_original
40206c38 g     F .irom0.text	00000077 system_uart_swap
40223018 g     F .irom0.text	000000b4 sys_check_timeouts
4021908c g     F .irom0.text	000002d6 scan_parse_beacon
40201258 g     F .irom0.text	00000013 delayMicroseconds
40002a98 g       *ABS*	00000000 ets_strncpy
4021fb10 g     F .irom0.text	00000037 netif_find
40100f70 g     F .text	0000000f free
4020ffa8 g     F .irom0.text	00000057 pm_check_mac_idle
40201088 g     F .irom0.text	00000035 _Z12loop_wrapperv
402082cc g     F .irom0.text	00000030 phy_init
40225cf4 g     F .irom0.text	00000029 ets_strrchr
40218288 g     F .irom0.text	0000007d ieee80211_compute_duration
40103b4c g     F .text	0000001b ppTxqUpdateBitmap
4022a814 g     F .irom0.text	0000000f aes_encrypt
40207a80 g     F .irom0.text	0000000f __ieee754_atan2f
40105590 g     F .text	0000001e wDev_ClearWaitingQueue
4021ff84 g     F .irom0.text	0000003a pbuf_dechain
40212ab4 g     F .irom0.text	00000122 ppTxPkt
4010602c g     F .text	00000011 chm_release_lock


Contents of section .data:
 3ffe8000 00000000 ff000000 01010101 01000000  ................
 3ffe8010 01000000 00000000 00000000 00000000  ................
 3ffe8020 5500f00b 90942040 c0a72040 98932040  U..... @.. @.. @
 3ffe8030 d0f62040 ec600040 d0600040 1cc62040  .. @.`.@.`.@.. @
 3ffe8040 c8f62040 01000000 00000000 00000000  .. @............
 3ffe8050 00000004 00200024 0028002c 00300034  ..... .$.(.,.0.4
 3ffe8060 00400060 00640068 00700074 0078007c  .@.`.d.h.p.t.x.|
 3ffe8070 07030300 ffffffff 02000000 40060000  ............@...
 3ffe8080 64001700 c0270900 f0000000 50a9fe3f  d....'......P..?
 3ffe8090 b0dcff3f 00000000 00000000 00000000  ...?............
 3ffe80a0 3a010201 df00d500 3a01a200 7f007500  :.......:.....u.
 3ffe80b0 2c002c00 30003c00 2c002c00 30003c00  ,.,.0.<.,.,.0.<.
 3ffe80c0 3c003000 30002c00 2c002c00 2c002c00  <.0.0.,.,.,.,.,.
 3ffe80d0 3c003000 30002c00 2c002c00 2c002c00  <.0.0.,.,.,.,.,.
 3ffe80e0 0b020b02 0b020005 0b000000 00000000  ................
 3ffe80f0 0c020802 0b020005 0b720000 08020d02  .........r......
 3ffe8100 0b020005 0b650000 0d020902 0b020005  .....e..........
 3ffe8110 0b5c0000 09020e02 0b020005 0b580000  .\...........X..
 3ffe8120 0e020a02 0b020005 0b520000 0a020f02  .........R......
 3ffe8130 0b020b05 0b4b0000 0f020b02 0b020b05  .....K..........
 3ffe8140 0b380000 0b020b02 0b020b05 0b400000  .8...........@..
 3ffe8150 0c020802 0b020005 0b720000 08020d02  .........r......
 3ffe8160 0b020005 0b650000 0d020902 0b020005  .....e..........
 3ffe8170 0b5c0000 09020e02 0b020005 0b580000  .\...........X..
 3ffe8180 0e020a02 0b020005 0b520000 0a020b02  .........R......
 3ffe8190 05020005 0b4b0000 0f020b02 05020005  .....K..........
 3ffe81a0 0b380000 0b020502 00020005 0b400000  .8...........@..
 3ffe81b0 06020502 00020005 0b390000 05020002  .........9......
 3ffe81c0 00020005 0b390000 00020002 00020005  .....9..........
 3ffe81d0 0b000000 00000000 00000000 00000000  ................
 3ffe81e0 07020602 05020005 0b400000 06020502  .........@......
 3ffe81f0 00020005 0b390000 05020002 00020005  .....9..........
 3ffe8200 0b390000 00020002 00020005 0b000000  .9..............
 3ffe8210 1f021602 0b020005 0b720000 17021502  .........r......
 3ffe8220 0b020005 0b720000 16021402 0b020005  .....r..........
 3ffe8230 0b720000 15021302 0b020005 0b600000  .r...........`..
 3ffe8240 14021202 0b020005 0b550000 13021202  .........U......
 3ffe8250 0b020005 0b4b0000 12021102 0b020005  .....K..........
 3ffe8260 0b400000 11020b02 05020005 0b3b0000  .@...........;..
 3ffe8270 10020b02 05020005 0b320000 06020502  .........2......
 3ffe8280 00020005 0b390000 05020002 00020005  .....9..........
 3ffe8290 0b390000 00020002 00020005 0b000000  .9..............
 3ffe82a0 1f021602 0b020005 0b720000 17021502  .........r......
 3ffe82b0 0b020005 0b720000 16021402 0b020005  .....r..........
 3ffe82c0 0b720000 15021302 0b020005 0b600000  .r...........`..
 3ffe82d0 14021202 0b020005 0b550000 13021202  .........U......
 3ffe82e0 0b020005 0b4b0000 12021102 10020b05  .....K..........
 3ffe82f0 0b400000 11021002 0b020b05 0b3b0000  .@...........;..
 3ffe8300 10020b02 0b020b05 0b320000 30b1fe3f  .........2..0..?
 3ffe8310 00900100 0c000000 00000000 00000000  ................
 3ffe8320 00000000 00000000 00000000 e8030000  ................
 3ffe8330 00008200 3a013a01 00000000 d0070000  ....:.:.........
 3ffe8340 04018401 0201a200 00000000 7c150000  ............|...
 3ffe8350 04028b02 df007f00 00000000 f82a0000  .............*..
 3ffe8360 04039603 d5007500 01000000 70170000  ......u.....p...
 3ffe8370 000b0c04 3c003c00 01000000 28230000  ....<.<.....(#..
 3ffe8380 000f1204 3c003c00 01000000 e02e0000  ....<.<.........
 3ffe8390 000a1806 30003000 01000000 50460000  ....0.0.....PF..
 3ffe83a0 000e2406 30003000 01000000 c05d0000  ..$.0.0......]..
 3ffe83b0 00093008 2c002c00 01000000 a08c0000  ..0.,.,.........
 3ffe83c0 000d4808 2c002c00 01000000 80bb0000  ..H.,.,.........
 3ffe83d0 00086008 2c002c00 01000000 f0d20000  ..`.,.,.........
 3ffe83e0 000c6c08 2c002c00 04000000 00000000  ..l.,.,.........
 3ffe83f0 00000000 00000000 00000000 00000000  ................
 3ffe8400 e8030000 00008200 3a013a01 00000000  ........:.:.....
 3ffe8410 d0070000 04018401 0201a200 00000000  ................
 3ffe8420 7c150000 04028b01 df007f00 00000000  |...............
 3ffe8430 f82a0000 04039601 d5007500 00000000  .*........u.....
 3ffe8440 00000000 00000000 00000000 00000000  ................
 3ffe8450 00000000 00000000 00000000 00000000  ................
 3ffe8460 00000000 00000000 00000000 00000000  ................
 3ffe8470 00000000 00000000 00000000 00000000  ................
 3ffe8480 00000000 00000000 00000000 00000000  ................
 3ffe8490 00000000 00000000 00000000 00000000  ................
 3ffe84a0 00000000 00000000 00000000 00000000  ................
 3ffe84b0 00000000 00000000 00000000 00000000  ................
 3ffe84c0 ffffffff ffff0000 5cb62140 5cb62140  ........\.!@\.!@
 3ffe84d0 5cb62140 5cb62140 08b72140 08b72140  \.!@\.!@..!@..!@
 3ffe84e0 08b72140 0000cdab ff010000 00000000  ..!@............
 3ffe84f0 ec050000 00100000 6e190000 03000000  ........n.......
 3ffe8500 08000000 08000000 00000000 54af2240  ............T."@
 3ffe8510 d0af2240 02000000 08000000 0c000000  .."@............
 3ffe8520 08000000 88b02240 1cb12240 01000000  ......"@.."@....
 3ffe8530 04000000 04000000 00000000 e4b12240  .............."@
 3ffe8540 40b22240                             @."@            
Contents of section .rodata:
 3ffe8550 10000000 48d8ff3f 5cd8ff3f c0a81f7e  ....H..?\..?...~
 3ffe8560 34183814 3c401c20 24282c30 04080c10  4.8.<@. $(,0....
 3ffe8570 636f7368 00000000 ef39fafe 422e8640  cosh.....9..B..@
 3ffe8580 51302dd5 104987c0 65787000 6879706f  Q0-..I..exp.hypo
 3ffe8590 74000000 6c6f6700 00000000 6c6f6731  t...log.....log1
 3ffe85a0 30000000 00000000 73696e68 00000000  0.......sinh....
 3ffe85b0 73717274 00000000 636f7368 66000000  sqrt....coshf...
 3ffe85c0 8071b142 b5f1cfc2 65787066 00000000  .q.B....expf....
 3ffe85d0 6879706f 74660000 6c6f6766 00000000  hypotf..logf....
 3ffe85e0 00000000 6c6f6731 30660000 00000000  ....log10f......
 3ffe85f0 73696e68 66000000 73717274 66000000  sinhf...sqrtf...
 3ffe8600 00002042 00008043 00000000 00002041  .. B...C...... A
 3ffe8610 01000000 00040000 14084000 01020303  ..........@.....
 3ffe8620 02000000 04000000 0b000000 16000000  ................
 3ffe8630 0c000000 18000000 30000000 00000000  ........0.......
 3ffe8640 00000000 00000000 00000000 00000000  ................
 3ffe8650 02020400 00000000 00000000 00000000  ................
 3ffe8660 0402040b 16000000 00000000 00000000  ................
 3ffe8670 00000000 00000000 00000000 00000000  ................
 3ffe8680 00000000 00000000 00000000 00000000  ................
 3ffe8690 00000000 00000000 adde1223 63825363  ...........#c.Sc
 3ffe86a0 ffffffff ffff0000 00000000 00000000  ................
 3ffe86b0 ffffffff 00000000 00000000 00000000  ................
 3ffe86c0 1c002400 ac002400 14000800 14001000  ..$...$.........
 3ffe86d0 14000006 00000000 00000000 00000000  ................
 3ffe86e0 6c27ff3f 6827ff3f 5c27ff3f 6427ff3f  l'.?h'.?\'.?d'.?
 3ffe86f0 03060c18 30607800 00000000 00000000  ....0`x.........
 3ffe8700 01020304 05060707 07070707 07000000  ................
 3ffe8710 00000000 00000000 64000000 f4010000  ........d.......
 3ffe8720 e8030000 04000000 04000000 00000000  ................
 3ffe8730 00000000 00000000 00000000 00000000  ................
 3ffe8740 08000000 06000000 06000000 00000000  ................
 3ffe8750 e9030000 ea040000 00000000 00000000  ................
 3ffe8760 73797374 656d5f75 70677261 64655f73  system_upgrade_s
 3ffe8770 74617274 00000000 00010102 01020203  tart............
 3ffe8780 01020203 02030304 01020203 02030304  ................
 3ffe8790 02030304 03040405 01020203 02030304  ................
 3ffe87a0 02030304 03040405 02030304 03040405  ................
 3ffe87b0 03040405 04050506 01020203 02030304  ................
 3ffe87c0 02030304 03040405 02030304 03040405  ................
 3ffe87d0 03040405 04050506 02030304 03040405  ................
 3ffe87e0 03040405 04050506 03040405 04050506  ................
 3ffe87f0 04050506 05060607 01020203 02030304  ................
 3ffe8800 02030304 03040405 02030304 03040405  ................
 3ffe8810 03040405 04050506 02030304 03040405  ................
 3ffe8820 03040405 04050506 03040405 04050506  ................
 3ffe8830 04050506 05060607 02030304 03040405  ................
 3ffe8840 03040405 04050506 03040405 04050506  ................
 3ffe8850 04050506 05060607 03040405 04050506  ................
 3ffe8860 04050506 05060607 04050506 05060607  ................
 3ffe8870 05060607 06070708 4669726d 77617265  ........Firmware
 3ffe8880 204f4e4c 59207375 70706f72 74732045   ONLY supports E
 3ffe8890 53503832 36362121 210a0000 656d7074  SP8266!!!...empt
 3ffe88a0 79206f74 700a0000 6170705f 6d61696e  y otp...app_main
 3ffe88b0 2e630000 312e312e 30000000 4d617920  .c..1.1.0...May 
 3ffe88c0 32322032 30313500 31393a33 303a3538  22 2015.19:30:58
 3ffe88d0 00000000 6e656564 20626f6f 7420312e  ....need boot 1.
 3ffe88e0 342b0000 4553505f 25303258 25303258  4+..ESP_%02X%02X
 3ffe88f0 25303258 00000000 ffffffff ffff0000  %02X............
 3ffe8900 25730000 666e6b3a 20737472 746f6c28  %s..fnk: strtol(
 3ffe8910 29206f6e 6c792073 7570706f 72747320  ) only supports 
 3ffe8920 62617365 20313020 616e6420 32204154  base 10 and 2 AT
 3ffe8930 4d210a00 5f5f6572 726e6f20 69732063  M!..__errno is c
 3ffe8940 616c6c65 64206c61 73742065 72726f72  alled last error
 3ffe8950 3a202564 20286e6f 74206375 7272656e  : %d (not curren
 3ffe8960 74290a00 0d0a6865 61702063 6f6c6c69  t)....heap colli
 3ffe8970 64656420 77697468 20736b65 74636820  ded with sketch 
 3ffe8980 73746163 6b0d0a00 64657669 63655f75  stack...device_u
 3ffe8990 70677261 64655f73 75636365 73730d0a  pgrade_success..
 3ffe89a0 00000000 64657669 63655f75 70677261  ....device_upgra
 3ffe89b0 64655f66 61696c65 640d0a00 75736572  de_failed...user
 3ffe89c0 322e6269 6e000000 75736572 312e6269  2.bin...user1.bi
 3ffe89d0 6e000000 47455420 2f257320 48545450  n...GET /%s HTTP
 3ffe89e0 2f312e31 0d0a486f 73743a20 25642e25  /1.1..Host: %d.%
 3ffe89f0 642e2564 2e25643a 25640d0a 436f6e6e  d.%d.%d:%d..Conn
 3ffe8a00 65637469 6f6e3a20 6b656570 2d616c69  ection: keep-ali
 3ffe8a10 76650d0a 43616368 652d436f 6e74726f  ve..Cache-Contro
 3ffe8a20 6c3a206e 6f2d6361 6368650d 0a557365  l: no-cache..Use
 3ffe8a30 722d4167 656e743a 204d6f7a 696c6c61  r-Agent: Mozilla
 3ffe8a40 2f352e30 20285769 6e646f77 73204e54  /5.0 (Windows NT
 3ffe8a50 20352e31 29204170 706c6557 65624b69   5.1) AppleWebKi
 3ffe8a60 742f3533 372e3336 20284b48 544d4c2c  t/537.36 (KHTML,
 3ffe8a70 206c696b 65204765 636b6f29 20436872   like Gecko) Chr
 3ffe8a80 6f6d652f 33302e30 2e313539 392e3130  ome/30.0.1599.10
 3ffe8a90 31205361 66617269 2f353337 2e333620  1 Safari/537.36 
 3ffe8aa0 0d0a4163 63657074 3a202a2f 2a0d0a41  ..Accept: */*..A
 3ffe8ab0 63636570 742d456e 636f6469 6e673a20  ccept-Encoding: 
 3ffe8ac0 677a6970 2c646566 6c617465 0d0a4163  gzip,deflate..Ac
 3ffe8ad0 63657074 2d4c616e 67756167 653a207a  cept-Language: z
 3ffe8ae0 682d434e 2c65622d 55533b71 3d302e38  h-CN,eb-US;q=0.8
 3ffe8af0 0d0a0d0a 00000000 55706772 61646520  ........Upgrade 
 3ffe8b00 616c7265 61647920 73746172 7465642e  already started.
 3ffe8b10 00000000 55706772 61646520 73746172  ....Upgrade star
 3ffe8b20 74656400 5869616f 6d695f42 6c696e64  ted.Xiaomi_Blind
 3ffe8b30 65676762 00000000 7e333735 3833377e  eggb....~375837~
 3ffe8b40 00000000 68656c6c 6f000000 00000000  ....hello.......
 3ffe8b50 00000000 00000000 042d2040 f07b2040  .........- @.{ @
 3ffe8b60 042d2040 042d2040 042d2040 042d2040  .- @.- @.- @.- @
 3ffe8b70 00000000 00000000 ac202040 f07b2040  .........  @.{ @
 3ffe8b80 cc1f2040 bc212040 b01f2040 48202040  .. @.! @.. @H  @
 3ffe8b90 0d0a0000 6e616e00 696e6600 6f766600  ....nan.inf.ovf.
 3ffe8ba0 2e000000 00000000 00000000 00000000  ................
 3ffe8bb0 042d2040 f07b2040 6c6d6163 2e630000  .- @.{ @lmac.c..
 3ffe8bc0 706d2e63 00000000 64697361 626c6500  pm.c....disable.
 3ffe8bd0 656e6162 6c650000 70702e63 00000000  enable..pp.c....
 3ffe8be0 77646576 2e630000 62670a00 3230382e  wdev.c..bg..208.
 3ffe8bf0 36372e32 32322e32 32320000 5f736572  67.222.222.._ser
 3ffe8c00 76696365 732e5f64 6e732d73 642e5f75  vices._dns-sd._u
 3ffe8c10 64702e6c 6f63616c 00000000 6c6f6361  dp.local....loca
 3ffe8c20 6c000000 5055434b 2050524f 544f434f  l...PUCK PROTOCO
 3ffe8c30 4c000000 76656e64 6f72203d 20257300  L...vendor = %s.
 3ffe8c40 45737072 65737369 66000000 5f457370  Espressif..._Esp
 3ffe8c50 72657373 69662e5f 7463702e 5f6c6f63  ressif._tcp._loc
 3ffe8c60 616c0000 5f25732e 5f746370 2e6c6f63  al.._%s._tcp.loc
 3ffe8c70 616c0000 3232342e 302e302e 32353100  al..224.0.0.251.
 3ffe8c80 496e6974 20436f75 6e746572 00000000  Init Counter....
 3ffe8c90 50616972 77697365 206b6579 20657870  Pairwise key exp
 3ffe8ca0 616e7369 6f6e0000 47726f75 70206b65  ansion..Group ke
 3ffe8cb0 79206578 70616e73 696f6e00 504d4b20  y expansion.PMK 
 3ffe8cc0 4e616d65 00000000 436f6e74 656e742d  Name....Content-
 3ffe8cd0 4c656e67 74680000 436f6e74 656e742d  Length..Content-
 3ffe8ce0 4c656e67 74683a20 00000000 30313233  Length: ....0123
 3ffe8cf0 34353637 38396162 63646566 00000000  456789abcdef....
 3ffe8d00 25302a64 00000000 256c6400 0c000000  %0*d....%ld.....
 3ffe8d10 00000000 0300017c 000c0100 24000000  .......|....$...
 3ffe8d20 14000000 706b1040 eb030000 04030000  ....pk.@........
 3ffe8d30 000e4004 0a000000 80018c02 8d038e04  ..@.............
 3ffe8d40 8f050000 28000000 3c000000 5c6f1040  ....(...<...\o.@
 3ffe8d50 3a030000 04030000 000e4004 06000000  :.........@.....
 3ffe8d60 8d038e04 8f050406 00000080 018c0200  ................
 3ffe8d70 042c2040 808dfe3f 982fff3f           ., @...?./.?    
Contents of section .irom0.text:
 40201010 fc90fe3f 0891fe3f 88102040 6489fe3f  ...?...?.. @d..?
 40201020 540e1040 20131040 c4121040 cc240040  T..@ ..@...@.$.@
 40201030 12c1f009 31c92101 faffc000 0041f4ff  ....1.!......A..
 40201040 c1f5ff31 f5ff2904 c02c2001 f6ffc000  ...1..).., .....
 40201050 002d0c01 f5ffc000 008cb221 f0ff01f3  .-.........!....
 40201060 ffc00000 06ffff00 0831c821 12c1100d  .........1.!....
 40201070 f0000000 0c020df0 0df00000 0df00000  ................
 40201080 f890fe3f 700e1040 12c1f0c9 21c1fcff  ...?p..@....!...
 40201090 0931220c 00cc6245 e4000c12 224c00c5  .1"...bE...."L..
 402010a0 fdff45e1 0005e900 0c023d02 4d0201f5  ..E.......=.M...
 402010b0 ffc00000 0831c821 12c1100d f0000000  .....1.!........
 402010c0 21d4ff28 020df000 06ffff00 e8121040  !..(...........@
 402010d0 21d1ff12 c1f00931 01fdffc0 00000831  !......1.......1
 402010e0 12c1100d f0000000 0c0212c1 f03d024d  .............=.M
 402010f0 02093101 e4ffc000 00083112 c1100df0  ..1.......1.....
 40201100 0c0212c1 f03d024d 02093101 deffc000  .....=.M..1.....
 40201110 0021c0ff 01eeffc0 00000831 12c1100d  .!.........1....
 40201120 f0000000 30102040 0091fe3f a8121040  ....0. @...?...@
 40201130 12c1f002 61030514 00c5f3ff 21b6ff01  ....a.......!...
 40201140 fbffc000 0021f7ff 41f8ff32 a00052a0  .....!..A..2..R.
 40201150 0105aa05 083112c1 100df000 12c1f009  .....1..........
 40201160 3145f8ff 083112c1 100df000 98a1fe3f  1E...1.........?
 40201170 94a1fe3f 12c1f002 610301a9 ffc00000  ...?....a.......
 40201180 31fbff48 0347b208 41faff58 041b5559  1..H.G..A..X..UY
 40201190 04083129 0312c110 0df00000 b0a1fe3f  ..1)...........?
 402011a0 5c112040 482c0040 98061040 402d0040  \. @H,.@...@@-.@
 402011b0 12c1f0c9 210931d9 11cd02ac a2d1f7ff  ....!.1.........
 402011c0 31f8ff2d 0d0c0401 f7ffc000 002d0d3d  1..-.........-.=
 402011d0 0c0c040c 1501f4ff c0000045 efff2d0d  ...........E..-.
 402011e0 01f3ffc0 00004601 00c5efff 05eeff02  ......F.........
 402011f0 2103c221 02d81112 c1100df0 37894100  !..!........7.A.
 40201200 98721040 12c1f009 31c92101 85ffc000  .r.@....1.!.....
 40201210 0041d6ff 0c134804 4732010c 0341d4ff  .A....H.G2...A..
 40201220 c80441f6 ffc03380 40c38232 a3e801f4  ..A...3.@..2....
 40201230 ffc00000 08312a2c c82112c1 100df000  .....1*,.!......
 40201240 12c1f002 61030176 ffc00000 083112c1  ....a..v.....1..
 40201250 100df000 cc2e0040 12c1f002 610301fd  .......@....a...
 40201260 ffc00000 083112c1 100df000 9ca1fe3f  .....1.........?
 40201270 74112040 60ea0000 12c1f009 31c92185  t. @`.......1.!.
 40201280 5100c55c 00c1f9ff 31faff2d 0c0c0401  Q..\....1..-....
 40201290 c5ffc000 000c1431 f7ff2d0c 5d0401c2  .......1..-.]...
 402012a0 ffc00000 0831c821 12c1100d f0000000  .....1.!........
 402012b0 ca000018 14030060 6085fe3f 00080060  .......``..?...`
 402012c0 10030060 a0070060 90070060 74070060  ...`...`...`t..`
 402012d0 12c1f0c9 31d92120 20740cf4 30307427  ....1.!  t..00t'
 402012e0 b402868a 0042a0f8 47130246 210031f0  .....B..G..F!.1.
 402012f0 ff42a780 3a32e033 11c02000 680351ee  .B..:2.3.. .h.Q.
 40201300 ff406610 c0200069 030c1431 eaff0012  .@f.. .i...1....
 40201310 400064a1 2a55c020 00690352 050031e7  @.d.*U. .i.R..1.
 40201320 ff7cd660 62103a55 0c034716 2737120f  .|.`b.:U..G.'7..
 40201330 468f0000 42c2f340 4074f634 0ac68a00  F...B..@@t.4....
 40201340 32a100c6 01000000 707074b6 47068c36  2.......ppt.G..6
 40201350 1c044033 20c02000 39052632 02068a00  ..@3 . .9.&2....
 40201360 c0200038 0522a080 202320c0 20002905  . .8.".. # . .).
 40201370 46850000 0c844043 10165408 81cdff30  F.....@C..T....0
 40201380 64418a82 e08811c0 2000d808 0c4c0c2b  dA...... ....L.+
 40201390 0c09c0c6 10b0b610 42a1002c 05a2a780  ........B..,....
 402013a0 c0498360 600471c4 ffa0ad10 b05983c0  .I.``.q......Y..
 402013b0 2000a908 4055200c 18c04611 61beff2a   ...@U ...F.a..*
 402013c0 77001240 0088a1c0 20008906 72070061  w..@.... ...r..a
 402013d0 bbff5044 206a77c0 20004907 22c2f397  ..PD jw. .I."...
 402013e0 1202c668 0032c3b8 97130286 6600c020  ...h.2......f.. 
 402013f0 00380722 a0802023 20c02000 2907c661  .8.".. # . .)..a
 40201400 00007cd5 50631066 165f61ab ff2a6672  ..|.Pc.f._a..*fr
 40201410 060061aa ff6a6757 020a52c2 fc505074  ..a..jgW..R..PPt
 40201420 b625013c 04c02000 490641a1 ff52a780  .%.<.. .I.A..R..
 40201430 4a42e044 11c02000 68045056 10c02000  JB.D.. .h.PV.. .
 40201440 59046633 0ec02000 58040c43 303520c0  Y.f3.. .X..C05 .
 40201450 20003904 0c130012 400023a1 3199ffc0   .9.....@.#.1...
 40201460 20002903 46480000 00000c15 7cb66063   .).FH......|.`c
 40201470 108d0572 c3fe6084 93704583 cc181674  ...r..`..pE....t
 40201480 10718dff 618eff2a 57820500 7cd96a88  .q..a..*W...|.j.
 40201490 0c059702 0a92c2fc 909074b6 29013c05  ..........t.).<.
 402014a0 c0200059 085182ff 8183ff0c 19001240  . .Y.Q.........@
 402014b0 0099a15a 52c02000 9908e055 11c02000  ...ZR. ....U.. .
 402014c0 980582a7 80809910 0c488089 20c02000  .........H.. . .
 402014d0 89059ca4 2a272202 006a62c0 20003806  ....*'"..jb. .8.
 402014e0 22a08020 2320c020 00290686 26000000  ".. # . .)..&...
 402014f0 26430286 24002a27 2202006a 62c02000  &C..$.*'"..jb. .
 40201500 38064c02 202320c0 20002906 461e0000  8.L. # . .).F...
 40201510 66b27521 6cff0c14 c0200049 02416aff  f.u!l.... .I.Aj.
 40201520 0c05c020 0059047c b4478328 664310c0  ... .Y.|.G.(fC..
 40201530 20004802 32a00830 3420c020 00326200   .H.2..04 . .2b.
 40201540 2163ff7c e3c02000 48023034 10c02000  !c.|.. .H.04.. .
 40201550 3902c60c 00661330 215dffc0 20004802  9....f.0!].. .H.
 40201560 303420c0 20003902 46070000 2c038675  04 . .9.F...,..u
 40201570 ff72c2f4 70348330 307456e3 fe82c2fe  .r..p4.00tV.....
 40201580 80348356 53fe866a ffc831d8 2112c110  .4.VS..j..1.!...
 40201590 0df00000 04030060 08030060 68070060  .......`...`h..`
 402015a0 2020740c f4303004 2734289c 130c1300    t..00.'4(.....
 402015b0 12400023 a131f7ff c0200029 030df000  .@.#.1... .)....
 402015c0 0c130012 400023a1 31f4ffc0 20002903  ....@.#.1... .).
 402015d0 0df00000 66b22021 f1ffc020 0048028c  ....f. !... .H..
 402015e0 b30c1330 3420c020 0039020d f0007ce3  ...04 . .9....|.
 402015f0 303410c0 20003902 0df00000 18030060  04.. .9........`
 40201600 8c070060 2030740c f2373219 21fcff0c  ...` 0t..72.!...
 40201610 14c02000 28020013 400034a1 2033100c  .. .(...@.4. 3..
 40201620 02302493 0df00c02 66b30a21 f5ffc020  .0$.....f..!... 
 40201630 00280220 20040df0 1c030060 24030060  .(.  ......`$..`
 40201640 c8a1fe3f cca1fe3f 980f0040 a80f0040  ...?...?...@...@
 40201650 21faff12 c1d0c9a1 c02000c8 0221f7ff  !........ ...!..
 40201660 09b1d991 e981f971 c02000c9 0216bc05  .......q. ......
 40201670 d1f4ff28 0d163205 1c0201f3 ffc00000  ...(..2.........
 40201680 f80df0fc 10bcbf0c 0c0c1e46 00001bcc  ...........F....
 40201690 001c4000 2ea1270f f431eaff 30dcb052  ..@...'..1..0..R
 402016a0 0d007cf3 20633050 5004c020 74590160  ..|. c0PP.. tY.`
 402016b0 ff1005f5 ff580127 9506281d 8c12c002  .....X.'..(.....
 402016c0 0056bffc 1c0201e1 ffc00000 08b1c8a1  .V..............
 402016d0 d891e881 f87112c1 300df000 2020740c  .....q..0...  t.
 402016e0 f527354f 71d7ff0c 15880761 d6ff91f0  .'5Oq......a....
 402016f0 fe001240 0055a160 62b08085 209a2242  ...@.U.`b... ."B
 40201700 46008907 e02211c0 20007802 391632a8  F....".. .x.9.2.
 40201710 7f303710 c0200039 0231c8ff 404034c0  .07.. .9.1..@@4.
 40201720 20005903 c0200038 02904411 404320c0   .Y.. .8..D.@C .
 40201730 20004902 0df00000 2020740c f3273345   .I.....  t..'3E
 40201740 31dcfe42 a87f3a32 e03311c0 20005803  1..B..:2.3.. .X.
 40201750 7cf64045 10c02000 490351b8 ff0c1400  |.@E.. .I.Q.....
 40201760 12400044 a131b6ff c0200049 05580340  .@.D.1... .I.X.@
 40201770 463061b4 ff504410 6022b049 030c0332  F0a..PD.`".I...2
 40201780 42000c03 39120df0 0c000060 0c0f0060  B...9......`...`
 40201790 50162040 880f0040 12c1f00c 02c92109  P. @...@......!.
 402017a0 31d91185 fa0221f8 ff0c0cc0 2000c902  1.....!..... ...
 402017b0 21f7ffc0 2000c262 00c02c20 32a000c2  !... ..b.., 2...
 402017c0 cc01c5b0 ff666cf0 0ccc1c1d c02c2032  .....fl......, 2
 402017d0 a000c2cc 0185afff d79cf031 edff4198  ...........1..A.
 402017e0 ff0c4201 ecffc000 001c0201 98ffc000  ..B.............
 402017f0 000831c8 21d81112 c1100df0 08060060  ..1.!..........`
 40201800 0400f03f 0c060060 902fff3f 21fcff12  ...?...`./.?!...
 40201810 c1f0c020 00380209 314c1227 831121f8  ... .8..1L.'..!.
 40201820 ff7cd3c0 20004802 303410c0 20003902  .|.. .H.04.. .9.
 40201830 21f5ff0c 03c02000 390221f3 ff280237  !..... .9.!..(.7
 40201840 1202c002 00083112 c1100df0 0c182040  ......1....... @
 40201850 31ffff12 c1f00c92 0c040931 01ceffc0  1..........1....
 40201860 00000831 12c1100d f0000000 12c1f031  ...1...........1
 40201870 e6ff0931 22630022 a2000174 ffc00000  ...1"c."...t....
 40201880 083112c1 100df000 12c1f021 ddff31de  .1.........!..1.
 40201890 ff09310c 044903c0 20004802 7cd33034  ..1..I.. .H.|.04
 402018a0 10c02000 32620022 a2000167 ffc00000  .. .2b."...g....
 402018b0 083112c1 100df000 40400430 3004a044  .1......@@.00..D
 402018c0 11404320 20201432 a0803044 20e02211  .@C   .2..0D .".
 402018d0 20442021 caff0c03 c0200049 0221c9ff   D !..... .I.!..
 402018e0 c0200039 020df000 ffff7f00 00060060  . .9...........`
 402018f0 31feff41 feff3022 10c02000 290421bf  1..A..0".. .).!.
 40201900 ffc02000 280207e2 1221bdff 0c23c020  .. .(....!...#. 
 40201910 00480230 3420c020 00326200 0df00000  .H.04 . .2b.....
 40201920 31b7ff0c 02c02000 290331b6 ffc02000  1..... .).1... .
 40201930 29030df0 12c1e03d 010ca409 7185e105  )......=....q...
 40201940 087112c1 200df000 12c1e03d 010ca409  .q.. ......=....
 40201950 7145e005 087112c1 200df000 12c1e010  qE...q.. .......
 40201960 31200261 07c5ed05 02210712 c1200df0  1 .a.....!... ..
 40201970 0b3337b2 12520200 42030052 43004242  .37..R..B..RC.BB
 40201980 000b331b 223732ec 0df00000 ec8cfe3f  ..3."72........?
 40201990 e8731040 12c1d0c9 a1291109 b1d991e9  .s.@.....)......
 402019a0 81f97152 c4fe3901 0ce2cd04 57b2080c  ..qR..9.....W...
 402019b0 02224300 86170000 2811d1f4 fff80120  ."C.....(...... 
 402019c0 e1602d0e c03c2001 f2ffc000 00c03282  .`-..< .......2.
 402019d0 305ec05a 5d320500 ed02324f 001bff56  0^.Z]2....2O...V
 402019e0 f2fd3811 2d0fd663 002cd31b ff324200  ..8.-..c.,...2B.
 402019f0 58010b4f 4735080c 02224f00 86050000  X..OG5..."O.....
 40201a00 32050022 04003244 00224500 0b441b55  2.."..2D."E..D.U
 40201a10 4735ec06 f8ff08b1 2801c8a1 d891e881  G5......(.......
 40201a20 f87112c1 300df000 12c1d0c9 a1291109  .q..0........)..
 40201a30 b1d991e9 81f97152 c4fe3901 0ce2cd04  ......qR..9.....
 40201a40 57b2080c 02224300 86170000 2811d1cf  W...."C.....(...
 40201a50 fff80120 e1602d0e c03c2001 cdffc000  ... .`-..< .....
 40201a60 00c03282 305ec05a 5d320500 ed02324f  ..2.0^.Z]2....2O
 40201a70 001bff56 f2fd3811 2d0fd663 002cd31b  ...V..8.-..c.,..
 40201a80 ff324200 58010b4f 4735080c 02224f00  .2B.X..OG5..."O.
 40201a90 86050000 32050022 04003244 00224500  ....2.."..2D."E.
 40201aa0 0b441b55 4735ec06 f8ff08b1 2801c8a1  .D.UG5......(...
 40201ab0 d891e881 f87112c1 300df000 12c1d039  .....q..0......9
 40201ac0 01c9a1d9 91e981f9 7109b1fd 0232c4fe  ........q....2..
 40201ad0 0ce2cd04 e801d1ad ff37b209 0c02224e  .........7...."N
 40201ae0 00c61200 00002d0f 3d0c01c5 fdc00000  ......-.=.......
 40201af0 c052821b 3e50ffc0 fafd520f 00fd0252  .R..>P....R....R
 40201b00 4e008c32 ed0306f7 ff4801e7 34090c02  N..2.....H..4...
 40201b10 22430046 06000000 6204000b 2e624e00  "C.F....b....bN.
 40201b20 5244001b 4427b4e5 520200ed 02c6f9ff  RD..D'..R.......
 40201b30 08b12801 c8a1d891 e881f871 12c1300d  ..(........q..0.
 40201b40 f0000000 12c1d039 01c9a1d9 91e981f9  .......9........
 40201b50 7109b1fd 0232c4fe 0ce2cd04 e801d18b  q....2..........
 40201b60 ff37b209 0c02224e 00c61200 00002d0f  .7...."N......-.
 40201b70 3d0c01a3 fdc00000 c052821b 3e50ffc0  =........R..>P..
 40201b80 fafd520f 00fd0252 4e008c32 ed0306f7  ..R....RN..2....
 40201b90 ff4801e7 34090c02 22430046 06000000  .H..4..."C.F....
 40201ba0 6204000b 2e624e00 5244001b 4427b4e5  b....bN.RD..D'..
 40201bb0 520200ed 02c6f9ff 08b12801 c8a1d891  R.........(.....
 40201bc0 e881f871 12c1300d f0000000 00000000  ...q..0.........
 40201bd0 0000e03f 948bfe3f ffffff7f ffffffff  ...?...?........
 40201be0 ffffef7f 988bfe3f 000000e0 ffffef41  .......?.......A
 40201bf0 ffffefc1 9c8bfe3f 00000080 00002440  .......?......$@
 40201c00 008dfe3f 088dfe3f 781d1040 882a0040  ...?...?x..@.*.@
 40201c10 8c1c1040 681c1040 141d1040 141b1040  ...@h..@...@...@
 40201c20 70181040 a41d1040 b8141040 ec1d1040  p..@...@...@...@
 40201c30 20731040 08161040 12c1d0c9 a1d991cd   s.@...@........
 40201c40 03dd02e9 814d0d50 e0745d0c 09b1f971  .....M.P.t]....q
 40201c50 690101ed ffc00000 8cc231de ff280101  i.........1..(..
 40201c60 ebffc000 00466a00 61dcff41 dcff60fc  .....Fj.a..A..`.
 40201c70 1051dbff 2d0d3d0f 01e4ffc0 0000dcf2  .Q..-.=.........
 40201c80 41d7ff51 d7ff2d0d 3d0f01e1 ffc00000  A..Q..-.=.......
 40201c90 a6120d31 d4ff2801 01ddffc0 0000065c  ...1..(........\
 40201ca0 0041d1ff 51d2ff2d 0d3d0c01 daffc000  .A..Q..-.=......
 40201cb0 00e61213 41cdff51 ceff2d0d c03c2001  ....A..Q..-..< .
 40201cc0 d6ffc000 00d6f200 31cbff22 210001cf  ........1.."!...
 40201cd0 ffc00000 864e0000 41bdff51 bcff2d0d  .....N..A..Q..-.
 40201ce0 3d0c01cd ffc00000 d6520138 012cd222  =........R.8.,."
 40201cf0 43001b23 291121c0 ff20cc30 46010000  C..#).!.. .0F...
 40201d00 00380139 11163e0b 21b1ff31 b1ff0c0f  .8.9..>.!..1....
 40201d10 41afff51 baff01c1 ffc00000 1b6f60f0  A..Q.........o`.
 40201d20 74e79feb 060e0000 41a9ff51 b4ff6026  t.......A..Q..`&
 40201d30 20703720 01bbffc0 000082cc ff80c074   p7 ...........t
 40201d40 6d027d03 560cfe3d 072d0601 b6ffc000  m.}.V..=.-......
 40201d50 005d0231 abff2811 4d0e054d 05462c00  .].1..(.M..M.F,.
 40201d60 4d025d03 2d0d3d0c 01b0ffc0 0000cd02  M.].-.=.........
 40201d70 dd0301ae ffc00000 8d028921 01adffc0  ...........!....
 40201d80 00004d02 5d032d0c 3d0d01aa ffc00000  ..M.].-.=.......
 40201d90 88216d02 7d032811 319bff4d 08692179  .!m.}.(.1..M.i!y
 40201da0 31854805 3811cd0e 2a232ce3 3242001b  1.H.8...*#,.2B..
 40201db0 22291168 21783146 dbff0000 4184ff51  ").h!x1F....A..Q
 40201dc0 84ffd02d 20c03c20 0198ffc0 000030d3  ...- .< ......0.
 40201dd0 20cd0201 96ffc000 008d0289 210194ff   ...........!...
 40201de0 c000004d 025d032d 0c3d0d01 92ffc000  ...M.].-.=......
 40201df0 0088216d 027d0328 113182ff 4d086921  ..!m.}.(.1..M.i!
 40201e00 79318542 05381168 212a2329 11783106  y1.B.8.h!*#).x1.
 40201e10 cdff08b1 2801c8a1 d891e881 f87112c1  ....(........q..
 40201e20 300df000 708dfe3f 748dfe3f 12c1f0c2  0...p..?t..?....
 40201e30 6102d261 01c1fbff d1fcff02 6103d79c  a..a........a...
 40201e40 0f452aff 0831c821 d81112c1 100df000  .E*..1.!........
 40201e50 00280c4b ccc00200 d79cf586 f8ff0000  .(.K............
 40201e60 12c1f0c9 21d911c1 efffd1ef ff0931d7  ....!.........1.
 40201e70 1c09280c 4bccc002 00d79cf5 0831c821  ..(.K........1.!
 40201e80 d81112c1 100df000 12c1f022 a0010261  ..........."...a
 40201e90 03450303 02210312 c1100df0 2c1e2040  .E...!......,. @
 40201ea0 12c1f002 61038528 ff21fcff 453d0302  ....a..(.!..E=..
 40201eb0 210312c1 10800000 0df00000 70a2fe3f  !...........p..?
 40201ec0 80250000 b80b0000 28a1fe3f 248bfe3f  .%......(..?$..?
 40201ed0 48a1fe3f 388bfe3f 78101040 12c1f00c  H..?8..?x..@....
 40201ee0 c20c1309 31853eff 31f6ff21 f4ff1cc4  ....1.>.1..!....
 40201ef0 8584000c 12856d03 21f3ff45 2bff51f2  ......m.!..E+.Q.
 40201f00 ff31f2ff 2d051c14 01f4ffc0 000041f1  .1..-.........A.
 40201f10 ff31efff 78046814 42040879 03626301  .1..x.h.B..y.bc.
 40201f20 42430805 c903c5f0 0345e703 083112c1  BC.......E...1..
 40201f30 100df000 448bfe3f 12c1f009 31c921d9  ....D..?....1.!.
 40201f40 1105f903 c1deff0c a43d022d 0c450806  .........=.-.E..
 40201f50 2d0c450f 000c1322 a00c4564 ff22a3e8  -.E...."..Ed."..
 40201f60 c524ff0c 030cc285 63ff22a0 c80524ff  .$......c."...$.
 40201f70 31f1ffc0 2c20c5e1 052d0c05 0500a612  1..., ...-......
 40201f80 1c2d0c85 2300dd02 d030742d 0cc5e405  .-..#....0t-....
 40201f90 d0d07422 a075279d 040c0205 b7050831  ..t".u'........1
 40201fa0 c821d811 12c1100d f0000000 0df00000  .!..............
 40201fb0 38529c23 3203088c d3287238 32284227  8R.#2....(r82(B'
 40201fc0 13052203 000df000 7cf20df0 38524d02  ..".....|...8RM.
 40201fd0 9ce33203 080c0227 13194874 28445834  ..2....'..Ht(DX4
 40201fe0 57320450 22c00df0 48045022 c04a220d  W2.P"...H.P".J".
 40201ff0 f0002d03 0df00000 1c000060 280251fe  ..-........`(.Q.
 40202000 ff202004 c0421120 44c08044 1122a080  .  ..B. D..D."..
 40202010 5a443032 c0c02000 28042020 752733f4  ZD02.. .(.  u'3.
 40202020 0df00000 28022020 04c03211 2023c031  ....(.  ..2. #.1
 40202030 f2ff8022 113a22c0 20002802 32a08020  ...".:". .(.2.. 
 40202040 20752023 c00df000 12c1f0d9 11dd0228   u #...........(
 40202050 520931c9 21e901bc f2220209 bca2220d  R.1.!...."....".
 40202060 20bc52c2 a07f386d 58434833 4025c0ed   .R...8mXCH3@%..
 40202070 0247b505 e22300e0 e280dc3e 285d8cf2  .G...#.....>(]..
 40202080 3202098c a3c5f9ff 27bc05e2 4d200602  2.......'...M ..
 40202090 00c506ff 86f3ff00 00000831 c821d811  ...........1.!..
 402020a0 e80112c1 100df000 00000060 12c1f048  ...........`...H
 402020b0 52c921d9 110931cd 0230d074 16a40b32  R.!...1..0.t...2
 402020c0 04090c02 27930246 2f000c12 224c202d  ....'..F/..."L -
 402020d0 0405f5ff 486ccc62 28345844 86180000  ....Hl.b(4XD....
 402020e0 38345844 57930246 25002d03 86140000  84XDW..F%.-.....
 402020f0 320409bc d3380430 3004c053 113035c0  2....8.00..S.05.
 40202100 51eaff80 33115a33 c02000d9 030c9327  Q...3.Z3. .....'
 40202110 33212804 202004c0 32112023 c0319afd  3!(.  ..2. #.1..
 40202120 8022113a 22c02000 48020c23 303420c0  .".:". .H..#04 .
 40202130 20003902 0c128613 0045fcfe 486c5844   .9......E..HlXD
 40202140 28345032 c00b6327 35056804 0b663a66  (4P2..c'5.h..f:f
 40202150 1656fe0b 63273507 680462c6 ff306680  .V..c'5.h.b..0f.
 40202160 1606fdd2 45002844 38241b22 29443792  ....E.(D8$.")D7.
 40202170 c238140c 12394446 03002d04 06020000  .8...9DF..-.....
 40202180 485c56a4 f6c6eaff 0831c821 d81112c1  H\V......1.!....
 40202190 100df000 ac1f2040 2c240040 12c1f022  ...... @,$.@..."
 402021a0 a0000261 03455a02 21fbff01 fbffc000  ...a.EZ.!.......
 402021b0 00022103 12c1100d f0000000 3852ace3  ..!.........8R..
 402021c0 320308ac 93387248 43283327 34052044  2....8rHC(3'4. D
 402021d0 c0860100 58032044 c05a449c 141b4258  ....X. D.ZD...BX
 402021e0 23220200 49335794 08481349 330df000  #"..I3W..H.I3...
 402021f0 7cf20df0 12c1f009 318c7242 02091624  |.......1.rB...$
 40202200 0085dfff 083112c1 100df000 12c1f009  .....1..........
 40202210 318cf242 02090c03 37140a85 e0ff3d02  1..B....7.....=.
 40202220 86000000 3d020831 2d0312c1 100df000  ....=..1-.......
 40202230 12c1f009 318c9232 02098c43 32a080c5  ....1..2...C2...
 40202240 dbff0831 12c1100d f0000000 3030749c  ...1........00t.
 40202250 b2420209 9c642802 202004c0 42112024  .B...d(.  ..B. $
 40202260 c04191ff 8022114a 22c02000 39020df0  .A...".J". .9...
 40202270 12c1d0c9 a1d991f9 7109b1e9 81dd02cd  ........q.......
 40202280 03fd0416 22052202 0916c204 169404e1  ....".".........
 40202290 86ff42a0 805d0ff7 b40252a0 8050ffc0  ..B..]....R..P..
 402022a0 8ce23d05 2d0d4911 52610005 d5ff5801  ..=.-.I.Ra....X.
 402022b0 48115a2c 380d520c 00303004 c0631130  H.Z,8.R..00..c.0
 402022c0 36c08033 11ea33c0 20005903 1bcc279c  6..3..3. .Y...'.
 402022d0 e28c4f22 0d09c6ee ff08b1c8 a1d891e8  ..O"............
 402022e0 81f87112 c1300df0 00000200 00000400  ..q..0..........
 402022f0 20000060 16820562 020851fb ff420209   ..`...b..Q..B..
 40202300 0c036035 93165400 41f9ff40 33205802  ..`5..T.A..@3 X.
 40202310 41f8ff50 5004c065 115056c0 8055114a  A..PP..e.PV..U.J
 40202320 55c02000 68056063 20c02000 69052802  U. .h.`c . .i.(.
 40202330 7cf52020 04303530 c0521120 25c08022  |.  .050.R. %.."
 40202340 114a22c0 20004802 403310c0 20003902  .J". .H.@3.. .9.
 40202350 0df00000 10000060 ec2a2040 12c1f0c9  .......`.* @....
 40202360 210931cd 02167205 280242a1 ff202004  !.1...r.(.B..  .
 40202370 c0321120 23c031f7 ff802211 3a2231f6  .2. #.1...".:"1.
 40202380 ffc02000 49020c52 c04c2001 02fdc000  .. .I..R.L .....
 40202390 00220c08 ac02280c 202004c0 32112023  ."....(.  ..2. #
 402023a0 c031f9fc 8022113a 22c02000 48020c13  .1...".:". .H...
 402023b0 303420c0 20003902 2c0201a4 fcc00000  04 . .9.,.......
 402023c0 0831c821 12c1100d f0000000 16020532  .1.!...........2
 402023d0 0208ac23 38023030 04c04311 3034c041  ...#8.00..C.04.A
 402023e0 eafc8033 114a33c0 20005803 42affe40  ...3.J3. .X.B..@
 402023f0 4510c020 00426300 320209ac 13280220  E.. .Bc.2....(. 
 40202400 2004c032 112023c0 31e0fc80 22113a22   ..2. #.1...".:"
 40202410 c0200048 027cd330 3410c020 00326200  . .H.|.04.. .2b.
 40202420 0df00000 ac523202 09ac0328 02202004  .....R2....(.  .
 40202430 c0321120 23c031d4 fc802211 3a22c020  .2. #.1...".:". 
 40202440 0048020c 23303420 c0200039 020df000  .H..#04 . .9....
 40202450 ac523202 09ac0328 02202004 c0321120  .R2....(.  ..2. 
 40202460 23c031c9 fc802211 3a22c020 0048027c  #.1...".:". .H.|
 40202470 d3303410 c0200039 020df000 14000060  .04.. .9.......`
 40202480 00b4c404 12c1f009 31c9214d 02ac1228  ........1.!M...(
 40202490 02391420 2004c0c2 1120ccc0 41f8ff21  .9.  .... ..A..!
 402024a0 f8ff80cc 114acc01 56fbc000 00c02000  .....J..V..... .
 402024b0 290c0831 c82112c1 100df000 8c022812  )..1.!........(.
 402024c0 0df00000 00200000 24000060 6c071040  ..... ..$..`l..@
 402024d0 12c1e0d9 51dd020c c2c961e9 41f93109  ....Q.....a.A.1.
 402024e0 71ed0340 f07401f9 ffc00000 cd0216e2  q..@.t..........
 402024f0 0bd9028c 7d261d2d 86110000 000022a0  ....}&.-......".
 40202500 0132a0f8 85dcfe22 a00332a0 f805dcfe  .2....."..2.....
 40202510 0c120c33 224c0822 4c09324c 0a224c0b  ...3"L."L.2L."L.
 40202520 d80c0607 00000c22 32a0f845 dafe0c02  ......."2..E....
 40202530 224c087c f2d24c09 224c0ad8 0c0c2222  "L.|..L."L....""
 40202540 4c0bd0d0 04c02d11 41cdffd0 d2c021cc  L.....-.A.....!.
 40202550 ff3d0e80 dd114add e26c0101 29fbc000  .=....J..l..)...
 40202560 00c02000 290d280c 202004c0 32112023  .. .).(.  ..2. #
 40202570 c0315fff 80221130 2280c020 00f26200  .1_..".0".. ..b.
 40202580 2d0c05d7 ff2d0c45 ddff320c 09220c08  -....-.E..2.."..
 40202590 8c4331cc ff302220 380c3030 04c04311  .C1..0" 8.00..C.
 402025a0 3034c041 c9ff8033 114a33c0 20002903  04.A...3.J3. .).
 402025b0 08712d0c d851c861 e841f831 12c1200d  .q-..Q.a.A.1.. .
 402025c0 f0000000 20081040 12c1f0c9 21026103  .... ..@....!.a.
 402025d0 20c220bc 3245dfff 220c0a26 320532a0   . .2E.."..&2.2.
 402025e0 0d379207 0c031011 2045cefe 220c0b26  .7...... E.."..&
 402025f0 22070cf3 37120266 12070c03 10112005  "...7..f...... .
 40202600 cdfe2d0c 01f0ffc0 00000831 c82112c1  ..-........1.!..
 40202610 100df000 0000ffff 00000301 2800f03f  ............(..?
 40202620 12c1f0c9 210931d9 11cd0216 d208d802  ....!.1.........
 40202630 568d0838 2221f7ff 20331021 f7ff2793  V..8"!.. 3.!..'.
 40202640 4022a00f 4c8385c8 fe22a00d 32a04805  @"..L...."..2.H.
 40202650 c8fe41f2 ff0c43c0 20005804 0c123055  ..A...C. .X...0U
 40202660 20c02000 59043d0d 45c6fe0c 323d0d05   . .Y.=.E...2=..
 40202670 c6fe0cd2 224c0a0c f2224c0b 060f0000  ...."L..."L.....
 40202680 00000c12 32a0f885 c4fe0c32 32a0f805  ....2......22...
 40202690 c4fe41e2 ff7cb3c0 20005804 0cf23055  ..A..|.. .X...0U
 402026a0 10c02000 59043d0d 45c2fe0c d23d0d05  .. .Y.=.E....=..
 402026b0 c2fe0c32 224c0a0c 12224c0b 0831c821  ...2"L..."L..1.!
 402026c0 d81112c1 100df000 94a2fe3f c8282040  ...........?.( @
 402026d0 4c292040 12c1f031 fcff0931 29038c42  L) @...1...1)..B
 402026e0 26121686 08000c12 05060221 f8ff01aa  &..........!....
 402026f0 fec00000 06050000 00000505 0221f4ff  .............!..
 40202700 01a6fec0 00008600 0005a9ff 083112c1  .............1..
 40202710 100df000 21edff28 020df000 788bfe3f  ....!..(....x..?
 40202720 52a3e859 2251fdff 0c044912 59023942  R..Y"Q....I.Y.9B
 40202730 49524962 49724242 200df000 51e3ff12  IRIbIrBB ...Q...
 40202740 c1e0c961 6805cd02 28420971 d9514040  ...ah...(B.q.Q@@
 40202750 74679214 7cf22265 00326100 426101c5  tg..|."e.2a.Ba..
 40202760 a3ff284c 48113221 0045d6ff 226c0516  ..(LH.2!.E.."l..
 40202770 b2053202 08163302 387c56e3 0122a014  ..2...3.8|V.."..
 40202780 055200dd 0222a100 290d4553 0032d201  .R..."..).ES.2..
 40202790 291d293d 294d392d 285cd97c 2202099c  ).)=)M9-(\.|"...
 402027a0 e2286cdc a21c42c5 4f00dd02 22a10029  .(l...B.O..."..)
 402027b0 0dc55000 32d20129 1d392d29 3d294dd9  ..P.2..).9-)=)M.
 402027c0 6c0c0222 4c200c12 10112045 9efe0871  l.."L .... E...q
 402027d0 c861d851 12c1200d f0000000 31bbff12  .a.Q.. .....1...
 402027e0 c1f0c921 4842cd02 28030931 d9112794  ...!HB..(..1..'.
 402027f0 077cf222 6300459a ff222c05 85dcffd2  .|."c.E..",.....
 40202800 2c0716bd 00281d8c 12454e00 2d0dc54c  ,....(...EN.-..L
 40202810 00d86c16 fd00222d 018c1245 4d002d0d  ..l..."-...EM.-.
 40202820 10112085 4b000831 0c02295c 297c296c  .. .K..1..)\)|)l
 40202830 d811c821 12c1100d f0000000 12c1f028  ...!...........(
 40202840 5209318c 1285ddff 083112c1 100df000  R.1......1......
 40202850 12c1f048 52093130 30749cb4 8c832224  ...HR.100t...."$
 40202860 0005e7ff 46040000 3198ff48 42280327  ....F...1..HB(.'
 40202870 94067cf2 29034592 ff083112 c1100df0  ..|.).E...1.....
 40202880 28521622 00220209 0df00000 28521622  (R."."......(R."
 40202890 00220208 0df00000 38524d02 ac433203  ."......8RM..C2.
 402028a0 090c0227 131f4864 58442834 27350c38  ...'..HdXD(4'5.8
 402028b0 045052c0 0b235a22 0df00000 5022c00b  .PR..#Z"....P"..
 402028c0 220df000 2d030df0 12c1f0c9 21c17bfd  "...-.......!.{.
 402028d0 d91120d0 74285c09 31bcb222 0209dc02  .. .t(\.1.."....
 402028e0 060d0000 c0200048 06404075 4735f406  ..... .H.@@uG5..
 402028f0 0c002d0c 05faffa6 121d669d 0b380c2d  ..-.......f..8.-
 40202900 0c480332 a00dc004 00380c2d 0c48033d  .H.2.....8.-.H.=
 40202910 0dc00400 46070000 61b8fd52 a07e86f0  ....F...a..R.~..
 40202920 ff000021 e1fd669d 060cd3c0 20003902  ...!..f..... .9.
 40202930 c02000d9 020831c8 21d81112 c1100df0  . ....1.!.......
 40202940 4ca2fe3f 1c0f0060 000f0060 12c1f0c9  L..?...`...`....
 40202950 21c1fbff d91120d0 74285c09 31bca222  !..... .t(\.1.."
 40202960 0209dc02 c60c0000 c0200048 06404075  ......... .H.@@u
 40202970 4735f446 0b002d0c c5f1ffa6 121c669d  G5.F..-.......f.
 40202980 0b380c2d 0c480332 a00dc004 00380c2d  .8.-.H.2.....8.-
 40202990 0c48033d 0dc00400 86060061 eaff52a0  .H.=.......a..R.
 402029a0 7ec6f0ff 21e9ff66 9d060cd3 c0200039  ~...!..f..... .9
 402029b0 02c02000 d9020831 c821d811 12c1100d  .. ....1.!......
 402029c0 f0000000 48520c13 0c024023 930df000  ....HR....@#....
 402029d0 28723030 74acc248 42583257 340d6802  (r00t..HBX2W4.h.
 402029e0 4055c00b 665a5686 01000000 4055c00b  @U..fZV.....@U..
 402029f0 559c0532 44003842 48221b33 39424793  U..2D.8BH".39BG.
 40202a00 03381239 420df000 12c1f0c9 21cd0228  .8.9B.......!..(
 40202a10 520931d9 1116920b 386c1643 0b584348  R.1.....8l.C.XCH
 40202a20 3340d5c0 47350246 28003803 4045c03a  3@..G5.F(.8.@E.:
 40202a30 d4c62500 32020916 73092802 202004c0  ..%.2...s.(.  ..
 40202a40 32112023 c03150fb 8022113a 22c02000  2. #.1P..".:". .
 40202a50 48027cd3 303410c0 20003902 861c0032  H.|.04.. .9....2
 40202a60 02090c05 571309c5 5bff5d0d 273d015d  ....W...[.].'=.]
 40202a70 02918dfd 06130000 386c685c 78434833  ........8lh\xCH3
 40202a80 47370540 77c08601 00280340 77c02a77  G7.@w....(.@w.*w
 40202a90 9c171b74 88232204 00793387 97094813  ...t.#"..y3...H.
 40202aa0 49338600 0022a0ff 9c863206 099c3338  I3..."....2...38
 40202ab0 06303004 c0431130 34c08033 119a33c0  .00..C.04..3..3.
 40202ac0 20002903 0b556605 ae460100 164df606   .)..Uf..F...M..
 40202ad0 e3ff0831 c821d811 12c1100d f0000000  ...1.!..........
 40202ae0 08000060 080f0060 100f0060 21f4fc12  ...`...`...`!...
 40202af0 c1f03852 0931c921 16c30742 03081674  ..8R.1.!...B...t
 40202b00 0571f7ff c0200048 0707644c a167fd91  .q... .H..dL.g..
 40202b10 11fe0c18 3872c020 00680aac 93484358  ....8r. .h...HCX
 40202b20 3340c5c0 57340a58 030b55ca 55c60000  3@..W4.X..U.U...
 40202b30 00000b5c 9c056244 00484358 231b4449  ...\..bD.HCX#.DI
 40202b40 43579403 48134943 c0200089 09c02000  CW..H.IC. .... .
 40202b50 380707e3 be38529c d3320309 9c8341e0  8....8R..2....A.
 40202b60 ff32a002 c0200048 0437040b 41fafdc0  .2... .H.7..A...
 40202b70 20003264 0005e9ff 2172ff38 52169307   .2d....!r.8R...
 40202b80 42030816 640571d7 ffc02000 48070764  B...d.q... .H..d
 40202b90 4ba16dff 91d5ff0c 183872c0 2000680a  K.m......8r. .h.
 40202ba0 ac834843 583340c5 c0573409 58030b55  ..HCX3@..W4.X..U
 40202bb0 ca558600 00000b5c 9c056244 00484358  .U.....\..bD.HCX
 40202bc0 231b4449 43579403 48134943 c0200089  #.DICW..H.IC. ..
 40202bd0 09c02000 380707e3 bf38529c b3320309  .. .8....8R..2..
 40202be0 9c6341c0 ff0c23c0 20004804 37040a41  .cA...#. .H.7..A
 40202bf0 beffc020 00390405 e1ff0831 c82112c1  ... .9.....1.!..
 40202c00 100df000 41aefc51 c5fe0c02 314dff62  ....A..Q....1M.b
 40202c10 a3e82914 69245904 29442954 29642974  ..).i$Y.)D)T)d)t
 40202c20 2244200c 14291369 23590349 43295329  "D ..).i#Y.IC)S)
 40202c30 63297322 43200df0 d0101040 92a14090  c)s"C .....@..@.
 40202c40 11c030b3 20a2a110 32a12030 9180a0a1  ..0. ...2. 0....
 40202c50 800c88c2 614e32a1 00cd0242 61465261  ....aN2....BaFRa
 40202c60 474d0b5d 09626148 7261496d 0a7d082d  GM.].baHraIm.}.-
 40202c70 0102614f 926140a2 61418261 42852204  ..aO.a@.aA.aB.".
 40202c80 2d0101ed ffc00000 380c4d02 58132d0c  -.......8.M.X.-.
 40202c90 3d01c005 0002214f 92a140c2 214e9a11  =.....!O..@.!N..
 40202ca0 0df00000 7cc33b22 12c1f030 22100931  ....|.;"...0"..1
 40202cb0 0107fec0 00000831 12c1100d f0000000  .......1........
 40202cc0 7cc33b22 12c1f030 22100931 0100fec0  |.;"...0"..1....
 40202cd0 00000831 12c1100d f0000000 12c1f002  ...1............
 40202ce0 61030138 fec00000 083112c1 100df000  a..8.....1......
 40202cf0 12c1f002 61030133 fec00000 083112c1  ....a..3.....1..
 40202d00 100df000 12c1f009 31c53bfe 12c1f009  ........1.;.....
 40202d10 31453bfe 12c1f009 31c53afe ffff0f00  1E;.....1.:.....
 40202d20 ffff0f80 ffffefff 0000f07f 0000f0ff  ................
 40202d30 1080fe3f 7df8b98f ce338640 7085fe3f  ...?}....3.@p..?
 40202d40 ffffef47 ef39fafe 422e8640 8885fe3f  ...G.9..B..@...?
 40202d50 51302dd5 104987c0 8c85fe3f 9485fe3f  Q0-..I.....?...?
 40202d60 ffffefc7 9885fe3f 381c1040 9c85fe3f  .......?8..@...?
 40202d70 a485fe3f a885fe3f b085fe3f fcd4b242  ...?...?...?...B
 40202d80 b885fe3f 9c131040 e81e1040 481e1040  ...?...@...@H..@
 40202d90 8071b142 c885fe3f b5f1cfc2 28141040  .q.B...?....(..@
 40202da0 d085fe3f d885fe3f e085fe3f 74131040  ...?...?...?t..@
 40202db0 e485fe3f ec85fe3f bc131040 f085fe3f  ...?...?...@...?
 40202dc0 f885fe3f 00001080 0000f87f ffff7f7f  ...?............
 40202dd0 ffff7f80 ffff7fff 0000807f 000080ff  ................
 40202de0 12c1d0f9 b1fd0129 4f395f28 4f385f29  .......)O9_(O8_)
 40202df0 2f393f28 3f290f28 2f291f28 0fcc3228  /9?(?).(/).(..2(
 40202e00 1f16b200 380f217c fb279308 281fcc32  ....8.!|.'..(..2
 40202e10 0c228617 00280f31 c1ff27b3 07280f31  ."...(.1..'..(.1
 40202e20 70fb27b3 0f280f31 beff27b3 0c280f31  p.'..(.1..'..(.1
 40202e30 bdff2733 040c4246 0e00280f 31b8ff27  ..'3..BF..(.1..'
 40202e40 b30d280f d6d20022 2f0031b5 ff273304  ..(...."/.1..'3.
 40202e50 0c328607 00380f21 b4ff2793 03281f8c  .2...8.!..'..(..
 40202e60 a2380f21 b2ff2793 08281fcc 320c1246  .8.!..'..(..2..F
 40202e70 00000c02 1d0ff8b1 12c1300d f0000000  ..........0.....
 40202e80 12c1e009 71f961fd 01290f39 1f492f59  ....q.a..).9.I/Y
 40202e90 3f280f38 1f482f58 3f45b804 1d0f0871  ?(.8.H/X?E.....q
 40202ea0 f86112c1 200df000 12c1b002 6113f261  .a.. .......a..a
 40202eb0 1210f120 226f0c39 df28cf32 2f0d05b3  ... "o.9.(.2/...
 40202ec0 04290f39 1f219aff 28022602 0828cf38  .).9.!..(.&..(.8
 40202ed0 dfc5f0ff cc62280f 381fc624 0000222f  .....b(.8..$.."/
 40202ee0 0c322f0d c5dd0041 93ff5193 ff0149fb  .2/....A..Q...I.
 40202ef0 c00000a6 127622a0 03292f21 90ff293f  .....v"..)/!..)?
 40202f00 0c0229af 28cf38df 296f397f 286f387f  ..).(.8.)o9.(o8.
 40202f10 294f395f 2187ff28 02ccb221 33fb3188  )O9_!..(...!3.1.
 40202f20 ff298f39 9fc60200 2129fb31 7fff226f  .).9....!).1.."o
 40202f30 08326f09 217fff22 22006622 0a05a304  .2o.!.."".f"....
 40202f40 2c233902 06040000 22cf0885 de005662  ,#9.....".....Vb
 40202f50 00c5a104 2c233902 222f0a16 720005a1  ....,#9."/..r...
 40202f60 04322f0a 3902288f 389fc600 00280f38  .2/.9.(.8....(.8
 40202f70 1f1d0f02 2113f221 1212c150 0df00000  ....!..!...P....
 40202f80 12c1b002 6113f261 1210f120 226f0c32  ....a..a... "o.2
 40202f90 6f0d28cf 38df85a4 04290f39 1f2164ff  o.(.8....).9.!d.
 40202fa0 28026602 08280f38 1f064300 000028cf  (.f..(.8..C...(.
 40202fb0 38df05d5 0016c20f 4163ff51 63ff28cf  8.......Ac.Qc.(.
 40202fc0 38df0114 fbc00000 a612750c 32292f21  8.........u.2)/!
 40202fd0 5fff293f 0c0229af 28cf38df 296f397f  _.)?..).(.8.)o9.
 40202fe0 286f387f 294f395f 2152ff28 02ccb221  (o8.)O9_!R.(...!
 40202ff0 fefa3153 ff298f39 9fc60200 21f4fa31  ..1S.).9....!..1
 40203000 4aff226f 08326f09 214aff22 22006622  J."o.2o.!J."".f"
 40203010 0ac59504 2c233902 06040000 22cf0845  ....,#9....."..E
 40203020 d1005662 00859404 2c233902 222f0a16  ..Vb....,#9."/..
 40203030 7200c593 04322f0a 3902288f 389fc61d  r....2/.9.(.8...
 40203040 004143ff 5144ff22 2f0c322f 0d01f2fa  .AC.QD."/.2/....
 40203050 c00000d6 e20522a0 04292f21 3cff293f  ......"..)/!<.)?
 40203060 0c0229af 28cf38df 296f397f 286f387f  ..).(.8.)o9.(o8.
 40203070 294f395f 21d6fa31 d5fa298f 399f212c  )O9_!..1..).9.!,
 40203080 ff280266 2209858e 042c2339 02c60300  .(.f"....,#9....
 40203090 22cf0805 ca005662 00458d04 2c233902  ".....Vb.E..,#9.
 402030a0 222f0a16 7200858c 04322f0a 3902288f  "/..r....2/.9.(.
 402030b0 389fc600 00280f38 1f1d0f02 2113f221  8....(.8....!..!
 402030c0 1212c150 0df00000 12c1b002 6113f261  ...P........a..a
 402030d0 1210f120 226f0c32 6f0d49ef 59ff28cf  ... "o.2o.I.Y.(.
 402030e0 38df48ef 58ff858b 04290f39 1f2110ff  8.H.X....).9.!..
 402030f0 28026602 08280f38 1f062700 0000222f  (.f..(.8..'..."/
 40203100 00381f05 c00056b2 0828cf38 df45bf00  .8....V..(.8.E..
 40203110 16120822 2f0e322f 0f85be00 1652070c  ..."/.2/.....R..
 40203120 32292f21 0dff293f 0c0229af 28cf38df  2)/!..)?..).(.8.
 40203130 294f395f 28ef38ff 296f397f 21fdfe28  )O9_(.8.)o9.!..(
 40203140 02ccb221 a9fa31fe fe298f39 9fc60200  ...!..1..).9....
 40203150 219ffa31 f5fe226f 08326f09 21f5fe22  !..1.."o.2o.!.."
 40203160 22006622 0a858004 2c233902 06040000  ".f"....,#9.....
 40203170 22cf0805 bc005662 00457f04 2c233902  ".....Vb.E..,#9.
 40203180 222f0a16 7200857e 04322f0a 3902288f  "/..r..~.2/.9.(.
 40203190 389fc600 00280f38 1f1d0f02 2113f221  8....(.8....!..!
 402031a0 1212c150 0df00000 12c1b002 6113f261  ...P........a..a
 402031b0 12fd0129 cf39df28 cf38df45 8904290f  ...).9.(.8.E..).
 402031c0 391f21db fe280226 021d28cf 322f0d05  9.!..(.&..(.2/..
 402031d0 c1ff9c22 28cf322f 0d417cfa 517cfa01  ..."(.2/.A|.Q|..
 402031e0 8dfac000 00a61207 280f381f 062f0000  ........(.8../..
 402031f0 21dbfe29 3f0c0229 af28cf38 df294f39  !..)?..).(.8.)O9
 40203200 5f28cf38 df296f39 7f21c9fe 2802ccb2  _(.8.)o9.!..(...
 40203210 2176fa31 d3fe298f 399f4602 00216bfa  !v.1..).9.F..!k.
 40203220 31c3fe29 8f399f28 cf38df41 68fa5167  1..).9.(.8.Ah.Qg
 40203230 fa01cdfe c00000ec 920c2229 2f21bcfe  ..........")/!..
 40203240 28026622 0a857204 2c233902 86120000  (.f"..r.,#9.....
 40203250 22cf0805 ae005602 04457104 32a02239  ".....V..Eq.2."9
 40203260 02460d00 22a00122 6f0221b1 fe222200  .F..".."o.!.."".
 40203270 662209c5 6f042c13 3902c603 0022cf08  f"..o.,.9...."..
 40203280 05ab0056 6200856e 042c1339 0221b5fe  ...Vb..n.,.9.!..
 40203290 10112085 ad00298f 399f222f 0a167200  .. ...).9."/..r.
 402032a0 c56c0432 2f0a3902 288f389f 1d0f0221  .l.2/.9.(.8....!
 402032b0 13f22112 12c1500d f0000000 12c1b002  ..!...P.........
 402032c0 6113f261 1210f120 226f0c39 df28cf32  a..a... "o.9.(.2
 402032d0 2f0dc56f 04290f39 1f2195fe 28022602  /..o.).9.!..(.&.
 402032e0 0828cf38 df85afff cc52280f 381f8637  .(.8.....R(.8..7
 402032f0 0028cf38 df4135fa 5135fa01 45fac000  .(.8.A5.Q5..E...
 40203300 00a61202 06310021 99fe293f 0c0229af  .....1.!..)?..).
 40203310 28cf38df 294f395f 28cf38df 296f397f  (.8.)O9_(.8.)o9.
 40203320 2184fe28 02ccb221 30fa318d fe298f39  !..(...!0.1..).9
 40203330 9fc60200 2126fa31 7dfe226f 08326f09  ....!&.1}."o.2o.
 40203340 222f0c38 df4121fa 5121fa01 87fec000  "/.8.A!.Q!......
 40203350 00ec920c 22292f21 76fe2802 66220905  ....")/!v.(.f"..
 40203360 61042c23 39020613 0022cf08 459c0056  a.,#9...."..E..V
 40203370 3204c55f 0432a022 3902060e 000022a0  2.._.2."9.....".
 40203380 01226f02 216bfe22 22006622 0b055e04  ."o.!k."".f"..^.
 40203390 2c133902 46040000 0022cf08 45990056  ,.9.F...."..E..V
 402033a0 6200c55c 042c1339 022171fe 101120c5  b..\.,.9.!q... .
 402033b0 9b00298f 399f222f 0a167200 055b0432  ..).9."/..r..[.2
 402033c0 2f0a3902 288f389f 06010000 280f381f  /.9.(.8.....(.8.
 402033d0 1d0f0221 13f22112 12c1500d f0000000  ...!..!...P.....
 402033e0 12c1b002 6113f261 1210f120 226f0c32  ....a..a... "o.2
 402033f0 6f0d28cf 38df8559 04290f39 1f214cfe  o.(.8..Y.).9.!L.
 40203400 28026602 08280f38 1f063200 0000222f  (.f..(.8..2..."/
 40203410 00322f01 c58e0056 620b28cf 38df458e  .2/....Vb.(.8.E.
 40203420 0016c20a 0c32292f 2153fe29 3f0c0229  .....2)/!S.)?..)
 40203430 af28cf38 df296f39 7f286f38 7f294f39  .(.8.)o9.(o8.)O9
 40203440 5f213bfe 2802ec72 28cf38df 41e0f951  _!;.(..r(.8.A..Q
 40203450 dff901f0 f9c00000 a6120821 e3f93138  ...........!..18
 40203460 fe460100 21e1f931 3efe298f 399fc609  .F..!..1>.).9...
 40203470 0028cf38 df41d5f9 51d5f901 e6f9c000  .(.8.A..Q.......
 40203480 00a61208 21d2f931 28fe4601 0021cff9  ....!..1(.F..!..
 40203490 3127fe22 6f08326f 092125fe 22220066  1'."o.2o.!%."".f
 402034a0 2209c54c 042c2339 02c60300 22cf0845  "..L.,#9...."..E
 402034b0 88005662 00854b04 2c233902 222f0a16  ..Vb..K.,#9."/..
 402034c0 7200c54a 04322f0a 3902288f 389fc600  r..J.2/.9.(.8...
 402034d0 00280f38 1f1d0f02 2113f221 1212c150  .(.8....!..!...P
 402034e0 0df00000 12c1b002 6113f261 1210f120  ........a..a... 
 402034f0 226f0c39 df28cf32 2f0d4556 04290f39  "o.9.(.2/.EV.).9
 40203500 1f210bfe 28022602 0828cf38 df058dff  .!..(.&..(.8....
 40203510 cc52280f 381fc625 0028cf38 df41abf9  .R(.8..%.(.8.A..
 40203520 51abf901 bdf9c000 00d60208 0c12292f  Q.............)/
 40203530 2112fe29 3f0c0229 af28cf38 df296f39  !..)?..).(.8.)o9
 40203540 7f286f38 7f294f39 5f21f9fd 2802ccb2  .(o8.)O9_!..(...
 40203550 219ff931 9ef9298f 399fc605 00219bf9  !..1..).9....!..
 40203560 319bf941 9af95199 f901acf9 c0000022  1..A..Q........"
 40203570 6f08326f 0921eefd 22220066 2209053f  o.2o.!.."".f"..?
 40203580 042c1339 02c60300 22cf0885 7a005662  .,.9...."...z.Vb
 40203590 00c53d04 2c133902 222f0a16 7200053d  ..=.,.9."/..r..=
 402035a0 04322f0a 3902288f 389fc600 00280f38  .2/.9.(.8....(.8
 402035b0 1f1d0f02 2113f221 1212c150 0df00000  ....!..!...P....
 402035c0 12c1e009 71f961fd 01290f39 1f280f38  ....q.a..).9.(.8
 402035d0 1fc54a04 1d0f0871 f86112c1 200df000  ..J....q.a.. ...
 402035e0 12c1b002 6113f261 1210f120 226f0c22  ....a..a... "o."
 402035f0 2f0cc547 04290f21 cefd2802 26020628  /..G.).!..(.&..(
 40203600 cf057f00 cc42280f 86260000 222f0c45  .....B(..&.."/.E
 40203610 780031da fd01dbfd c00000e6 12028620  x.1............ 
 40203620 0022a003 226f0221 d6fd293f 0c0229af  .".."o.!..)?..).
 40203630 28cf01d5 fdc00000 296f397f 286f387f  (.......)o9.(o8.
 40203640 294f395f 21bbfd28 02ccb221 67f931bc  )O9_!..(...!g.1.
 40203650 fd298f39 9fc60200 215df931 b3fd226f  .).9....!].1.."o
 40203660 08326f09 21b3fd22 22006622 0a053004  .2o.!.."".f"..0.
 40203670 2c233902 06040000 22cf0885 6b005662  ,#9....."...k.Vb
 40203680 00c52e04 2c233902 222f0a16 7200052e  ....,#9."/..r...
 40203690 04322f0a 3902288f 389f01bc fdc00000  .2/.9.(.8.......
 402036a0 86000000 280f1d0f 022113f2 211212c1  ....(....!..!...
 402036b0 500df000 12c1b002 6113f261 1210f120  P.......a..a... 
 402036c0 226f0c22 2f0c8533 04290f21 99fd2802  "o."/..3.).!..(.
 402036d0 66020428 0f464600 222f0c45 6e0016e2  f..(.FF."/.En...
 402036e0 1031abfd 222f0c01 a7fdc000 00e61202  .1.."/..........
 402036f0 46200022 a003292f 21a7fd29 3f0c0229  F ."..)/!..)?..)
 40203700 af28cf01 a1fdc000 00296f39 7f286f38  .(.......)o9.(o8
 40203710 7f294f39 5f2186fd 2802ccb2 2133f931  .)O9_!..(...!3.1
 40203720 88fd298f 399fc602 002128f9 317ffd22  ..).9....!(.1.."
 40203730 6f08326f 09217efd 22220066 22090523  o.2o.!~."".f"..#
 40203740 042c2339 02c60300 22cf0885 5e005662  .,#9...."...^.Vb
 40203750 00c52104 2c233902 222f0a16 72000521  ..!.,#9."/..r..!
 40203760 04322f0a 3902288f 389f0188 fdc00000  .2/.9.(.8.......
 40203770 861f0000 003188fd 222f0c01 88fdc000  .....1.."/......
 40203780 00d6b206 22a00422 6f022182 fd293f0c  ....".."o.!..)?.
 40203790 0229af28 cf017cfd c0000029 6f397f28  .).(..|....)o9.(
 402037a0 6f387f29 4f395f21 09f93108 f9298f39  o8.)O9_!..1..).9
 402037b0 9f215ffd 28026622 0a451b04 2c233902  .!_.(.f".E..,#9.
 402037c0 06040000 22cf08c5 56005662 00051a04  ...."...V.Vb....
 402037d0 2c233902 222f0a16 72004519 04322f0a  ,#9."/..r.E..2/.
 402037e0 3902288f 389f0169 fdc00000 86000000  9.(.8..i........
 402037f0 280f1d0f 022113f2 211212c1 500df000  (....!..!...P...
 40203800 12c1b002 6113f261 1210f120 226f0c32  ....a..a... "o.2
 40203810 6f0d28cf 38df8519 04290f21 45fd2802  o.(.8....).!E.(.
 40203820 66020528 0f462800 00222f00 05590056  f..(.F(.."/..Y.V
 40203830 5209222f 0c855800 16c20828 df055800  R."/..X....(..X.
 40203840 1642080c 32292f21 56fd293f 0c0229af  .B..2)/!V.)?..).
 40203850 28cf014d fdc00000 294f395f 28df014a  (..M....)O9_(..J
 40203860 fdc00000 296f397f 2132fd28 02ccb221  ....)o9.!2.(...!
 40203870 def83133 fd298f39 9fc60200 21d4f831  ..13.).9....!..1
 40203880 2afd226f 08326f09 212afd22 22006622  *."o.2o.!*."".f"
 40203890 0ac50d04 2c233902 06040000 22cf0845  ....,#9....."..E
 402038a0 49005662 00850c04 2c233902 222f0a16  I.Vb....,#9."/..
 402038b0 7200c50b 04322f0a 3902288f 389f0133  r....2/.9.(.8..3
 402038c0 fdc00000 86000000 280f1d0f 022113f2  ........(....!..
 402038d0 211212c1 500df000 12c1b002 6113f261  !...P.......a..a
 402038e0 1210f120 226f0c22 2f0c450d 04290f21  ... "o."/.E..).!
 402038f0 10fd2802 26021428 cf854f00 8cc228cf  ..(.&..(..O...(.
 40203900 31b3f801 20fdc000 00a61204 280f0631  1... .......(..1
 40203910 002124fd 293f0c02 29af28cf 011bfdc0  .!$.)?..).(.....
 40203920 0000296f 397f286f 387f294f 395f2100  ..)o9.(o8.)O9_!.
 40203930 fd2802cc d221acf8 310afd29 8f399f46  .(...!..1..).9.F
 40203940 03000000 21a2f831 f9fc226f 08326f09  ....!..1.."o.2o.
 40203950 222f0c31 9ef80115 fdc00000 ec820c22  "/.1..........."
 40203960 292f21f3 fc280266 22094500 042c2339  )/!..(.f".E..,#9
 40203970 02461200 22cf08c5 3b005602 0405ff03  .F.."...;.V.....
 40203980 32a02239 02460d00 22a00122 6f0221e8  2."9.F..".."o.!.
 40203990 fc222200 66220985 fd032c13 3902c603  ."".f"....,.9...
 402039a0 0022cf08 c5380056 620045fc 032c1339  ."...8.Vb.E..,.9
 402039b0 0221fdfc 10112045 3b00298f 399f222f  .!.... E;.).9."/
 402039c0 0a167200 85fa0332 2f0a3902 288f389f  ..r....2/.9.(.8.
 402039d0 01effcc0 00001d0f 022113f2 211212c1  .........!..!...
 402039e0 500df000 12c1b002 6113f261 1210f120  P.......a..a... 
 402039f0 226f0c22 2f0c8501 04290f21 cdfc2802  "o."/....).!..(.
 40203a00 26020628 cfc53e00 cc62280f 86360000  &..(..>..b(..6..
 40203a10 000028cf 316ef801 e8fcc000 00a61202  ..(.1n..........
 40203a20 06310021 e3fc293f 0c0229af 28cf01d6  .1.!..)?..).(...
 40203a30 fcc00000 296f397f 286f387f 294f395f  ....)o9.(o8.)O9_
 40203a40 21bcfc28 02ccb221 68f831c5 fc298f39  !..(...!h.1..).9
 40203a50 9fc60200 215ef831 b5fc226f 08326f09  ....!^.1.."o.2o.
 40203a60 222f0c31 5af801d1 fcc00000 ec820c22  "/.1Z.........."
 40203a70 292f21af fc280266 220945ef 032c2339  )/!..(.f".E..,#9
 40203a80 02461200 22cf08c5 2a005602 0405ee03  .F.."...*.V.....
 40203a90 32a02239 02460d00 22a00122 6f0221a4  2."9.F..".."o.!.
 40203aa0 fc222200 66220985 ec032c13 3902c603  ."".f"....,.9...
 40203ab0 0022cf08 c5270056 620045eb 032c1339  ."...'.Vb.E..,.9
 40203ac0 0221bcfc 10112045 2a00298f 399f28af  .!.... E*.).9.(.
 40203ad0 8c62c5e9 0338af32 6200288f 389f01ab  .b...8.2b.(.8...
 40203ae0 fcc00000 86000000 280f1d0f 022113f2  ........(....!..
 40203af0 211212c1 500df000 12c1b002 6113f261  !...P.......a..a
 40203b00 1210f120 226f0c22 2f0c45f3 03290f21  ... "o."/.E..).!
 40203b10 88fc2802 66020528 0f463000 00280f05  ..(.f..(.F0..(..
 40203b20 2a005662 0b28cf85 290016e2 0a0c3229  *.Vb.(..).....2)
 40203b30 2f21a2fc 293f0c02 29af28cf 0193fcc0  /!..)?..).(.....
 40203b40 0000296f 397f286f 387f294f 395f2178  ..)o9.(o8.)O9_!x
 40203b50 fc2802ec 2228cf31 1df8018a fcc00000  .(.."(.1........
 40203b60 a6120821 21f83176 fc460100 211ff831  ...!!.1v.F..!..1
 40203b70 7cfc298f 399f8608 0028cf31 14f80181  |.).9....(.1....
 40203b80 fcc00000 a6120821 11f83167 fc460100  .......!..1g.F..
 40203b90 210ff831 66fc226f 08326f09 2165fc22  !..1f."o.2o.!e."
 40203ba0 22006622 0a85dc03 2c233902 06040000  ".f"....,#9.....
 40203bb0 22cf0805 18005662 0045db03 2c233902  ".....Vb.E..,#9.
 40203bc0 222f0a16 720085da 03322f0a 3902288f  "/..r....2/.9.(.
 40203bd0 389f016e fcc00000 86000000 280f1d0f  8..n........(...
 40203be0 022113f2 211212c1 500df000 12c1b002  .!..!...P.......
 40203bf0 6113f261 1210f120 226f0c22 2f0c05e3  a..a... "o."/...
 40203c00 03290f21 4bfc2802 26020628 cf451e00  .).!K.(.&..(.E..
 40203c10 cc52280f 86270000 0028cf31 ecf7015f  .R(..'...(.1..._
 40203c20 fcc00000 d6c2080c 12292f21 65fc293f  .........)/!e.)?
 40203c30 0c0229af 28cf0154 fcc00000 296f397f  ..).(..T....)o9.
 40203c40 286f387f 294f395f 213afc28 02ccb221  (o8.)O9_!:.(...!
 40203c50 dff731de f7298f39 9fc60500 21dcf731  ..1..).9....!..1
 40203c60 dbf741da f751d9f7 01edf7c0 0000226f  ..A..Q........"o
 40203c70 08326f09 212ffc22 22006622 0a05cf03  .2o.!/."".f"....
 40203c80 2c133902 06040000 22cf0885 0a005662  ,.9.....".....Vb
 40203c90 00c5cd03 2c133902 222f0a16 720005cd  ....,.9."/..r...
 40203ca0 03322f0a 3902288f 389f0138 fcc00000  .2/.9.(.8..8....
 40203cb0 86000000 280f1d0f 022113f2 211212c1  ....(....!..!...
 40203cc0 500df000 12c1c0f9 f1fd0129 8f399f28  P..........).9.(
 40203cd0 8f389f29 2f393f28 3f290f28 8f389f29  .8.)/9?(?).(.8.)
 40203ce0 4f395f38 0f21bcf7 20231029 5f284f38  O9_8.!.. #.)_(O8
 40203cf0 5f298f39 9f288f38 9f1d0ff8 f112c140  _).9.(.8.......@
 40203d00 0df00000 12c1d0f9 b1fd0129 4f395f28  ...........)O9_(
 40203d10 4f385f29 2f393f28 3f290f38 0f21aef7  O8_)/9?(?).8.!..
 40203d20 20331021 28fc2a23 202f051d 0ff8b112   3.!(.*# /......
 40203d30 c1300df0 12c1d009 b1f9a1fd 01294f0c  .0...........)O.
 40203d40 02290f28 4f383228 22484f58 34482401  .).(O82("HOX4H$.
 40203d50 06fcc000 008c320c 02460000 280f1d0f  ......2..F..(...
 40203d60 08b1f8a1 12c1300d f0000000 12c1d0f9  ......0.........
 40203d70 b1fd0129 4f2114fc 293f0c02 292f282f  ...)O!..)?..)/(/
 40203d80 383f290f 391f280f 381f1d0f f8b112c1  8?).9.(.8.......
 40203d90 300df000 12c1d0f9 b1fd0129 4f284f29  0..........)O(O)
 40203da0 1f281f29 0f380f21 8cf72023 10292f28  .(.).8.!.. #.)/(
 40203db0 2f294f28 4f1d0ff8 b112c130 0df00000  /)O(O......0....
 40203dc0 12c1d0f9 b1fd0129 4f284f29 1f281f29  .......)O(O).(.)
 40203dd0 0f380f21 81f72023 10290f0c 12380f41  .8.!.. #.)...8.A
 40203de0 fbfb37a4 0222a000 2020741d 0ff8b112  ..7.."..  t.....
 40203df0 c1300df0 12c1d0f9 b1fd0129 4f284f29  .0.........)O(O)
 40203e00 1f281f29 0f280f8c 62380f21 7bf72793  .(.).(..b8.!{.'.
 40203e10 040c2246 1700280f 31b4f627 b307280f  .."F..(.1..'..(.
 40203e20 31ebfb27 b30f280f 31eafb27 b30d280f  1..'..(.1..'..(.
 40203e30 31e9fb27 33050c42 060e0000 280f8c62  1..'3..B....(..b
 40203e40 280f31a9 f627b30f 280f316b f727b30c  (.1..'..(.1k.'..
 40203e50 280f31df fb273304 0c328605 00380f21  (.1..'3..2...8.!
 40203e60 defb2713 07380f21 ddfb2793 040c1246  ..'..8.!..'....F
 40203e70 00000c02 1d0ff8b1 12c1300d f0000000  ..........0.....
 40203e80 e0b22240 a888fe3f c413ff3f c411ff3f  .."@...?...?...?
 40203e90 18511040 ac0a1040 d8390040 12c1f0c2  .Q.@...@.9.@....
 40203ea0 61010261 0030c320 0511099c 0221f4ff  a..a.0. .....!..
 40203eb0 31f5ff42 a0cc01f7 ffc00000 06ffff22  1..B..........."
 40203ec0 a00032a4 2c01f4ff c0000022 a00132a4  ..2.,......"..2.
 40203ed0 2c01f1ff c0000005 470421eb ff2222cb  ,.......G.!.."".
 40203ee0 c5321445 b60c2d0c 05cb0fc5 fc0e3d0c  .2.E..-.......=.
 40203ef0 21e7ff45 50100c02 31e6ff0c 040125f6  !..EP...1.....%.
 40203f00 c000000c 1201d1f5 c00000c5 050ec1df  ................
 40203f10 ffc54104 2d0c0528 16050f10 c8110801  ..A.-..(........
 40203f20 12c1100d f0000000 3214ff3f 6114ff3f  ........2..?a..?
 40203f30 1a16ff3f 00900100 8014ff3f b813ff3f  ...?.......?...?
 40203f40 e313ff3f e82a0040 32a0ff12 c1e0c911  ...?.*.@2.......
 40203f50 d921e931 e1f5ff09 0102deff 220082f9  .!.1........"...
 40203f60 41379204 0c244240 82c50602 f2a00161  A7...$B@.......a
 40203f70 c1f452a0 0ec1edff d1eeff02 0c80221d  ..R...........".
 40203f80 7f073502 562000f2 4c802736 0572a063  ..5.V ..L.'6.r.c
 40203f90 27370822 a06482a0 64825d7f 32a06401  '7.".d..d.].2.d.
 40203fa0 98f4c000 0031e3ff 2020f430 22821011  .....1..  .0"...
 40203fb0 2045910f 020c810c 0ff65002 66100df2   E........P.f...
 40203fc0 4c8121dd ff4c0301 dfffc000 00620c83  L.!..L.......b..
 40203fd0 420c820c 85b62402 f24c8292 ce868219  B.....$..L......
 40203fe0 01921900 00881190 882067b5 040c4772  ......... g...Gr
 40203ff0 4c836608 1521d1ff 2c4301d2 ffc00000  L.f..!..,C......
 40204000 21d0ff4c 0301cfff c0000002 dcffa200  !..L............
 40204010 f4b20c87 b62a02f2 40f402de fff24083  .....*..@.....@.
 40204020 b66b040c 12224c87 c811e831 f84122cd  .k..."L....1.A".
 40204030 7f22c257 02120122 12000000 11200020  .".W..."..... . 
 40204040 f64001cc e00c030c 3542cd7f 42c45752  .@......5B..B.WR
 40204050 54003254 01d82108 0112c120 0df00000  T.2T..!.... ....
 40204060 00feef3f 12c1f009 01168206 7ce40c13  ...?........|...
 40204070 b1fcff21 1ef6c020 000222c0 400010c0  ...!... ..".@...
 40204080 20000262 c0c02000 a22b8130 aa20c020   ..b.. ..+.0. . 
 40204090 00a26b81 0cb9c020 009262c1 0cd8c020  ..k.... ..b.... 
 402040a0 008262c2 3c87c020 006222c0 706620c0  ..b.<.. .b".pf .
 402040b0 20006262 c07c95c0 20004222 c0504410   .bb.|.. .B".PD.
 402040c0 c0200042 62c0c020 000222c0 300020c0  . .Bb.. ..".0. .
 402040d0 20000262 c085480e 080112c1 100df000   ..b..H.........
 402040e0 00000000 000f0000 00feff5f 0000ff00  ..........._....
 402040f0 12c1e0d9 21f94109 01c911e9 31cd02ed  ....!.A.....1...
 40204100 0301c7f3 c00000dd 02f1f6ff 01f7ffc0  ................
 40204110 ffd10aff c1f6ffc0 2000022f 87070c14  ........ ../....
 40204120 01c0f3c0 0000d002 c0073e08 c0200032  ..........>.. .2
 40204130 2f87c783 eac811d8 21e831f8 41080112  /.......!.1.A...
 40204140 c1200df0 5c031040 628ffe3f 5c8ffe3f  . ..\..@b..?\..?
 40204150 408ffe3f c0a80401 ffffff00 688ffe3f  @..?........h..?
 40204160 18302240 14c7ff3f 000e0060 60b22240  .0"@...?...``."@
 40204170 60b32240 b488fe3f bc88fe3f c888fe3f  `."@...?...?...?
 40204180 80b32240 00ff0000 a890fe3f 4413ff3f  .."@.......?D..?
 40204190 a490fe3f 54040040 44021040 682e0040  ...?T..@D..@h..@
 402041a0 700a1040 b4180040 88081040 fc0e1040  p..@...@...@...@
 402041b0 a4180040 a40e1040 22a00912 c1f0d261  ...@...@"......a
 402041c0 02c26101 e931c1df ff09013d 0c01f1ff  ..a..1.....=....
 402041d0 c000000c 023d0c01 efffc000 000c223d  .....=........"=
 402041e0 0c01ecff c000000c 323d0c01 eaffc000  ........2=......
 402041f0 001cc23d 0c01e7ff c000001c d23d0c01  ...=.........=..
 40204200 e5ffc000 003d0c0c 8201e2ff c00000c5  .....=..........
 40204210 330ce1cd ff2d0e01 e0ffc000 0021cbff  3....-.......!..
 40204220 3d0e45d4 0101ccff c1caff21 caff291c  =.E........!..).
 40204230 293c092c 01daffc0 0000c5e8 1a855a1a  )<.,..........Z.
 40204240 c1c7ff2d 0c01d9f3 c000002d 0c31c4ff  ...-.......-.1..
 40204250 0c0401d4 f3c00000 2d0c1c93 0c140c15  ........-.......
 40204260 01d2f3c0 000005ce ffc52c00 22a08001  ..........,."...
 40204270 97f8c000 0031bbff 3803dd02 28133833  .....1..8...(.83
 40204280 01e0f3c0 00003d0d 42a08040 221122d2  ......=.B..@".".
 40204290 c001c3ff c0000001 95ff2193 ffc02000  ..........!... .
 402042a0 32228737 0008c020 00422287 0784f6c1  2".7... .B".....
 402042b0 aeffc020 00522c47 570008c0 2000622c  ... .R,GW... .b,
 402042c0 470786f6 05bcfd72 0d002657 1ad02d20  G......r..&W..- 
 402042d0 31a7ff42 a08001b3 ffc00000 e03e20d0  1..B.........> .
 402042e0 2d2085bb ff860100 3d0e2d0d c5baff2d  - ......=.-....-
 402042f0 0d01b4f8 c0000021 9eff319e ff419eff  .......!..1..A..
 40204300 519fff01 e4fec000 00219dff c0200032  Q........!... .2
 40204310 2c9f519c ff3030f5 c0200042 2cfe5044  ,.Q..00.. .B,.PD
 40204320 10404841 c0200052 2cfe5050 7401d9fe  .@HA. .R,.PPt...
 40204330 c000001c c2019cff c000001c c4cd02d1  ................
 40204340 92ff0c02 3d0d0199 ffc00000 480db654  ....=.......H..T
 40204350 0b2d0d0c 031cc401 96ffc000 0022a000  .-..........."..
 40204360 c03c201c c40193ff c000002d 0c0195f8  .< ........-....
 40204370 c000000c f76c0861 3affc020 00522680  .....l.a:.. .R&.
 40204380 80551070 5520c020 00526680 0c1245cd  .U.pU . .Rf...E.
 40204390 ffc16fff 85b0fdb2 a073d154 f5c02000  ..o......s.T.. .
 402043a0 b26dc50c 1a9179ff a24c3cc2 09702d0c  .m....y..L<..p-.
 402043b0 851b1026 1c02663c 05101120 05b31526  ...&..f<... ...&
 402043c0 2c02663c 02451811 661c0921 b0fe2842  ,.f<.E..f..!..(B
 402043d0 28020580 1bc59701 66120245 9c01216c  (.......f..E..!l
 402043e0 ff28028c 12c00200 c811d821 e8310801  .(.........!.1..
 402043f0 12c1100d f0000000 fcff0000 a0b32240  .............."@
 40204400 b0b32240 12c1e009 012951c9 11e931d9  .."@.....)Q...1.
 40204410 21f941dd 03fd02e1 f8ff3bc3 e0cc102d  !.A.......;....-
 40204420 0c012af8 c00000ed 024d0c40 2f113d0e  ..*......M.@/.=.
 40204430 015cffc0 0000acad f1f1ff0c 0c8bff2d  .\.............-
 40204440 0fca3e32 03000193 fec00000 1b4c4040  ..>2.........L@@
 40204450 44cc7421 eaff018f fec00000 1bccc0c0  D.t!............
 40204460 f4c79dda 21e7ff01 8bfec000 002d0e01  ....!........-..
 40204470 55f8c000 00c811d8 21e831f8 41080112  U.......!.1.A...
 40204480 c1200df0 c0b32240 12c1f0c9 110901cd  . ...."@........
 40204490 0221fcff 0180fec0 00001b2c 32a37045  .!.........,2.pE
 402044a0 f6ff2b2c 32a370c5 f5ff3b2c 1cc345f5  ..+,2.p...;,..E.
 402044b0 ffc81108 0112c110 0df00000 982fff3f  ............./.?
 402044c0 808dfe3f 61feff41 feff0c05 67b40752  ...?a..A....g..R
 402044d0 44001b44 6794f70d f0000000 808ffe3f  D..Dg..........?
 402044e0 21ffff28 420df000 982fff3f f8bfff3f  !..(B..../.?...?
 402044f0 5085fe3f 41feff7c 8561f8ff 71fbff79  P..?A..|.a..q..y
 40204500 568b3750 33107044 c0504410 392651f8  V.7P3.pD.PD.9&Q.
 40204510 ff491652 15003a24 5022c050 44c04946  .I.R..:$P".PD.IF
 40204520 29060c05 59365902 59124913 29030df0  )...Y6Y.Y.I.)...
 40204530 0000fcff 00020060 41ecfe51 fdffc020  .......`A..Q... 
 40204540 002224fe 5662ffc0 20003224 c05783ed  ."$.Vb.. .2$.W..
 40204550 b2a08071 f8ffa1c2 fec02000 922a8ab0  ...q...... ..*..
 40204560 9920c020 00926a8a 0c18c020 0062273f  . . ..j.... .b'?
 40204570 806620c0 20006267 3f0c35c0 20003224  .f . .bg?.5. .2$
 40204580 ff503320 c0200032 64ff2c02 c02000b2  .P3 . .2d.,.. ..
 40204590 24c720bb 20c02000 b264c77c eac02000  $. . . ..d.|.. .
 402045a0 9224cba0 9910c020 009264cb 0c68c020  .$..... ..d..h. 
 402045b0 007224cb 807720c0 20007264 cb6186f5  .r$..w . .rd.a..
 402045c0 c0200052 24c66055 10c02000 5264c60d  . .R$.`U.. .Rd..
 402045d0 f0000000 41c5fe51 d6ffc020 002224fe  ....A..Q... ."$.
 402045e0 5662ffc0 20003224 c05783ed b2af7f71  Vb.. .2$.W.....q
 402045f0 d1ff7cea 919bfec0 20008229 8ab08810  ..|..... ..)....
 40204600 c0200082 698ac020 0062273f a06610c0  . ..i.. .b'?.f..
 40204610 20006267 3f7cc5c0 20003224 ff503310   .bg?|.. .2$.P3.
 40204620 c0200032 64ff22af dfc02000 b224c720  . .2d."... ..$. 
 40204630 bb10c020 00b264c7 c0200092 24cba099  ... ..d.. ..$...
 40204640 10c02000 9264cb0c 68c02000 7224cb80  .. ..d..h. .r$..
 40204650 7720c020 007264cb 6160f5c0 20005224  w . .rd.a`.. .R$
 40204660 c6605510 c0200052 64c60df0 00000020  .`U.. .Rd...... 
 40204670 7ce6819d fec02000 b228cb60 bb10c020  |..... ..(.`... 
 40204680 00b268cb 0c6ac020 009228cb a09920c0  ..h..j. ..(... .
 40204690 20009268 cb68125a 7377b603 0c120df0   ..h.h.Zsw......
 402046a0 e6150286 2600a1f1 ff9153f5 a6c53fa0  ....&.....S...?.
 402046b0 b320c020 00b268c1 c0200092 68c0c020  . . ..h.. ..h.. 
 402046c0 007228c0 8c77c020 002228c0 5662ff0c  .r(..w. ."(.Vb..
 402046d0 028062a0 c020001b 226226d0 69042020  ..b.. .."b&.i.  
 402046e0 744b4466 82ea52c5 e032c320 c6120080  tKDf..R..2. ....
 402046f0 b501b0b3 20c02000 b268c1c0 20009268  .... . ..h.. ..h
 40204700 c0c02000 7228c08c 77c02000 2228c056  .. .r(..w. ."(.V
 40204710 62ff5070 14505221 1b657056 93505074  b.Pp.PR!.epV.PPt
 40204720 9c550c02 8062a0c0 20001b22 6226d069  .U...b.. .."b&.i
 40204730 04202074 4b442795 ea0c05a6 150286da  .  tKD'.........
 40204740 ff0c020d f0000000 0880fe3f 31ffff0c  ...........?1...
 40204750 14202493 2243000d f0000000 21fbff22  . $."C......!.."
 40204760 02000df0 a48ffe3f 34482040 10b42240  .......?4H @.."@
 40204770 4b90fe3f 12c1f0c2 61022261 000911c5  K..?....a."a....
 40204780 ac0dac72 c1f8ffc2 ccfc320c 00dc1321  ...r......2....!
 40204790 f5ff31f5 ff0c0401 83f2c000 000c1002  ..1.............
 402047a0 4c0005a9 0d020c18 9c622610 140c0286  L........b&.....
 402047b0 01002801 2240847c f2c82108 1112c110  ..(."@.|..!.....
 402047c0 0df05630 0222a001 45c40d21 e6ff0177  ..V0."..E..!...w
 402047d0 f2c00000 21e4ff32 a00a0c04 0c150172  ....!..2.......r
 402047e0 f2c00000 0c13324c 18020c19 0ca41b00  ......2L........
 402047f0 00007402 4c1907b4 0d21dcff 01a6fdc0  ..t.L....!......
 40204800 00000ca0 024c1922 0c1a31d9 ff0a223a  .....L."..1...":
 40204810 020b22a6 929b3801 32407a06 e6ff0000  .."...8.2@z.....
 40204820 b08ffe3f d090fe3f 2890fe3f bb8ffe3f  ...?...?(..?...?
 40204830 700b1040 12c1f0e9 310901d9 21c911c1  p..@....1...!...
 40204840 f8ff0c0d 020c09d2 4c081640 09e1f5ff  ........L..@....
 40204850 10112005 9e0dcc72 10112005 9f0d56d2  .. ....r.. ...V.
 40204860 07420c0a ea040200 00261060 26205426  .B.......&.`& T&
 40204870 30422640 36265027 66600b21 ebff320c  0B&@6&P'f`.!..2.
 40204880 e4859001 420c0a02 0c091b44 4040740b  ....B......D@@t.
 40204890 00000074 024c0966 943bd24c 0a060e00  ...t.L.f.;.L....
 402048a0 220c7332 0c74c5ca 00c6f5ff 01e1ffc0  ".s2.t..........
 402048b0 000086f3 ff21ddff 320c7205 1c0186f0  .....!..2.r.....
 402048c0 ff000000 854d0146 eeff0000 00455601  .....M.F.....EV.
 402048d0 06ecff00 0000424c 0a5630f7 86000002  ......BL.V0.....
 402048e0 0c09e1a0 ffdc602d 0e0130f2 c0000008  ......`-..0.....
 402048f0 01d24c08 e831c811 d82112c1 100df022  ..L..1...!....."
 40204900 a001c5b0 0de02e20 0129f2c0 0000e02e  ....... .)......
 40204910 200ca30c 040c1501 24f2c000 000c1d06   .......$.......
 40204920 f3ff0000 d8361040 12c1f009 0101fdff  .....6.@........
 40204930 c0000008 0112c110 0df00000 22a00012  ............"...
 40204940 c1f00261 0085db04 2020f402 210012c1  ...a....  ..!...
 40204950 100df000 12c1f002 6100c517 052020f4  ........a....  .
 40204960 02210012 c1108000 00000000 481cff3f  .!..........H..?
 40204970 12c1f009 0185a800 0d022911 26320429  ..........).&2.)
 40204980 11661204 c55d1508 11263002 66200510  .f...]...&0.f ..
 40204990 112085ca 1021f5ff 0105f2c0 000021f3  . ...!........!.
 402049a0 ff31a3ff 0c0401ff f1c00000 21f0ff32  .1..........!..2
 402049b0 a0640c04 0c1501fc f1c00000 080112c1  .d..............
 402049c0 100df000 00000000 ac13ff3f 22a37012  ...........?".p.
 402049d0 c1f0c261 01026100 01bdf6c0 000020c2  ...a..a....... .
 402049e0 2032a0ff 42a37001 f2fdc000 002d0c31   2..B.p......-.1
 402049f0 f6ff0c84 01ecfdc0 00002d0c 05ca002d  ..........-....-
 40204a00 0c01f0f6 c00000c8 11080112 c1100df0  ................
 40204a10 0c020c84 12c1f03d 01092101 e1fdc000  .......=..!.....
 40204a20 00220103 08212024 4112c110 0df00000  ."...! $A.......
 40204a30 2d13ff3f 21ffff22 02802020 440df000  -..?!.."..  D...
 40204a40 40b42240 12c1f009 0185feff b6320d1c  @."@.........2..
 40204a50 f0071208 0c120801 12c1100d f021f8ff  .............!..
 40204a60 010dfdc0 00000c02 86faff00 12c1f009  ................
 40204a70 0105fdff 7cf041ee ff380142 048012c1  ....|.A..8.B....
 40204a80 10404504 2004932d 000d030d f0000000  .@E. ..-........
 40204a90 00100000 12c1f0c9 31c1e5ff 0921020c  ........1....!..
 40204aa0 80220c7f 000741dc 9027625b 220c8442  ."....A..'b["..B
 40204ab0 0c86320c 85004411 80331140 33203022  ..2...D..3.@3 0"
 40204ac0 20860e00 85f4ff29 11c51d00 dc2251f0   ......)....."Q.
 40204ad0 ff620c80 0c026060 4462c6e1 60259306  .b....``Db..`%..
 40204ae0 07000811 0000748c f0e65002 e62030e6  ......t...P.. 0.
 40204af0 7002e650 30080146 00004c10 402011c8  p..P0..F..L.@ ..
 40204b00 31082112 c1100df0 220c8142 0c83320c  1.!....."..B..2.
 40204b10 82004411 80331140 33203022 2086f7ff  ..D..3.@3 0" ...
 40204b20 02a08146 f5ff02a1 01c6f3ff 51c1ff52  ...F........Q..R
 40204b30 05801cf6 502044a6 32076712 04502741  ....P D.2.g..P'A
 40204b40 0df00c12 0df00000 60b42240 a0b42240  ........`."@.."@
 40204b50 e0b42240 c0b42240 80b42240 12c1e009  .."@.."@.."@....
 40204b60 21c931d9 41cd02dd 0385edff 168204ec  !.1.A...........
 40204b70 8c0c023d 010c8401 8afdc000 00020103  ...=............
 40204b80 00044116 80072620 75263072 26406f21  ..A...& u&0r&@o!
 40204b90 eeff01c0 fcc00000 06070066 1c10c5ec  ...........f....
 40204ba0 ffec0221 eaff01bb fcc00000 06020021  ...!...........!
 40204bb0 e8ff01b8 fcc00000 0c02c831 d8410821  ...........1.A.!
 40204bc0 12c1200d f021e3ff 3d0d01b2 fcc00000  .. ..!..=.......
 40204bd0 42a0bfd0 58413196 ffd060f5 d2438162  B...XA1...`..C.b
 40204be0 43832203 80524382 40221022 438022c3  C."..RC.@"."C.".
 40204bf0 7fc5aa00 85d7ff0c 1246efff 00000045  .........F.....E
 40204c00 e9ff20c2 20d03d20 21d4ff01 a2fcc000  .. . .= !.......
 40204c10 0092a0fb d02841c0 00f5c0b8 418184ff  .....(A.....A...
 40204c20 d030f5d2 48843248 86c24881 b2488202  .0..H.2H..H..H..
 40204c30 4883a208 80224885 72087f22 c87f9077  H...."H.r.."...w
 40204c40 10a0a064 a2488092 a0049077 2072487f  ...d.H.....w rH.
 40204c50 c5a400c5 d1ff46e7 ff000000 2c13ff3f  ......F.....,..?
 40204c60 12c1f0c9 110901cd 0285dcff b62c040c  .............,..
 40204c70 02c60900 51faff26 22041cf0 079208c0  ....Q..&".......
 40204c80 403402a0 f0460100 c0401402 a0fc3205  @4...F...@....2.
 40204c90 800c1200 33104033 20324580 c8110801  ....3.@3 2E.....
 40204ca0 12c1100d f0000000 12c1f009 0145d8ff  .............E..
 40204cb0 01ebff1c f337121d 26221a02 00800040  .....7..&".....@
 40204cc0 1466140b 27e0170c 02080112 c1100df0  .f..'...........
 40204cd0 27e0f306 02005200 80505034 6615e70c  '.....R..PP4f...
 40204ce0 1206f9ff a08ffe3f f6320a31 feff0c14  .......?.2.1....
 40204cf0 2243f546 00000c04 2d040df0 21faff22  "C.F....-...!.."
 40204d00 02f50df0 10b52240 00b52240 14b52240  ......"@.."@.."@
 40204d10 1cb52240 18b52240 20b52240 24b52240  .."@.."@ ."@$."@
 40204d20 12c1f009 21c5d0ff 01efff29 110200f5  ....!......)....
 40204d30 0c022620 38860b00 22058059 01202034  ..& 8..."..Y.  4
 40204d40 0b2256e2 0b21efff 0153fcc0 00000801  ."V..!...S......
 40204d50 22008032 a0f03022 10224080 211bff05  "..2..0"."@.!...
 40204d60 9400c5c0 ff0c1208 2112c110 0df021e6  ........!.....!.
 40204d70 ff0148fc c0000048 1151b8ff 2624b81c  ..H....H.Q..&$..
 40204d80 f66714b3 590192a0 80720580 82058170  .g..Y....r.....p
 40204d90 00148080 64908820 82458127 e7106610  ....d.. .E.'..f.
 40204da0 3521daff 013cfcc0 00000801 860c0066  5!...<.........f
 40204db0 103521d7 ff0137fc c0000008 01220080  .5!...7......"..
 40204dc0 32a0fc30 22102240 800c4342 a0fb4022  2..0"."@..CB..@"
 40204dd0 10302220 46e0ff21 cfff012e fcc00000  .0" F..!........
 40204de0 08012200 8006f8ff 21ccff01 2afcc000  ..".....!...*...
 40204df0 00080122 008032a0 fc302210 0c133022  ..."..2..0"...0"
 40204e00 2046f0ff 21c6ff01 23fcc000 00080122   F..!...#......"
 40204e10 008032a0 f0302210 0c133022 2006ceff  ..2..0"...0" ...
 40204e20 6c0c1040 12c1f022 61000261 01055d00  l..@..."a..a..].
 40204e30 20022029 2131abff 0c122243 f7263004   . )!1...."C.&0.
 40204e40 09216610 04c51115 08212630 02662002  .!f......!&0.f .
 40204e50 857e1021 c6fe01d5 f0c00000 21c4fe31  .~.!........!..1
 40204e60 f0ff4221 0001cff0 c0000021 c0fe32a0  ..B!.......!..2.
 40204e70 6442a000 52a00101 ccf0c000 00081112  dB..R...........
 40204e80 c1100df0 8cd22612 0b262208 2642050c  ......&..&".&B..
 40204e90 042d040d f03193ff 0c142243 f606fcff  .-...1...."C....
 40204ea0 12c1f002 61004565 08022100 12c11080  ....a.Ee..!.....
 40204eb0 00000000 12c1f002 61004566 08022100  ........a.Ef..!.
 40204ec0 12c11080 00000000 12c1f002 61004504  ............a.E.
 40204ed0 08022100 12c11080 00000000 042f0040  ..!........../.@
 40204ee0 12c1f05c 05090101 5efc5792 1b7ce3c0  ...\....^.W..|..
 40204ef0 20002220 85302210 c0200022 60852d05   ." .0".. ."`.-.
 40204f00 01f7ffc0 00008607 0052a0a0 57921d2d  .........R..W..-
 40204f10 050c16c0 20004220 85604420 c0200042  .... .B .`D . .B
 40204f20 608501ee ffc00000 0c124600 000c0208  `.........F.....
 40204f30 0112c110 0df00000 0c2f0040 12c1f009  ........./.@....
 40204f40 0101fdff c0000020 20740801 12c1100d  .......  t......
 40204f50 f0000000 12c1f009 0105feff 5c000792  ............\...
 40204f60 123160ff 0c122243 f822a0a0 05f7ff0c  .1`..."C."......
 40204f70 12460000 0c020801 12c1100d f0000000  .F..............
 40204f80 12c1f009 0145fbff 02a0a007 92170155  .....E.........U
 40204f90 ff2200f8 66120e5c 020c0332 40f805f4  ."..f..\...2@...
 40204fa0 ff0c1246 00000c02 080112c1 100df000  ...F............
 40204fb0 51e6fd0c 04424501 22a08431 4cf2c020  Q....BE."..1L.. 
 40204fc0 0029a30d f0000000 000af23f 31ffffc0  .).........?1...
 40204fd0 20003223 802023c0 0df00000 2090fe3f   .2#. #..... ..?
 40204fe0 50b52240 80b52240 d04c0040 12c1a0c2  P."@.."@.L.@....
 40204ff0 6114c1a6 fb026113 c84c01f8 ffc80c72  a.....a..L.....r
 40205000 201facac ac875802 281c082c 27950e68   .....X.(..,'..h
 40205010 03383c07 96098804 37181446 0000383c  .8<.....7..F..8<
 40205020 39b109a1 29910c39 998122c1 20c00700  9...)..9..". ...
 40205030 720c0862 0c07520c 06420c05 320c04a2  r..b..R..B..2...
 40205040 0c09a901 920c0a99 11820c0b 8921220c  .............!".
 40205050 0c293121 e3ff020c 0d0941b2 0c0eb951  .)1!......A....Q
 40205060 a20c0fa9 61018bfb c00000c1 88fb21dd  ....a.........!.
 40205070 ff0188fb c0000021 45fc384c 0c500243  .......!E.8L.P.C
 40205080 bab20271 42027066 1b346614 31cd0221  ...qB.pf.4f.1..!
 40205090 37fe0146 f0c00000 0c14320c 7221cfff  7..F......2.r!..
 402050a0 00134022 02800c03 20500450 34830022  ..@".... P.P4.."
 402050b0 a10044a1 0033a10c 0501cbff c00000c2  ..D..3..........
 402050c0 21140221 1312c160 0df00000 0080fe3f  !..!...`.......?
 402050d0 4485fe3f 90b52240 5085fe3f 7c8dfe3f  D..?.."@P..?|..?
 402050e0 b0b52240 d0b52240 00c0ff3f f0b52240  .."@.."@...?.."@
 402050f0 21f9ff41 f7ff51f5 ff12c1f0 09013d05  !..A..Q.......=.
 40205100 5054c001 64fbc000 0021f5ff 51f3ff41  PT..d....!..Q..A
 40205110 f3ff3d05 5054c001 5ffbc000 0021f1ff  ..=.PT.._....!..
 40205120 51e8fc41 e6fc3d05 5054c001 5afbc000  Q..A..=.PT..Z...
 40205130 0021eeff 41edff61 ecfc51eb ff3d0660  .!..A..a..Q..=.`
 40205140 55c00154 fbc00000 080112c1 100df000  U..T............
 40205150 12c1f002 61008538 ff022100 12c11080  ....a..8..!.....
 40205160 00000000 000000ff 41ffff21 bdfbc020  ........A..!... 
 40205170 00322294 40331041 f8fbc020 00222295  .2".@3.A... ."".
 40205180 10484040 22103022 810df000 12c1f002  .H@@".0"........
 40205190 61000598 0b022100 12c11080 00000000  a.....!.........
 402051a0 21d3f1c0 20002222 470df000 80bfb186  !... .""G.......
 402051b0 481f1040 12c1d009 914921c9 a1d9b1cd  H..@.....I!.....
 402051c0 02d2c3fe e61d03ab d30bc259 41696179  ...........YAiay
 402051d0 110c030c 020c0009 31295139 012d0c32  ........1)Q9.-.2
 402051e0 a1900107 f0c00000 297132a0 642d0c01  ........)q2.d-..
 402051f0 04f0c000 0029810c c322a16f 202d8201  .....)...".o -..
 40205200 00f0c000 000c0358 71788148 21c06241  .......Xqx.H!.bA
 40205210 2a447066 c022a16d 202c826a 555a442a  *Dpf.".m ,.jUZD*
 40205220 2447b201 0c13d841 0c051c84 c83101e0  $G.....A.....1..
 40205230 ffc00000 3a3c2a2d d7b2011b 33d8610c  ....:<*-....3.a.
 40205240 053cc4c8 5101daff c000003a 3c2a2dd7  .<..Q......:<*-.
 40205250 b2011b33 c801d811 0c053cc4 01d5ffc0  ...3......<.....
 40205260 00002a4d 21d2ff3a 0c2a24d7 b4011b00  ..*M!..:.*$.....
 40205270 32c0f1c8 a1d8b147 b20232c0 f2089112  2......G..2.....
 40205280 c1300df0 3198fe22 63410df0 21bffb0d  .0..1.."cA..!...
 40205290 f0000000 12c1f002 61034516 00261234  ........a.E..&.4
 402052a0 bc1201ba fb020064 2610290c 12452502  .......d&.)..E%.
 402052b0 0126fd9c 22220002 ccd20c12 3d014560  .&..""......=.E`
 402052c0 012d0105 e8170120 fd0c1222 40020831  .-..... ..."@..1
 402052d0 12c1100d f00c02c6 fcff0000 12c1f002  ................
 402052e0 6100c511 0026122f 16c20201 a8fb0200  a....&./........
 402052f0 64261023 0c12c520 020113fd 8ca22200  d&.#... ......".
 40205300 02661205 c5eb1701 10fd0c12 0c033240  .f............2@
 40205310 02080112 c1100df0 0c02c6fc ff000000  ................
 40205320 210afd22 02020df0 12c1f002 6100050d  !.."........a...
 40205330 00262241 16e20301 95fb0200 64261035  .&"A........d&.5
 40205340 22a00005 1c020c14 0100fd9c b2320003  "............2..
 40205350 dc635202 31076511 0c066912 69226932  .cR.1.e...i.i"i2
 40205360 4592160c 1401f8fc cca24240 030c1208  E.........B@....
 40205370 0112c110 0df00c02 c6fcff00 12c1f002  ................
 40205380 6100c507 0026222f 16c20201 80fb0200  a....&"/........
 40205390 64261023 0c02c516 0201ebfc 8ca23200  d&.#..........2.
 402053a0 03661305 85fd1601 e8fc0c12 0c044240  .f............B@
 402053b0 03080112 c1100df0 0c02c6fc ff000000  ................
 402053c0 21e2fc22 02030df0 12c1f0d9 21c91109  !.."........!...
 402053d0 01cd0266 1205217c fd860000 853500d2  ...f..!|.....5..
 402053e0 0208b64d 010c2d26 1c050176 f4c00000  ...M..-&...v....
 402053f0 0801d020 74c811d8 2112c110 0df00000  ... t...!.......
 40205400 0c1212c1 f0090105 fcff0801 12c1100d  ................
 40205410 f0000000 0c0212c1 f00901c5 faff0801  ................
 40205420 12c1100d f0000000 12c1f0c9 110901cd  ................
 40205430 020c10f6 42010c00 0c2200c2 93261c01  ....B...."...&..
 40205440 cc4c1011 20451f10 262c01cc 4c101120  .L.. E..&,..L.. 
 40205450 05b1142d 0c101120 05110f26 1c02663c  ...-... ...&..f<
 40205460 05101120 85a81426 2c02663c 02c50d10  ... ...&,.f<....
 40205470 661c0b21 86fa2222 04222200 45751ac8  f..!..""."".Eu..
 40205480 11080112 c1100df0 4490fe3f 1827ff3f  ........D..?.'.?
 40205490 12c1f002 610085f6 ff200220 66321c01  ....a.... . f2..
 402054a0 faff0200 80563001 0c028505 0241f7ff  .....V0......A..
 402054b0 0c134804 0c202044 c0400383 2d000801  ..H..  D.@..-...
 402054c0 12c1100d f0000000 10b62240 12c1f009  .........."@....
 402054d0 01168204 f6424541 ecff0c00 02448026  .....BEA.....D.&
 402054e0 12162622 4566322b 45f1ff66 323731e6  ..&"Ef2+E..f271.
 402054f0 ff0c3222 43808606 0045f0ff 26120505  ..2"C....E..&...
 40205500 f0ff6632 200161fa 02200416 70012220  ..f2 .a.. ..p." 
 40205510 00056c1a 0c120801 12c1100d f021eaff  ..l..........!..
 40205520 015dfac0 00000c02 86faff45 edff2622  .].........E..&"
 40205530 05c5ecff 6632ee01 55fa0850 1660fe28  ....f2..U..P.`.(
 40205540 0005691a 06f3ff00 00000000 3413ff3f  ..i.........4..?
 40205550 7c8ffe3f 12c1f0c9 210911cd 02f64254  |..?....!.....BT
 40205560 010bfb02 00643901 2610490c 524520ff  .....d9.&.I.RE .
 40205570 66020d31 dcfd2801 c2438322 4384060a  f..1..(..C."C...
 40205580 0001f2ff 51f3ff42 00805205 00c71419  ....Q..B..R.....
 40205590 09316615 062d0c05 e9ff0831 6801c240  .1f..-.....1h..@
 402055a0 80661605 2109fd85 0f000c12 c8210811  .f..!........!..
 402055b0 12c1100d f00c0246 fcff0000 0c1312c1  .......F........
 402055c0 f0090105 f9ff0801 12c1100d f0000000  ................
 402055d0 0c0312c1 f00901c5 f7ff0801 12c1100d  ................
 402055e0 f0000000 12c1f009 019c9302 a0ef0c06  ................
 402055f0 1b566a42 42040050 60f40004 30000074  .VjBB..P`...0..t
 40205600 6793ec86 000002a0 ef2d0008 0112c110  g........-......
 40205610 0df00000 30b62240 f4091040 200a1040  ....0."@...@ ..@
 40205620 d4180040 12c1e0d9 31f95139 01496109  ...@....1.Q9.Ia.
 40205630 11e941c9 21ed02cd 052d0501 a4f3c000  ..A.!....-......
 40205640 00f801dd 02f0fe82 86020021 f2ff3d0e  ...........!..=.
 40205650 0111fac0 00002d0e 01f0ffc0 00002d0f  ......-.......-.
 40205660 38614d0c 01eeffc0 00002d0f 3d0d4d0c  8aM.......-.=.M.
 40205670 01ccfac0 00002d0d 38614d0c 01e9ffc0  ......-.8aM.....
 40205680 00005652 fc2d0d01 cff3c000 00c821d8  ..VR.-........!.
 40205690 31e841f8 51081112 c1200df0 aa55aa55  1.A.Q.... ...U.U
 402056a0 12c1d0d9 b1c9a109 91cd0216 e20721ad  ..............!.
 402056b0 fa2802d8 3228123d 0d01d1ee c000001c  .(..2(.=........
 402056c0 c432c2fc 39710b22 29813d01 d0228201  .2..9q.").=.."..
 402056d0 b4fac000 00520100 0c140c03 28715034  .....R......(qP4
 402056e0 834d0c52 a3703241 003a221b 223d0d45  .M.R.p2A.:"."=.E
 402056f0 f3ff1cc4 0c167821 52010081 e8ff8911  ......x!R.......
 40205700 1055a01b 77706793 69214935 3201002d  .U..wpg.i!I52..-
 40205710 0c1033a0 321306c5 ecff3d0d 4d019201  ..3.2.....=.M...
 40205720 001cc510 99a02959 288185ef ffc8a1d8  ......)Y(.......
 40205730 b1089112 c1300df0 218bfa12 c1d0c981  .....0..!.......
 40205740 d991e9a1 28020971 e8322812 3d0e01ac  ....(..q.2(.=...
 40205750 eec00000 d2c2fc22 a370015c f3c00000  .......".p.\....
 40205760 3d01cd02 1cc43b2d 202e8201 8dfac000  =.....;- .......
 40205770 0042a370 2201000c 13202393 2241003d  .B.p".... #."A.=
 40205780 0c2a2d1b 22202e82 0186fac0 00000871  .*-." .........q
 40205790 d8912d0c e8a1c881 12c1300d f0000000  ..-.......0.....
 402057a0 12c1e0c9 11f94109 01d921e9 31dd02ed  ......A...!.1...
 402057b0 03cc320c 02461c00 661305c1 83fc0601  ..2..F..f.......
 402057c0 0045f7ff cd02083c f2cc3766 0013cb2c  .E.....<..7f...,
 402057d0 2c4301dc f9c00000 2d0f4c03 01daf9c0  ,C......-.L.....
 402057e0 0000220c a90c03b6 2202324c a92d0d32  ..".....".2L.-.2
 402057f0 cc102c04 016cfac0 00003d0f 22cd204c  ..,..l....=.". L
 40205800 040168fa c0000022 cd6132a0 aa420ca9  ..h....".a2..B..
 40205810 424d603a 3c0c6401 63fac000 00261e07  BM`:<.d.c....&..
 40205820 2d0c0168 f3c00000 0c12c811 d821e831  -..h.........!.1
 40205830 f8410801 12c1200d f0000000 0c1312c1  .A.... .........
 40205840 f00901c5 f5ff0801 12c1100d f0000000  ................
 40205850 0c0312c1 f0090185 f4ff0801 12c1100d  ................
 40205860 f0000000 4414ff3f 7014ff3f 7416ff3f  ....D..?p..?t..?
 40205870 81fdff12 c1e0d931 f951e941 c9218961  .......1.Q.A.!.a
 40205880 8208a409 1116a808 02a0ff0c 0c0c0e29  ...............)
 40205890 01586172 a06452c5 2c707cc1 5a979209  .Xar.dR.,p|.Z...
 402058a0 80071960 2c0432a3 2cf178f9 0801d2a0  ...`,.2.,.x.....
 402058b0 67d0dec1 0addfaf7 3a3f2d0d 013afac0  g.......:?-..:..
 402058c0 000022cd 204c0432 a34c3a3f 0136fac0  ..". L.2.L:?.6..
 402058d0 000022cd 61c0fcf0 316df942 a5314a33  ..".a...1m.B.1J3
 402058e0 3a3f0c64 0130fac0 000002a0 ff51deff  :?.d.0.......Q..
 402058f0 88611bee 61deffe0 e0746a2f 22028022  .a..a....tj/".."
 40205900 4d608208 a472a064 1bccc0c0 74873c88  M`...r.d....t.<.
 40205910 4600000c 0e0811c8 21d8312d 0ef851e8  F.......!.1-..Q.
 40205920 4112c120 0df00000 6814ff3f 12c1f0c9  A.. ....h..?....
 40205930 110901cd 0285acff f66c23ac 0c26221e  .........l#..&".
 40205940 9cb201f9 ff220080 c7120821 1ffcc240  .....".....!...@
 40205950 80c5d4ff 0c12c811 080112c1 100df00c  ................
 40205960 0246fcff 6914ff3f 8412ff3f bc13ff3f  .F..i..?...?...?
 40205970 00000100 5614ff3f c82a0040 12c1e0d9  ....V..?.*.@....
 40205980 41490109 21e951c9 31f961cd 02f1f5ff  AI..!.Q.1.a.....
 40205990 ed03324f 8001f8ff c000002c 00313bf9  ..2O.......,.1;.
 402059a0 d2a064e0 ddd1dad3 2730010d 023d0c2c  ..d.....'0...=.,
 402059b0 04026dca 22a32c2a 2d01faf9 c000004c  ..m.".,*-......L
 402059c0 0432cc20 22a34c2a 2d391101 f6f9c000  .2. ".L*-9......
 402059d0 0021e6ff 322dca41 e4ff4971 32644d3d  .!..2-.A..Iq2dM=
 402059e0 0c2c0401 f0f9c000 00381121 55f94c04  .,.......8.!U.L.
 402059f0 d87101ec f9c00000 62dfff0c 0372dd01  .q......b....r..
 40205a00 0c122247 5e3246ba 41daff51 d7f9c020  .."G^2F.A..Q... 
 40205a10 000196ff e0def042 65fd520c 600a0d66  .......Be.R.`..f
 40205a20 152f0c64 c2cc6182 dfff2248 ec3d0c22  ./.d..a..."H.=."
 40205a30 408021d0 ff01dbf9 c0000032 a5312113  @.!........2.1!.
 40205a40 f90c643a 223d0c2a 2d01d6f9 c0000006  ..d:"=.*-.......
 40205a50 020042df ff3244ec 32408058 01661505  ..B..2D.2@.X.f..
 40205a60 21dafbc5 c3ffc831 d841e851 f8610821  !......1.A.Q.a.!
 40205a70 12c1200d f0000000 e090fe3f 12c1d0d9  .. ........?....
 40205a80 51f97109 31c941e9 61cd03ed 020597ff  Q.q.1.A.a.......
 40205a90 166e1002 c2fe1600 1016d20f 0c3245cd  .n...........2E.
 40205aa0 fe660216 3d0e2161 fb42a067 01bef9c0  .f..=.!a.B.g....
 40205ab0 0000218c fcc24282 46330001 9bffd200  ..!...B.F3......
 40205ac0 80c92116 5d0a0c0c 090172ce 6182ce20  ..!.].....r.a.. 
 40205ad0 89817911 3d0e2c04 22a32cf1 ecf802a0  ..y.=.,.".,.....
 40205ae0 64000cc1 0aff2a2f 01cefec0 00005662  d.....*/......Vb
 40205af0 0438814c 0422a34c 2a2f01c9 fec00000  .8.L.".L*/......
 40205b00 fc42320e 600c1066 1320c03c f021dff8  .B2.`..f. .<.!..
 40205b10 0c643a22 32a5313a 22381101 c1fec000  .d:"2.1:"8......
 40205b20 000c140c 00200483 c6ffff8c 90580152  ..... .......X.R
 40205b30 0581c060 74671550 1bccc0c0 74c79d93  ...`tg.P....t...
 40205b40 ac8d02a0 ff2148ff 0c0cf2a0 64f0fcc1  .....!H.....d...
 40205b50 faf2f20f 80079f0b 3d0c2d0e 4821c5e1  ........=.-.H!..
 40205b60 ff060900 1bccc0c0 74c79ddd c1c3ff32  ........t......2
 40205b70 0c00379d 040c0332 4c002d0e 4821c5df  ..7....2L.-.H!..
 40205b80 ffd20c00 1bddd24c 000c12c8 41d851e8  .......L....A.Q.
 40205b90 61f87108 3112c130 0df00c02 c6faff00  a.q.1..0........
 40205ba0 0c1312c1 f0090145 edff0801 12c1100d  .......E........
 40205bb0 f0000000 0c0312c1 f0090105 ecff0801  ................
 40205bc0 12c1100d f0000000 2167ff22 028032a0  ........!g."..2.
 40205bd0 ff371201 0df00c02 0df00000 a6122282  .7............".
 40205be0 a0ff92a0 c80c0651 20ff72a0 642077d1  .......Q .r.d w.
 40205bf0 5a77a205 802b6687 9a109a55 7735f246  Zw...+f....Uw5.F
 40205c00 00000c06 2796010c 020df00c 120df000  ....'...........
 40205c10 50b62240 12c1e009 21d941e9 51c931e1  P."@....!.A.Q.1.
 40205c20 42ffcd02 d20e8085 7dff2622 0d8ca2d7  B.......}.&"....
 40205c30 bc080156 f9020064 66100e0c 02c831d8  ...V...df.....1.
 40205c40 41e85108 2112c120 0df0d02d 20c5f8ff  A.Q.!.. ...- ...
 40205c50 1672fe01 05ffd2a0 64c0ddd1 d261010a  .r......d....a..
 40205c60 dd220d80 32a0ff37 12d021e9 ff3d0c01  ."..2..7..!..=..
 40205c70 89f8c000 00020e81 c7900286 1f002c04  ..............,.
 40205c80 0183f8c2 4e813138 ff390122 2d1f2263  ....N.18.9."-."c
 40205c90 4dd81121 36ff32a3 2c0add3a 3d0141f9  M..!6.2.,..:=.A.
 40205ca0 c0000021 a7f84c04 32a34c3a 3d013df9  ...!..L.2.L:=.=.
 40205cb0 c000000c 1ba2deff d8010c09 d2dd0192  ................
 40205cc0 4abbb24d 5e712aff 8128f9c0 20002129  J..M^q*..(.. .!)
 40205cd0 ff61e6fe c03cf052 a5317268 fd416bf8  .a...<.R.1rh.Ak.
 40205ce0 72deff5a 446a6362 06804a33 6247ed0c  r..ZDjcb..J3bG..
 40205cf0 64012cf9 c00000c5 1300450a 000c1286  d.,.......E.....
 40205d00 ceff0000 f217ff3f 12c1f002 61032261  .......?....a."a
 40205d10 00015ef8 32610108 40092145 6eff2622  ..^.2a..@.!En.&"
 40205d20 26ac3228 214119f9 9cc23204 64261317  &.2(!A....2.d&..
 40205d30 28013811 61f4ff0c 05525600 855a140c  (.8.a....RV..Z..
 40205d40 12083112 c1100df0 0c02c6fc ff000000  ..1.............
 40205d50 6c16ff3f 31ffff32 03800c14 f623014d  l..?1..2.....#.M
 40205d60 03402074 0df00000 12c1f0c9 110901cd  .@ t............
 40205d70 02c568ff f62c2126 221e9cb2 01f5ff22  ..h..,!&"......"
 40205d80 0080c712 082110fb c2408045 91ff0c12  .....!...@.E....
 40205d90 c8110801 12c1100d f00c0246 fcff0000  ...........F....
 40205da0 12c1f002 61010139 f8022004 02610005  ....a..9.. ..a..
 40205db0 65ff2622 5d16a205 280131f4 f8162205  e.&"]...(.1...".
 40205dc0 32036426 134c0c22 859afe26 024f012f  2.d&.L."...&.O./
 40205dd0 f848400c 022244b8 38402243 b902207d  .H@.."D.8@"C.. }
 40205de0 26003abc 70610bf2 31e0f8c0 20005223  &.:.pa..1... .R#
 40205df0 fd605510 5050f5c0 20003223 fd21f2fa  .`U.PP.. .2#.!..
 40205e00 30307466 15110cd7 37b71d0c 03c54114  00tf....7.....A.
 40205e10 8602000c 02060200 32a00005 411422a0  ........2...A.".
 40205e20 01022101 12c1100d f0054014 86fbff00  ..!.......@.....
 40205e30 00000000 12c1f0d2 6102c261 01d113f8  ........a..a....
 40205e40 0901c84d 855bff02 c2fe1610 0816e207  ...M.[..........
 40205e50 16bc0721 cef82202 64261272 0c124591  ...!..".d&.r..E.
 40205e60 fe26025d 784d0c04 4247b868 4d4246ba  .&.]xM..BG.hMBF.
 40205e70 584d319c fb4245b9 3203f7cc a381bcfe  XM1..BE.2.......
 40205e80 91baf8c0 20008269 fd45ad12 084da8b0  .... ..i.E...M..
 40205e90 8caa2d0d 0c030c04 c5531306 020022c0  ..-......S....".
 40205ea0 0401c2ec c00000b2 2d04b20b bb17eb11  ........-.......
 40205eb0 2d0c455f 010c020c 030c040c 050c0645  -.E_...........E
 40205ec0 940a0c12 c811d821 080112c1 100df00c  .......!........
 40205ed0 02c6fbff 12c1f009 1101ecf7 08400901  .............@..
 40205ee0 c551ff08 11262212 8cf22801 8cb221e7  .Q...&"...(...!.
 40205ef0 f7284222 02ba12c1 100df022 a0ff06fd  .(B"......."....
 40205f00 ff000000 8c722612 050c042d 040df031  .....r&....-...1
 40205f10 0efa0c14 22430406 fcff0000 210bfa22  ...."C......!.."
 40205f20 02040df0 12c1f009 01454dff 26120b26  .........EM.&..&
 40205f30 32081cf2 080112c1 100df001 d4f70220  2.............. 
 40205f40 04168001 32201e22 a01f8cc3 0c0285a9  ....2 ."........
 40205f50 0a802201 20283146 f6ff86f5 ff1cf246  ..". (1F.......F
 40205f60 f4ff0000 b82a0040 12c1e0c9 11f94109  .....*.@......A.
 40205f70 01d921e9 31dd02ed 03164204 1613040c  ..!.1.....B.....
 40205f80 640188f8 c000000c 0c0c2f2d 0d3d0e0c  d........./-.=..
 40205f90 64020e00 e05c11f0 00205000 30024d00  d....\... P.0.M.
 40205fa0 01f1ffc0 0000cc62 1bccc0c0 7466dcda  .......b....tf..
 40205fb0 0c12c811 d821e831 f8410801 12c1200d  .....!.1.A.... .
 40205fc0 f00c02c6 faff0000 5c14ff3f 6014ff3f  ........\..?`..?
 40205fd0 e488fe3f c412ff3f 0c1212c1 f03d0109  ...?...?.....=..
 40205fe0 2185a600 01aaf721 1ffe0220 a622021c  !......!... ."..
 40205ff0 26000532 a0ff3792 2421f3ff 2c4301d1  &..2..7.$!..,C..
 40206000 f7c00000 21f2ff31 f2ff4201 03520104  ....!..1..B..R..
 40206010 62010585 210141ef ff0ca332 64660c12  b...!.A....2df..
 40206020 082112c1 100df000 00000000 12c1d0d9  .!..............
 40206030 51e961f9 71c94109 31cd02cc 320c0286  Q.a.q.A.1...2...
 40206040 2f003921 661305d1 60fa0601 00856eff  /.9!f...`.....n.
 40206050 dd020c0f e2cd7402 0ec222a0 d4b65002  ......t..."...P.
 40206060 062b000b 3016730a 026c192a 4d498168  .+..0.s..l.*MI.h
 40206070 fe52a0b4 1b661686 0a720e40 82a0ff80  .R...f...r.@....
 40206080 77c016c7 095a0d2d 0c2c043d 000145f8  w....Z.-.,.=..E.
 40206090 c0000038 8122cc20 4c040142 f8c00000  ...8.". L..B....
 402060a0 08fe2c09 072902e6 1005f24c 60860000  ..,..).....L`...
 402060b0 024c6002 0ec10cea 073a01cc 000c1002  .L`......:......
 402060c0 4c61020e c3f62001 fd00b16a ecf24c68  La.... ....j..Lh
 402060d0 220ec40c 80273001 0d02024c 6902dd03  "....'0....Li...
 402060e0 02103638 21073b05 22a06307 320202a0  ..68!.;.".c.2...
 402060f0 64025c35 2613072d 0d0132f1 c000000c  d.\5&..-..2.....
 40206100 12c841d8 51e861f8 71083112 c1300df0  ..A.Q.a.q.1..0..
 40206110 f26c194c 032a2d29 81018af7 c0000006  .l.L.*-)........
 40206120 d3ff22a0 01103120 0592002c 4322a0b0  .."...1 ...,C"..
 40206130 2a2d0184 f7c00000 31a6ff42 01035201  *-......1..B..R.
 40206140 04620105 22a0b42a 2d299105 0e010891  .b.."..*-)......
 40206150 0ca339fe c6cbff00 0c1312c1 f00901c5  ..9.............
 40206160 ecff0801 12c1100d f0000000 0c0312c1  ................
 40206170 f0090185 ebff0801 12c1100d f0000000  ................
 40206180 1e90fe3f c114ff3f 40b80040 12c1e0e9  ...?...?@..@....
 40206190 51f96109 21c931d9 41cd02dd 030526ff  Q.a.!.1.A.....&.
 402061a0 8ccc2612 0a8c7201 f9f70200 64661004  ..&...r.....df..
 402061b0 0c020636 000c62d9 11855bfe 1b2256b2  ...6..b...[.."V.
 402061c0 0d3d0c21 99f942a0 6c01f6f7 c0000041  .=.!..B.l......A
 402061d0 ecff3811 32447646 2c00024d b0020c61  ..8.2DvF,..M...a
 402061e0 0ce50735 01cc000c 10024daf 020c68f6  ...5......M...h.
 402061f0 20017d00 724db172 0c690c80 7730010d   .}.rM.r.i..w0..
 40206200 07611cec 024db222 1c352736 0872a063  .a...M.".5'6.r.c
 40206210 27b70206 500022a0 6402a064 8145f732  '...P.".d..d.E.2
 40206220 a0640258 7f01f6eb c0000031 42f72020  .d.X.......1B.  
 40206230 f4302282 05690d42 2c19b624 34e02e20  .0"..i.B,..$4.. 
 40206240 01cefdc0 0000e6d2 28661f25 45d0fee0  ........(f.%E...
 40206250 2e203221 0061cbff 2c07421d 16521d15  . 2!.a..,.B..R..
 40206260 00441150 4420510a fa01c7ff c0000005  .D.PD Q.........
 40206270 d1fe5811 66150521 d4f94542 ff6103f7  ..X.f..!..EB.a..
 40206280 62260516 5600453b 0f052c0f 0c12c831  b&..V.E;..,....1
 40206290 d841e851 f8610821 12c1200d f03d0cf1  .A.Q.a.!.. ..=..
 402062a0 4bff2c04 2d0f01de fcc00000 e2cc2051  K.,.-......... Q
 402062b0 22f7f901 d2c5b216 120a022c 19f2a001  "..........,....
 402062c0 b62029e0 2e2001ac fdc00000 e6820246  . ).. .........F
 402062d0 b7ffe02e 2001a8fd c00000a6 d20e2d0e  .... .........-.
 402062e0 31a9ff2c 04c5771f 1b821628 ec920c00  1..,..w....(....
 402062f0 02a0ff07 990ba20c 01079a05 85cdff46  ...............F
 40206300 0b00020c 60cc902d 0c019bfd c0000020  ....`..-....... 
 40206310 00742c08 2c1bb730 010d0828 013d0c02  .t,.,..0...(.=..
 40206320 5d152c04 0000f502 5d16019e f7c00000  ].,.....].......
 40206330 3d0e4c04 2101f729 71019af7 c000000c  =.L.!..)q.......
 40206340 07724d8e 022c19e8 71f65004 0b405684  .rM..,..q.P..@V.
 40206350 e8724db0 46a1ff0d 02c6afff 2d053d0e  .rM.F.......-.=.
 40206360 4c0401af fcc00000 022c1956 e2f4620d  L........,.V..b.
 40206370 b067100f cc762620 39263036 2640330c  .g...v& 9&06&@3.
 40206380 0fc6ceff 620daf52 0c616795 20820db2  ....b..R.ag. ...
 40206390 720c6987 9717a20d b1920c68 a7990ef1  r.i........h....
 402063a0 e4f6b21c 35f21f7f f0bbc016 dbed0c0f  ....5...........
 402063b0 06c3ff0c 1fc6c1ff 0c1312c1 f00901c5  ................
 402063c0 dcff0801 12c1100d f0000000 0c0312c1  ................
 402063d0 f0090185 dbff0801 12c1100d f0000000  ................
 402063e0 12c1e0e9 412961f9 51c921d9 31091101  ....A)a.Q.!.1...
 402063f0 1dfdd1a6 f60200a0 d85d2b00 a620380c  .........]+.. 8.
 40206400 1cfd0239 01d0eca0 322e20ac 132d0f0c  ...9....2. ..-..
 40206410 640183fc c00000cc d2280132 2e202802  d........(.2. (.
 40206420 2263420c 12460400 010ffd02 00a02b00  "cB..F........+.
 40206430 1bccc0c0 74072ccc 0c02c821 d831e841  ....t.,....!.1.A
 40206440 f8510811 12c1200d f0000000 4c13ff3f  .Q.... .....L..?
 40206450 12c1e0d9 21e931f9 41c911c1 8cf60901  ....!.1.A.......
 40206460 c85cc5f9 fe16dc07 26127a16 7207d1f7  .\......&.z.r...
 40206470 ff0186f6 0c0251fb fc226062 7205a0d2  ......Q.."`br...
 40206480 60632b67 a6264f0c 1dc0eda0 422e20bc  `c+g.&O.....B. .
 40206490 94f22442 bc2f1c02 0144f7c0 0000322e  ..$B./...D....2.
 402064a0 20fd020c 644b2201 3ff7c000 0051edfc   ...dK".?....Q..
 402064b0 0c02422e 200175f6 42244232 2063290f  ..B. .u.B$B2 c).
 402064c0 493ff903 7205a0f2 60632b67 1bddd0d0  I?..r...`c+g....
 402064d0 74672db4 222062c8 11d821e8 31f84108  tg-." b...!.1.A.
 402064e0 0112c120 0df00c02 c6faff00 12c1f009  ... ............
 402064f0 01d921c9 11c165f6 d1d5ff22 2c629c12  ..!...e....",b..
 40206500 0802026c 62cc10d2 6c63012e f0c00000  ...lb...lc......
 40206510 c6f9ffc8 11d82108 0112c110 0df00000  ......!.........
 40206520 12c1f0c9 11c159f6 0901c85c 05edfebc  ......Y....\....
 40206530 6c261234 bc1251cb fc0c1052 05a00c02  l&.4..Q....R....
 40206540 2b55a625 181b32c0 40a04224 20303074  +U.%..2.@.B$ 00t
 40206550 1b000000 74402393 0795e946 00000c02  ....t@#....F....
 40206560 c8110801 12c1100d f00c0246 fcff0000  ...........F....
 40206570 f888fe3f 12c1e0c9 11f94109 01d921e9  ...?......A...!.
 40206580 31d142f6 ed02d85d 45e7fe0b f2165f09  1.B....]E....._.
 40206590 16220916 fd0801fd f6020064 0b001640  .".........d...@
 402065a0 08c22d1e 222d2022 6d1e22cd 30ccce31  ..-."- "m.".0..1
 402065b0 f0ff0c64 01fcf6c0 0000c602 00e03e20  ...d..........> 
 402065c0 42a00601 f8f6c000 00d02d20 32a0c00c  B.........- 2...
 402065d0 24850b11 01a4fcc2 6d1e0200 a00c1c2b  $.......m......+
 402065e0 00a62030 d0fca032 2f209cf3 8cde2d0e  .. 0...2/ ....-.
 402065f0 0c64010b fcc00000 cc92322f 202d0d10  .d........2/ -..
 40206600 1120c5db 140197fc 0200a02b 001bccc0  . .........+....
 40206610 c074072c ce0c12c8 11d821e8 31f84108  .t.,......!.1.A.
 40206620 0112c120 0df00c02 c6faff00 0014ff3f  ... ...........?
 40206630 21ffff22 22bc0df0 12c1f0c2 61020261  !.."".......a..a
 40206640 01cd0216 1209b642 02c62200 01d0f631  .......B.."....1
 40206650 0ef60200 643223cb 66100246 1e002713  ....d2#.f..F..'.
 40206660 6bc5d9fe 4109f629 01c264cb 22c4e805  k...A..)..d."...
 40206670 03ff51b7 fb520500 66150585 8e13c5fb  ..Q..R..f.......
 40206680 0ec02c20 85b81181 00f60c07 7268c762  .., ........rh.b
 40206690 d8fe663c 042d06c5 0b0f91ad fba80192  ..f<.-..........
 402066a0 0900cd0a 66192526 1a02663a 05058413  ....f.%&..f:....
 402066b0 c56eff26 2c02663c 0205e90e 661c0d01  .n.&,.f<....f...
 402066c0 f3f50220 04164000 28008550 190c12c8  ... ..@.(..P....
 402066d0 21081112 c1100df0 0c0246fc ff000000  !.........F.....
 402066e0 12c1f009 01b63204 0c020602 00202074  ......2......  t
 402066f0 c5760a22 a0010221 0012c110 80000000  .v."...!........
 40206700 12c1f002 61008584 0a022100 12c11080  ....a.....!.....
 40206710 00000000 a8601040 12c1f009 0101fdff  .....`.@........
 40206720 c0000022 02060801 12c1100d f0000000  ..."............
 40206730 12c1f009 010ce027 b0040c02 46040031  .......'....F..1
 40206740 d3f52022 903022a0 22c27885 9b1322a0  .. ".0".".x...".
 40206750 01022100 12c11080 00000000 00fef13f  ..!............?
 40206760 12c1f009 010189f6 3d020200 640c02cc  ........=...d...
 40206770 10c60f00 92a00141 f9ffc020 0082249b  .......A... ..$.
 40206780 908820c0 20008264 9b72a002 c0200062  .. . ..d.r... .b
 40206790 249b7066 20c02000 62649b52 a004c020  $.pf . .bd.R... 
 402067a0 0022249b 502220c0 20002264 9b0c0205  ."$.P" . ."d....
 402067b0 470d0c12 080112c1 100df000 9c581040  G............X.@
 402067c0 12c1f022 61000261 0145c3fe 0161fb02  ..."a..a.E...a..
 402067d0 00001640 06661261 0c14516c f6280162  ...@.f.a..Ql.(.b
 402067e0 05641652 0b0b3616 330b8564 ff01f3ff  .d.R..6.3..d....
 402067f0 c000007c e0c02000 71d9ffb2 279b00bb  ...|.. .q...'...
 40206800 10c02000 b2679b7c dac02000 92279ba0  .. ..g.|.. ..'..
 40206810 9910c020 0092679b 7cb8c020 0062279b  ... ..g.|.. .b'.
 40206820 806610c0 20006267 9b5158f6 0c144245  .f.. .bg.QX...BE
 40206830 64c57f0d 457d0dc6 15000c02 06150001  d...E}..........
 40206840 dfffc000 00c5910d c0200031 c4ff7223  ......... .1..r#
 40206850 9b82a001 807720c0 20007263 9b0c26c0  .....w . .rc..&.
 40206860 20005223 9b605520 c0200052 639b0c44   .R#.`U . .Rc..D
 40206870 c0200022 239b4022 20c02000 22639b0c  . ."#.@" . ."c..
 40206880 023131f6 85390da1 41f60c09 924a64c5  .11..9..A....Jd.
 40206890 770d0c12 081112c1 100df056 06fa2d04  w..........V..-.
 402068a0 06fcff00 3110f922 634a0df0 448ffe3f  ....1.."cJ..D..?
 402068b0 488ffe3f 4c8ffe3f 508ffe3f 548ffe3f  H..?L..?P..?T..?
 402068c0 588ffe3f 12c1f002 6100d261 02c26101  X..?....a..a..a.
 402068d0 dd02cd03 f62238bc 5385c200 16e20429  ....."8.S......)
 402068e0 31220231 0762462d 0cd8310c 444b3d01  1".1.bF-..1.DK=.
 402068f0 7aedc000 004b2c8b 3d0c4401 77edc000  z....K,.=.D.w...
 40206900 008b2ccb 3d0c4401 74edc000 00060400  ..,.=.D.t.......
 40206910 0c024603 00320002 66132929 0c291c29  ..F..2..f.)).).)
 40206920 2c0c12c8 11d82108 0112c110 0df00c02  ,.....!.........
 40206930 0186f756 edfd4200 03661432 290c291c  ...V..B..f.2).).
 40206940 292cc6f6 ff2d0c31 d9ff0c44 0163edc0  ),...-.1...D.c..
 40206950 00004b2c 31d7ff0c 44015fed c000008b  ..K,1...D._.....
 40206960 2c31d4ff 0c44015c edc00000 46ecff2d  ,1...D.\....F..-
 40206970 0c31d1ff 0c440158 edc00000 4b2c31cf  .1...D.X....K,1.
 40206980 ff0c4401 55edc000 008b2c31 cdff0c44  ..D.U.....,1...D
 40206990 0152edc0 0000c6e1 ff000000 12c1f002  .R..............
 402069a0 6100d261 02c26101 dd02cd03 9ca3f622  a..a..a........"
 402069b0 1805b500 0d022164 f7cc4d32 02032613  ......!d..M2..&.
 402069c0 08661d56 42020266 14500c02 061000d2  .f.VB..f.P......
 402069d0 210321b6 ffc03c20 42a00401 3fedc000  !.!...< B...?...
 402069e0 0021b3ff 4b3c0c44 013cedc0 000021b1  .!..K<.D.<....!.
 402069f0 ff8b3c0c 440138ed c000008c fd520d31  ..<.D.8......R.1
 40206a00 07650a2d 0d3d0c4b 4c8b5c05 08190c12  .e.-.=.KL.\.....
 40206a10 c811d821 080112c1 100df009 3156edfa  ...!........1V..
 40206a20 21a6ff3d 0c0c44dd 00012bed c0000021  !..=..D...+....!
 40206a30 a3ff4b3c 0c440128 edc00000 21a1ff8b  ..K<.D.(....!...
 40206a40 3c0c4401 25edc000 0086ebff 12c1f002  <.D.%...........
 40206a50 6100c261 01d26102 cd02dd03 f622189c  a..a..a......"..
 40206a60 5305aa00 0d02acd2 2d0d0c64 32c02b01  S.......-..d2.+.
 40206a70 cdf5c000 00460400 0c028603 002d0d31  .....F.......-.1
 40206a80 b3f50c64 01c8f5c0 00000c12 c811d821  ...d...........!
 40206a90 080112c1 100df056 2cfe2d0d 31abf50c  .......V,.-.1...
 40206aa0 6401c0f5 c00000c6 f7ff0000 12c1e0e2  d...............
 40206ab0 61030901 c911d921 cd03dd02 0594fe3d  a......!.......=
 40206ac0 02166c05 f62d532d 0d394185 a300ed02  ..l..-S-.9A.....
 40206ad0 084156fd 03262042 16f0033d 0cd19af5  .AV..& B...=....
 40206ae0 0c642d0d 01cffac0 00001602 072d0d3d  .d-..........-.=
 40206af0 0c0c6401 acf5c000 00161e06 3d0c22ce  ..d.........=.".
 40206b00 2b0c6401 a8f5c000 00854513 053e1305  +.d.......E..>..
 40206b10 29ff0612 00858efe 66120e0c 02c811d8  ).......f.......
 40206b20 21e83108 0112c120 0df0c03c 20d187f5  !.1.... ...< ...
 40206b30 42a0062d 0d01bafa c000009c f22d0d3d  B..-.........-.=
 40206b40 0c0c6401 98f5c000 009c1e3d 0c22ce2b  ..d........=.".+
 40206b50 0c640194 f5c00000 05ae0e05 9f0e0c12  .d..............
 40206b60 46eeff00 3513ff3f b1ffff0c 1a224b81  F...5..?....."K.
 40206b70 a24b82a2 4b8092ae cfc02000 88039088  .K..K..... .....
 40206b80 10c02000 89030c47 70741040 6014e077  .. ....Gpt.@`..w
 40206b90 11706620 c06611c0 20005803 605520c0  .pf .f.. .X.`U .
 40206ba0 20005903 0df00000 12c1f009 0101edff   .Y.............
 40206bb0 22008066 120d216d f70c0332 4080017b  "..f..!m...2@..{
 40206bc0 e9c00000 080112c1 100df000 4104f90b  ............A...
 40206bd0 620c150c 03603583 3244800d f0000000  b....`5.2D......
 40206be0 3141f822 633f0df0 70b62240 90b62240  1A."c?..p."@.."@
 40206bf0 d00d0040 12c1f009 01b6330f 21fbff0c  ...@......3.!...
 40206c00 3301a4f4 c000000c 02460400 9c549c35  3........F...T.5
 40206c10 32c31630 307401f6 ffc00000 0c120801  2..00t..........
 40206c20 12c1100d f021f1ff 019bf4c0 000046f5  .....!........F.
 40206c30 ff000000 20a10700 22a00031 feff12c1  .... ..."..1....
 40206c40 f0026100 854afd0c 1231faff 054afd21  ..a..J...1...J.!
 40206c50 04f582ae cf62a100 5125ebc0 2000a225  .....b..Q%.. ..%
 40206c60 8280aa10 c02000a2 6582c020 00922582  ..... ..e.. ..%.
 40206c70 609920c0 20009265 82c02000 72258480  `. . ..e.. .r%..
 40206c80 7710c020 00726584 c0200042 25846044  w.. .re.. .B%.`D
 40206c90 20c02000 4265840c 43c02000 02228a30   . .Be..C. ..".0
 40206ca0 0020c020 0002628a 080112c1 100df000  . . ..b.........
 40206cb0 22a00031 e0ff12c1 f0026100 0543fd0c  "..1......a..C..
 40206cc0 1231dcff 8542fd0c 4021e5f4 c0200002  .1...B..@!... ..
 40206cd0 628a0801 12c1100d f0000000 b488fe3f  b..............?
 40206ce0 21ffff0d f0000000 e4721040 5d0212c1  !........r.@]...
 40206cf0 f0293109 11280229 01669322 0ca301fa  .)1..(.).f."....
 40206d00 ffc00000 29210ca3 2801013d e9c00000  ....)!..(..=....
 40206d10 58310821 29052d00 081112c1 100df020  X1.!).-........ 
 40206d20 00342024 41c6faff 0c052cf8 68023c99  .4 $A.....,.h.<.
 40206d30 72060077 b8127739 0f5055a0 1b666902  r..w..w9.PU..fi.
 40206d40 70559052 c5d086f9 ff2d050d f0000000  pU.R.....-......
 40206d50 5485fe3f 12c1b0e9 b1f9c109 81d9a169  T..?...........i
 40206d60 71c99170 6604cd02 dd032d04 3d0741f8  q..pf.....-.=.A.
 40206d70 ff1c0708 14480470 93106040 932c0047  .....H.p..`@.,.G
 40206d80 63077ce6 60331070 93103961 3c0a1763  c.|.`3.p..9a<..c
 40206d90 0e9951d6 120f2020 602cd779 d1460100  ..Q...  `,.y.F..
 40206da0 99510c08 89d1cc62 0c1fa241 00061100  .Q.....b...A....
 40206db0 0c0fed01 59e149f1 29416695 220ca301  ....Y.I.)Af."...
 40206dc0 caffc000 00226110 0ca32841 010de9c0  ....."a...(A....
 40206dd0 00002c00 32211048 f158e13c 0a460100  ..,.2!.H.X.<.F..
 40206de0 20303420 24414a93 1bff9209 00924e00   04 $AJ.......N.
 40206df0 1bee56e2 fb58d11c 1e2871b8 61f022c0  ..V..X...(q.a.".
 40206e00 e78b1a38 d18c33a6 12010b22 4d020b22  ...8..3...."M.."
 40206e10 a6140ac7 3d02024c 001bcc46 fbff7851  ....=..L...F..xQ
 40206e20 8ca5c73d 060b226d 05624c00 1bccdca7  ...=.."m.bL.....
 40206e30 88613d00 80800480 3a939d02 0b22a619  .a=.....:...."..
 40206e40 0ac73d02 324c001b cc46fbff 1aef0bee  ..=.2L...F......
 40206e50 ad0f0bff a61a0dc7 3d05b20e 00b24c00  ........=.....L.
 40206e60 1bcc06fa ffed020b 22a61e0a c73d0202  ........"....=..
 40206e70 4c001bcc 46fbff08 81d8a1e8 b12d0cf8  L...F........-..
 40206e80 c1c89112 c1500df0 f8612cb3 276f0439  .....P...a,.'o.9
 40206e90 d146c4ff 0c060c88 807f1070 609369d1  .F.........p`.i.
 40206ea0 86c0ff00 70d8ff3f ad0712c1 d0f99109  ....p..?........
 40206eb0 51e981c9 61d971cd 02dd043a e24d060b  Q...a.q....:.M..
 40206ec0 ee27be01 7cfe620d 0029a19c d62c532c  .'..|.b..)...,S,
 40206ed0 b72cdb29 a1594149 3137161f c73e0262  .,.).YAI17...>.b
 40206ee0 4c001bcc 620d011b dd56c6fe 28a10c00  L...b....V..(...
 40206ef0 c7be02c6 3a00024c 00063a00 0c00620d  ....:..L..:...b.
 40206f00 011bddb7 960a1c09 90002000 007406fb  .......... ..t..
 40206f10 ff779607 0c4ff000 2086fbff 66c6070c  .w...O.. ...f...
 40206f20 82200020 c6f8ff2c 34479607 2c055000  . . ...,4G..,.P.
 40206f30 2086f5ff 3c088796 070c1990 002046f2   ...<........ F.
 40206f40 ff2cf267 b21d3c95 6735180c 0f67b22d  .,.g..<.g5...g.-
 40206f50 67352a1b ddf0ffa0 60ff90f2 cfd0620d  g5*.....`.....b.
 40206f60 0006faff 2ca22796 121bdd1c 854d0a4b  ....,.'......M.K
 40206f70 aaa7a502 865b0048 31865c00 7cff42a0  .....[.H1.\.|.B.
 40206f80 68471672 82a06c87 166c0c04 3096c016  hG.r..l..l..0...
 40206f90 890f5c82 27167652 c69d1695 0f82a064  ..\.'.vR.......d
 40206fa0 87165d92 a0699716 5722c691 16b21552  ..]..i..W".....R
 40206fb0 c6901695 1782c68d 16f81b92 a0759716  .............u..
 40206fc0 4722a078 27164e1b 0cc73e05 324c0062  G".x'.N...>.2L.b
 40206fd0 0d00cd00 16b6221b c0073e02 62400046  ......"...>.b@.F
 40206fe0 c0ff024e 000851d8 71e88120 2cc0f891  ...N..Q.q.. ,...
 40206ff0 c86112c1 300df04d 061bdd62 0d0086e2  .a..0..M...b....
 40207000 ff0c2220 00200000 740ca546 02004c02  .." . ..t..F..L.
 40207010 20002000 00741c05 62a06c67 940d1c88   . ..t..b.lg....
 40207020 4d0a4baa a7283848 31060f00 92a06897  M.K..(8H1.....h.
 40207030 94130091 041c824d 0a4baaa7 a2028633  .......M.K.....3
 40207040 00483186 34001c86 4d0a4baa a7260448  .H1.4...M.K..&.H
 40207050 31060500 1c884728 012c4a48 41060200  1.....G(.,JHA...
 40207060 1c894729 012c4a48 41a9014a 4a42d4ff  ..G).,JHA..JJB..
 40207070 42243f6d 0f2d0c3d 0e7d0085 cdffcd02  B$?m.-.=.}......
 40207080 a8012c53 2cdb2cb7 0696ffc7 be020694  ..,S,.,.........
 40207090 ff324c00 8692ff47 e0110bff a61f0cc7  .2L....G........
 402070a0 3e042c05 524c001b cc46fbff 1c864d0a  >.,.RL...F....M.
 402070b0 4baaa726 04083106 02001c88 4728012c  K..&..1.....G(.,
 402070c0 4a0841c7 3e0a0a9a 92d9ff92 293f924c  J.A.>.......)?.L
 402070d0 001bcc0b ffe61f02 0682ffc7 3ef22c00  ............>.,.
 402070e0 024c0086 faff1c82 4722012c 4a48414a  .L......G".,JHAJ
 402070f0 faf2dfff f22f3f62 0d00d6af 00f0f060  ...../?b.......`
 40207100 1c022000 20000074 869cff0c 85c6c1ff  .. . ..t........
 40207110 1c864726 012c4a48 414a4a42 d4ff4214  ..G&.,JHAJJB..B.
 40207120 7ea90100 84118080 31904893 c6d0ff4d  ~.......1.H....M
 40207130 0a1c854b aa660f09 0c8f0c12 20002000  ...K.f...... . .
 40207140 0074a725 064831a9 01860200 1c864726  .t.%.H1.......G&
 40207150 012c4a48 41a9016d 0f2d0c3d 0e58017d  .,JHA..m.-.=.X.}
 40207160 004a451c 0542d4ff 42243f85 beffcd02  .JE..B..B$?.....
 40207170 a8012c53 2cdb2cb7 065aff1c 864d0a4b  ..,S,.,..Z...M.K
 40207180 aaa72608 4831a901 09210603 0009211c  ..&.H1...!....!.
 40207190 88472801 2c4a4841 a9012801 9142ff4a  .G(.,JHA..(..B.J
 402071a0 2222d2ff 22223f20 29832911 01f3f9c0  ""..""? ).).....
 402071b0 0000a801 2c532cdb 48212cb7 47e4135d  ....,S,.H!,.G..]
 402071c0 0f0bff57 a20cc73e 042c0662 4c001bcc  ...W...>.,.bL...
 402071d0 c6faffa6 12150c04 08111b44 c73e0582  ...........D.>..
 402071e0 0000824c 001bcc1b 004792ed 9d0f0bff  ...L.....G......
 402071f0 97220246 3bffc73e 042c0002 4c001bcc  .".F;..>.,..L...
 40207200 06faff0b ddc636ff 9d0412c1 d0090159  ......6........Y
 40207210 714d0369 817cf399 616d0578 815d0985  qM.i.|..am.x.]..
 40207220 c8ff0801 12c1300d f0000000 12c1d079  ......0........y
 40207230 91698159 71093149 610c8042 c1104901  .i.Yq.1Ia..B..I.
 40207240 5d044911 09216d00 c5fbff08 3112c130  ].I..!m.....1..0
 40207250 0df00000 12c1f0c9 110901cd 020c0245  ...............E
 40207260 2a00080c 3d02dcb0 c81c8c82 08432d0c  *...=........C-.
 40207270 c0000086 0300222c 0401aaf5 c00000c0  ......",........
 40207280 2c20c5c1 18c22101 080112c1 100df000  , ....!.........
 40207290 12c1f0c9 110901cd 020c1285 2600080c  ............&...
 402072a0 3d02dcb0 c81c8c82 08432d0c c0000086  =........C-.....
 402072b0 0300222c 04019bf5 c00000c0 2c2005be  ..",........, ..
 402072c0 18c22101 080112c1 100df000 32a0b242  ..!.........2..B
 402072d0 a5dc0c65 52422a42 52143242 310c020d  ...eRB*BR.2B1...
 402072e0 f0000000 ecec2140 b06a2140 e490fe3f  ......!@.j!@...?
 402072f0 90722040 4cf02140 cc722040 0a80fe3f  .r @L.!@.r @...?
 40207300 d0b62240 f0b62240 20b72240 54722040  .."@.."@ ."@Tr @
 40207310 12c1c0e9 f139b1d9 e1c9d109 c1cd0208  .....9..........
 40207320 02dd04cc a03cc201 69ecc000 00ed0229  .....<..i......)
 40207330 0cc26e07 32210b41 ebff21eb ff52a077  ..n.2!.A..!..R.w
 40207340 62a06562 4e32524e 33226e06 495e22ce  b.ebN2RN3"n.I^".
 40207350 2b0c6401 94f3c000 00722c2c dc170506  +.d......r,,....
 40207360 fe0bb256 eb0d0c0d d981d991 d9a1463f  ...V..........F?
 40207370 0022c120 d03d200c 4401d7ea c0000022  .". .= .D......"
 40207380 c1244b3d 0c4401d4 eac00000 22c1288b  .$K=.D......".(.
 40207390 3d0c4401 d1eac000 002d0e32 c12042c1  =.D......-.2. B.
 402073a0 2452c128 456e185c 020148ec c000001c  $R.(En.\..H.....
 402073b0 d30ca501 ceff4d02 291021cd ff010cfe  ......M.).!.....
 402073c0 c000006d 0c71ccff 32c12042 c12421c9  ...m.q..2. B.$!.
 402073d0 ff52c128 29012d0e 85641831 c8ff3203  .R.().-..d.1..2.
 402073e0 00161305 2d0dc5d5 1521c5ff 01aaf2c0  ....-....!......
 402073f0 000021c4 ff720124 62012352 01224201  ..!..r.$b.#R."B.
 40207400 21320120 02012509 01d20126 d911c201  !2. ..%....&....
 40207410 27c921b2 0128b931 a20129a9 4192012a  '.!..(.1..).A..*
 40207420 99518201 2b896101 9bf2c000 0021b6ff  .Q..+.a......!..
 40207430 0199f2c0 000008c1 c8d12d0e d8e1e8f1  ..........-.....
 40207440 12c1400d f022c120 d03d2042 a00401a2  ..@..". .= B....
 40207450 eac00000 22c12432 cd040c44 019feac0  ....".$2...D....
 40207460 00008b3d 22c1280c 44019bea c000005c  ...=".(.D......\
 40207470 020116ec c000004d 021cc321 9cff0ca5  .......M...!....
 40207480 490221a2 ff01dafd c000006d 0c719aff  I.!........m.q..
 40207490 2d0e42c1 243197ff 52c12839 0132c120  -.B.$1..R.(9.2. 
 402074a0 055818c6 e3ff0000 12c1f0c2 610120c2  .X..........a. .
 402074b0 2022222c 026100dc 12280c85 5f18218b   "",.a...(.._.!.
 402074c0 ff280201 40ecc000 00c60700 318cff32  .(..@.......1..2
 402074d0 03008c43 101120c5 ce15222c 00455d18  ...C.. ...",.E].
 402074e0 2183ff22 22010137 ecc00000 222c008c  !..""..7....",..
 402074f0 820134ec c000000c 03390cc8 11080112  ..4......9......
 40207500 c1100df0 4162f2cc 622844dc 320c020d  ....Ab..b(D.2...
 40207510 f066120b 28548c22 28020df0 0c020df0  .f..(T."(.......
 40207520 0df02802 0df00000 ac134202 00ac041b  ..(.......B.....
 40207530 42303280 6d043794 042024c0 0df01b44  B02.m.7.. $....D
 40207540 0b545205 0056b5fe 2026c00d f02d030d  .TR..V.. &...-..
 40207550 f02d040d f0000000 4202009c 14303074  .-......B....00t
 40207560 3794040d f0371409 1b224202 005644ff  7....7..."B..VD.
 40207570 2d040df0 5202004d 020c0230 30742715  -...R..M...00t'.
 40207580 0e5053c0 50248342 c4015204 005605ff  .PS.P$.B..R..V..
 40207590 0df00000 12c1f0e9 01ed04c9 21d91109  ............!...
 402075a0 31cd0230 d32001f4 f8c00000 ac8e320d  1..0. ........2.
 402075b0 002a6c32 4600220d 009cb21b 5dea4d06  .*l2F.".....].M.
 402075c0 04000000 8205001b 66824600 7207001b  ........f.F.r...
 402075d0 558c377d 054795eb 08312d0c d811c821  U.7}.G...1-....!
 402075e0 e80112c1 100df000 12c1e0c9 61cd022d  ............a..-
 402075f0 03097132 610001e0 f8c00000 38014d02  ..q2a.......8.M.
 40207600 2d0c05f9 ff0871c8 6112c120 0df00000  -.....q.a.. ....
 40207610 f090fe3f 982a0040 12c1d0e9 81f97109  ...?.*.@......q.
 40207620 b1c9a1d9 914901ed 02fd03cc 62168406  .....I......b...
 40207630 e804168e 0616bf06 dd0e0c0c 46030000  ............F...
 40207640 00620d00 22050040 c0f42716 0e2d0f01  .b.."..@..'..-..
 40207650 caf8c000 00ca5f1b 4c273ce4 1bdd220d  ......_.L'<...".
 40207660 005652fd 2801c1ea ffd90228 0c8c4201  .VR.(......(..B.
 40207670 d5ebc000 00e0ddc0 3b3d22af fc202310  ........;=".. #.
 40207680 0193ebc0 00005d02 3d0e4d0d 590c01e1  ......].=.M.Y...
 40207690 ffc00000 280c0603 002801c6 01002d0e  ....(....(....-.
 402076a0 86000000 2d0f08b1 c8a1d891 e881f871  ....-..........q
 402076b0 12c1300d f0000000 ec90fe3f 12c1f0c9  ..0........?....
 402076c0 21c1fdff 0931c04c 20c5f4ff 0831290c  !....1.L ....1).
 402076d0 c82112c1 100df000 6d021c97 52060022  .!......m...R.."
 402076e0 c5bf27b7 16420300 22c4bf27 b7154025  ..'..B.."..'..@%
 402076f0 c0dc521b 661b3356 14fe0df0 52c52086  ..R.f.3V....R. .
 40207700 f8ff0000 42c420c6 f8ff0df0 12c1f009  ....B. .........
 40207710 31c921d9 11e90120 d2200197 f8c00000  1.!.... . ......
 40207720 4d024b32 7cc22023 10e2c401 0168ebc0  M.K2|. #.....h..
 40207730 0000cd02 8c823d0d 4d0e019a f2c00000  ......=.M.......
 40207740 08312d0c d811c821 e80112c1 100df000  .1-....!........
 40207750 1f008000 0489fe3f 12c1e0c9 610971cd  .......?....a.q.
 40207760 02220200 1c7752c2 f757b702 462a0061  ."...wR..W..F*.a
 40207770 f8ff5756 02c62900 46270057 d602c625  ..WV..).F'.W...%
 40207780 00c62600 26240526 9413c61a 00420c00  ..&.&$.&.....B..
 40207790 16840742 c4d00c02 b6244cc6 1b002cd4  ...B.....$L...,.
 402077a0 4792061b cc7cf746 03000c15 22c2d50c  G....|.F...."...
 402077b0 04204583 7d054acc 420c0016 d40442c4  . E.}.J.B.....B.
 402077c0 d00c960c 0247b605 86100047 36101bcc  .....G.....G6...
 402077d0 520c0020 22a04022 9042c5d0 56b5fe20  R.. ".@".B..V.. 
 402077e0 2782060a 00f62425 1bcc520c 00402290  '.....$%..R..@".
 402077f0 42c5d056 e5fe0605 0021d6ff 390101a5  B..V.....!..9...
 40207800 f1c00000 0c023801 86000000 2d04c903  ......8.....-...
 40207810 0871c861 12c1200d f05672f6 86fbff00  .q.a.. ..Vr.....
 40207820 1bcc220c 0052c2f7 5737ed06 d3ff0000  .."..R..W7......
 40207830 0000f0bf 0000f03f 9a999999 9999b93f  .......?.......?
 40207840 28731040 12c1c009 f1c9e1d9 d1e9c1f9  (s.@............
 40207850 b1420200 1c7672c4 f7392177 b6028638  .B...vr..9!w...8
 40207860 0051bbff 775502c6 37008635 000037d5  .Q..wU..7..5..7.
 40207870 02c63300 86340088 2131d4e8 290821d3  ..3..4..!1..).!.
 40207880 e8c63400 2cd33794 1a81d0e8 91e9ff1b  ..4.,.7.........
 40207890 22890199 110c0e61 cde871cc e8fd0246  "......a..q....F
 402078a0 22000000 42c4d50c 030c1581 c8e891e1  "...B...........
 402078b0 ff403583 89019911 3a22c6f5 ff2ce997  .@5.....:"...,..
 402078c0 18650c98 c7b81498 21480158 11f9092d  .e......!H.X...-
 402078d0 063d0701 d3e8c000 00c61e00 01d1e8c0  .=..............
 402078e0 00006d02 2d0c6931 394101d5 ffc00000  ..m.-.i19A......
 402078f0 68317841 4d025d03 2d063d07 01cbe8c0  h1xAM.].-.=.....
 40207900 00006d02 7d0341cc ff51ccff 28013811  ..m.}.A..Q..(.8.
 40207910 9c6e6931 794101c2 e8c00000 29013911  .ni1yA......).9.
 40207920 68317841 86000000 0c1e1bff 820f0041  h1xA...........A
 40207930 a7e851b2 e82d063d 07c2c8d0 56d8f706  ..Q..-.=....V...
 40207940 e1ff0000 56c4f306 cbff1b22 42020032  ....V......"B..2
 40207950 c4f73736 ee46c5ff 08f1c8e1 d8d1e8c1  ..76.F..........
 40207960 f8b112c1 400df000 3489fe3f f490fe3f  ....@...4..?...?
 40207970 12c1f0c9 21c1fdff 21fcff38 0c093101  ....!...!..8..1.
 40207980 45f1c000 0008312d 0cc82112 c1100df0  E.....1-..!.....
 40207990 12c1f009 3185a4fb 083112c1 100df000  ....1....1......
 402079a0 12c1f009 310572fb 083112c1 100df000  ....1.r..1......
 402079b0 12c1f009 3185e4fb 083112c1 100df000  ....1....1......
 402079c0 12c1f009 3105f1fb 083112c1 100df000  ....1....1......
 402079d0 12c1f009 31458efb 083112c1 100df000  ....1E...1......
 402079e0 12c1f009 318559fb 083112c1 100df000  ....1.Y..1......
 402079f0 12c1f009 31054bfb 083112c1 100df000  ....1.K..1......
 40207a00 12c1f009 31c5cafb 083112c1 100df000  ....1....1......
 40207a10 12c1f009 31c5fcfb 083112c1 100df000  ....1....1......
 40207a20 12c1f009 318545fb 083112c1 100df000  ....1.E..1......
 40207a30 12c1f009 31451bfc 083112c1 100df000  ....1E...1......
 40207a40 12c1f009 31050bfc 083112c1 100df000  ....1....1......
 40207a50 12c1f009 310575fb 083112c1 100df000  ....1.u..1......
 40207a60 12c1f009 31c5a7fb 083112c1 100df000  ....1....1......
 40207a70 12c1f009 3185b6fb 083112c1 100df000  ....1....1......
 40207a80 12c1f009 3185b3fb 083112c1 100df000  ....1....1......
 40207a90 8889fe3f a489fe3f 12c1f0c9 21026103  ...?...?....!.a.
 40207aa0 20c22022 02066612 1731f9ff 2104e945   . "..f..1..!..E
 40207ab0 2e000538 fe22a3e8 456ff945 26fd0602  ...8."..Eo.E&...
 40207ac0 0021fee8 31f4ffc5 2c00222c 0b01bdea  .!..1...,.",....
 40207ad0 c0000022 a000226c 0b2d0c01 baeac000  ...".."l.-......
 40207ae0 000831c8 2112c110 0df00000 5c85fe3f  ..1.!.......\..?
 40207af0 987a2040 c0d40100 bc89fe3f c889fe3f  .z @.......?...?
 40207b00 d489fe3f f88afe3f 148bfe3f 12c1d0d9  ...?...?...?....
 40207b10 913c820c 0d09b1c9 a1d941d9 51d96101  .<........A.Q.a.
 40207b20 a2f1c000 00cd0221 f1ff32c1 1c820200  .......!..2.....
 40207b30 72020162 02025202 030c442d 0cd9dc82  r..b..R...D-....
 40207b40 411c7241 1d62411e 52411f01 96f1c000  A.rA.bA.RA......
 40207b50 005c0332 5c0231e6 ff28bc39 cc31e5ff  .\.2\.1..(.9.1..
 40207b60 39acd792 0a22a400 0190f1c0 000029bc  9...."........).
 40207b70 4513fd56 5201d2c1 1031dfff d02d2042  E..VR....1...- B
 40207b80 a00a0188 f1c00000 46060000 10112085  ........F..... .
 40207b90 11fdd2c1 1066120c 31d9ff2d 0d0ca401  .....f..1..-....
 40207ba0 81f1c000 00320c03 520c0032 61005c03  .....2..R..2a.\.
 40207bb0 3911620c 01720c02 222c0b31 d1ffd04d  9.b..r..",.1...M
 40207bc0 208566ff 2d0cc52c 23ccb231 ceff21bb   .f.-..,#..1..!.
 40207bd0 e8051c00 46020000 21b9e831 cbff451b  ....F...!..1..E.
 40207be0 0002210b c2210ad2 210912c1 300df000  ..!..!..!...0...
 40207bf0 12c1e0f9 310971c9 61d951e9 41fd029c  ....1.q.a.Q.A...
 40207c00 d4dd03cd 04e2a000 280f320d 0048022d  ........(.2..H.-
 40207c10 0fc00400 0bcc2aee 1bdd56ac fe460000  ......*...V..F..
 40207c20 ed040871 2d0ec861 d851e841 f83112c1  ...q-..a.Q.A.1..
 40207c30 200df000 30501450 43c04804 d0551112   ...0P.PC.H..U..
 40207c40 c1f00005 40404091 c921d911 e9010931  ....@@@..!.....1
 40207c50 40d074ed 02c2c301 ac8dd2a0 00280e40  @.t..........(.@
 40207c60 30744802 2d0ec004 00c03014 304cc048  0tH.-.....0.0L.H
 40207c70 04d03311 00034040 40914030 742add1b  ..3...@@@.@0t*..
 40207c80 cc5683fd 08312d0d c821d811 e80112c1  .V...1-..!......
 40207c90 100df000 58024d03 12c1f058 15380348  ....X.M....X.8.H
 40207ca0 240931c0 05000831 12c1100d f0000000  $.1....1........
 40207cb0 12c1e0c9 610971cd 020c0227 13162d03  ....a.q....'..-.
 40207cc0 390101dd ebc00000 580c3801 58154d02  9.......X.8.X.M.
 40207cd0 2d0cc005 000871c8 6112c120 0df00000  -.....q.a.. ....
 40207ce0 480212c1 f0480402 61033030 74c00400  H....H..a.00t...
 40207cf0 083112c1 100df000 908bfe3f 12c1f009  .1.........?....
 40207d00 31c921d9 11cd02c5 f2ffdd02 280c31fa  1.!.........(.1.
 40207d10 ff58120c 242d0cc0 05000831 da22c821  .X..$-.....1.".!
 40207d20 d81112c1 100df000 480312c1 f05d0248  ........H....].H
 40207d30 0409312d 033d05c0 04000831 12c1100d  ..1-.=.....1....
 40207d40 f0000000 480212c1 f0581431 ebff0931  ....H....X.1...1
 40207d50 0c24c005 00083112 c1100df0 12c1f058  .$....1........X
 40207d60 02c921cd 022d0348 22380358 150931d9  ..!..-.H"8.X..1.
 40207d70 112d0cc0 0500dd02 280c31df ff58120c  .-......(.1..X..
 40207d80 242d0cc0 05000831 da22c821 d81112c1  $-.....1.".!....
 40207d90 100df000 12c1e0c9 61d95109 710c0dcd  ........a.Q.q...
 40207da0 02d71319 2d033901 01a4ebc0 0000580c  ....-.9.......X.
 40207db0 38015815 2042202d 0cc00500 dd02280c  8.X. B -......(.
 40207dc0 31ceff58 120c242d 0cc00500 0871da22  1..X..$-.....q."
 40207dd0 c861d851 12c1200d f0000000 12c1f0c9  .a.Q.. .........
 40207de0 21cd0228 02093148 02d91130 3074c02c  !..(..1H...00t.,
 40207df0 20c00400 dd02280c 31c0ff58 120c242d   .....(.1..X..$-
 40207e00 0cc00500 0831da22 c821d811 12c1100d  .....1.".!......
 40207e10 f0000000 4d033803 12c1f058 030931c9  ....M.8....X..1.
 40207e20 21d911cd 023d022d 04c00500 dd02280c  !....=.-......(.
 40207e30 31b2ff58 120c242d 0cc00500 0831da22  1..X..$-.....1."
 40207e40 c821d811 12c1100d f0000000 12c1a0c2  .!..............
 40207e50 611640c0 740c04d2 6115e261 14026117  a.@.t...a..a..a.
 40207e60 f2611342 412029c1 ed03dd0c f62c040c  .a.BA )......,..
 40207e70 add0cd20 f2c1203d 0d2d0e01 e1e4c000  ... .. =.-......
 40207e80 00c032c1 0c95304e c0404074 32c4370b  ..2...0N.@@t2.7.
 40207e90 ff62c430 30307447 35026030 74324f00  .b.000tG5.`0t2O.
 40207ea0 8c52ed02 c6f3ff00 002d0f01 63ebc000  .R.......-..c...
 40207eb0 0058c14d 0238052d 0568133d 0fc00600  .X.M.8.-.h.=....
 40207ec0 022117c2 2116d221 15e22114 f2211312  .!..!..!..!..!..
 40207ed0 c1600df0 12c1e0c9 61d95109 71e941cd  .`......a.Q.q.A.
 40207ee0 02dd03cc e4380242 2300d030 74c00400  .....8.B#..0t...
 40207ef0 860c0000 00669427 d6d30128 022cd358  .....f.'...(.,.X
 40207f00 0249012d 0cc00500 4801ed02 d030602d  .I.-....H....0`-
 40207f10 0c85f3ff ea220603 0005f3ff 86010000  ....."..........
 40207f20 40407485 f2ff0871 c861d851 e84112c1  @@t....q.a.Q.A..
 40207f30 200df000 12c1f009 3185f9ff 083112c1   .......1....1..
 40207f40 100df000 12c1f009 31c921d9 11cd0245  ........1.!....E
 40207f50 f8ffdd02 280c3168 ff58120c 242d0cc0  ....(.1h.X..$-..
 40207f60 05000831 da22c821 d81112c1 100df000  ...1.".!........
 40207f70 12c1f009 31c921d9 11cd0285 f5ffdd02  ....1.!.........
 40207f80 280c315d ff58120c 242d0cc0 05000831  (.1].X..$-.....1
 40207f90 da22c821 d81112c1 100df000 12c1f009  .".!............
 40207fa0 31ccb448 02303074 4804c004 00460100  1..H.00tH....F..
 40207fb0 40407485 e9ff0831 12c1100d f0000000  @@t....1........
 40207fc0 12c1f030 30740261 0305fdff 083112c1  ...00t.a.....1..
 40207fd0 100df000 12c1f030 30740931 c921d911  .......00t.1.!..
 40207fe0 cd0285fb ffdd0228 0c3143ff 58120c24  .......(.1C.X..$
 40207ff0 2d0cc005 000831da 22c821d8 1112c110  -.....1.".!.....
 40208000 0df00000 12c1f009 3105f9ff 083112c1  ........1....1..
 40208010 100df000 12c1f009 31c921d9 11cd02c5  ........1.!.....
 40208020 f7ffdd02 280c3134 ff58120c 242d0cc0  ....(.14.X..$-..
 40208030 05000831 da22c821 d81112c1 100df000  ...1.".!........
 40208040 12c1f009 31c921d9 11cd0205 f5ffdd02  ....1.!.........
 40208050 280c3129 ff58120c 242d0cc0 05000831  (.1).X..$-.....1
 40208060 da22c821 d81112c1 100df000 948bfe3f  .".!...........?
 40208070 988bfe3f 9c8bfe3f a08bfe3f 12c1d0c2  ...?...?...?....
 40208080 610a5035 2020c220 2d04d991 e98109b1  a.P5  . -.......
 40208090 f9714901 ed0560d0 7445d4fa dc22280c  .qI...`.tE..."(.
 402080a0 31f3ff58 120c342d 0cc00500 06640000  1..X..4-.....d..
 402080b0 00002221 00e03e20 45d2fa66 1212222c  .."!..> E..f..",
 402080c0 0031ebff 58120c34 2d0cc005 00c65b00  .1..X..4-.....[.
 402080d0 00280141 c5e651c5 e63d0e01 cee6c000  .(.A..Q..=......
 402080e0 00e61213 280141c0 e651c1e6 e03e2001  ....(.A..Q...> .
 402080f0 cae6c000 00d62201 280c31de ff581242  ......".(.1..X.B
 40208100 a003c02c 20c00500 064d0028 0141afe6  ..., ....M.(.A..
 40208110 51afe6e0 3e2001c0 e6c00000 d6520138  Q...> .......R.8
 40208120 0c2d0c48 032cd3c0 04002911 21b3e620  .-.H.,....).!.. 
 40208130 ee30c600 000c0229 1116fd0d 21a4e631  .0.....)....!..1
 40208140 a4e60c0f 41a2e651 ade601b4 e6c00000  ....A..Q........
 40208150 1b8f80f0 74d79feb c6150000 51a8e641  ....t.......Q..A
 40208160 9be62d06 3d0701ae e6c00000 7d036d02  ..-.=.......}.m.
 40208170 69217931 01ace6c0 0000fd02 0ca43d0f  i!y1..........=.
 40208180 c02c2005 d5ff2add 2d0f01ad fdc00000  ., ...*.-.......
 40208190 68217831 4d025d03 2d063d07 01a6e6c0  h!x1M.].-.=.....
 402081a0 00000b8e 80e0746d 027d0356 defa2d0d  ......tm.}.V..-.
 402081b0 06230068 014d025d 03602620 3d0e019a  .#.h.M.].`& =...
 402081c0 e6c00000 6d027d03 69217931 0198e6c0  ....m.}.i!y1....
 402081d0 0000dd02 0197e6c0 00006821 78315d03  ..........h!x1].
 402081e0 4d023d07 2d060193 e6c00000 6d027d03  M.=.-.......m.}.
 402081f0 0ca43d0d 2d0c6921 793105c5 ffdd0228  ..=.-.i!y1.....(
 40208200 0c319dff 58120c14 2d0cc005 0038112a  .1..X...-....8.*
 40208210 2d3ad2ed 0f682178 31c6cfff 416ce651  -:...h!x1...Al.Q
 40208220 6ce62801 3d0e0180 e6c00000 0180e6c0  l.(.=...........
 40208230 00003d02 0ca4c02c 2005c1ff 38113a22  ..=...., ...8.:"
 40208240 08b1c8a1 d891e881 f87112c1 300df000  .........q..0...
 40208250 12c1f060 60740261 0305e2ff 083112c1  ...``t.a.....1..
 40208260 100df000 12c1f060 60740931 c921d911  .......``t.1.!..
 40208270 cd0285e0 ffdd0228 0c319ffe 58120c24  .......(.1..X..$
 40208280 2d0cc005 000831da 22c821d8 1112c110  -.....1.".!.....
 40208290 0df00000 9ca2fe3f 12c1f009 0101fdff  .......?........
 402082a0 08008042 01080040 2831c000 00080112  ...B...@(1......
 402082b0 c1100df0 12c1f009 0101f6ff 08000860  ...............`
 402082c0 c0000008 0112c110 0df00000 12c1f0c9  ................
 402082d0 110901cd 0301efff 80320108 00302831  .........2...0(1
 402082e0 08003d0c c0000001 ebff0800 08602d0c  ..=..........`-.
 402082f0 c00000c8 11080112 c1100df0 12c1f009  ................
 40208300 0101e4ff 08008032 01082030 2831c000  .......2.. 0(1..
 40208310 00080112 c1100df0 12c1f009 0101ddff  ................
 40208320 08000830 c0000008 0112c110 0df00000  ...0............
 40208330 12c1f009 0101d7ff 08000840 c0000008  ...........@....
 40208340 0112c110 0df00000 12c1f009 0101d1ff  ................
 40208350 08000850 c0000008 0112c110 0df00000  ...P............
 40208360 12c1f009 0101cbff 08000860 c0000008  ...........`....
 40208370 0112c110 0df00000 12c1f009 0101c5ff  ................
 40208380 08000870 c0000008 0112c110 0df00000  ...p............
 40208390 a0a2fe3f 0c2312c1 e0c931d9 41d1fcff  ...?.#....1.A...
 402083a0 0921080d cd020220 2c0c32c0 00000c13  .!..... ,.2.....
 402083b0 080d2901 02202c0c 22c00000 0c13c049  ..).. ,."......I
 402083c0 04080dc0 5804c066 042911c0 77040c32  ....X..f.)..w..2
 402083d0 e07711d0 6611f055 1102202b 50442070  .w..f..U.. +PD p
 402083e0 6620c053 04c07404 a05511b0 77117055  f .S..t..U..w.pU
 402083f0 20c07504 c0771170 55206055 20504420   .u..w.pU `U PD 
 40208400 4040f4c0 00000c32 0c23080d 480152a1  @@.....2.#..H.R.
 40208410 c7504410 02202bc0 5024d055 11504420  .PD.. +.P$.U.PD 
 40208420 4040f4c0 00000c22 0c13080d 481152a1  @@....."....H.R.
 40208430 85504410 02202bc0 5b34d055 11504420  .PD.. +.[4.U.PD 
 40208440 c05a04f0 55115044 204040f4 c00000c8  .Z..U.PD @@.....
 40208450 31d84108 2112c120 0df00000 00000008  1.A.!.. ........
 40208460 009a0060 00000040 12c1e0d9 21e93109  ...`...@....!.1.
 40208470 01c911f9 414d00f1 d4f2c12e f0c02000  ....AM........ .
 40208480 222ce507 e241c020 00522f9c 176538d1  ",...A. .R/..e8.
 40208490 c0ff080d 02201dc0 00000c52 016ee3c0  ..... .....R.n..
 402084a0 0000e2a1 84080d0c 2202202c 0c13c000  ........". ,....
 402084b0 00e7c2f0 080d0c32 02202c0c 23c00000  .......2. ,.#...
 402084c0 0c633022 106662dc 91e5ff81 e5ffc020  .c0".fb........ 
 402084d0 00722842 907720c0 20007268 42c02000  .r(B.w . .rhB. .
 402084e0 522ce50c 16605520 c0200052 6ce5c020  R,...`U . .Rl.. 
 402084f0 00422f9c 01dcff17 6411c020 00a22ce8  .B/.....d.. ..,.
 40208500 e7fa08c0 2000b22c e8070bf6 c811d821  .... ..,.......!
 40208510 e831f841 080112c1 200df000 0c1342a0  .1.A.... .....B.
 40208520 8112c1f0 c911d921 d19aff09 01080dcd  .......!........
 40208530 0202202b 0c22c000 000c7208 0d0c1302  .. +."....r.....
 40208540 202bc045 41c00000 c0404408 0d0c0202   +.EA....@D.....
 40208550 202b0c13 c000000c 12080d0c 1302202b   +............ +
 40208560 42a07fc0 00000c62 080d0c13 02202b42  B......b..... +B
 40208570 a07fc000 00c811d8 21080112 c1100df0  ........!.......
 40208580 0000f000 ffff0fff 12c1e029 11392109  ...........).9!.
 40208590 41493141 fbff017e ff31e6ef c0200022  AI1A...~.1... ."
 402085a0 23f24022 20c02000 08000220 372263f2  #.@" . .... 7"c.
 402085b0 c0000028 21381148 315d0185 79000174  ...(!8.H1]..y..t
 402085c0 ff080002 20382d01 c0000001 71ff0800  .... 8-.....q...
 402085d0 022036c0 0000056f 0041eaff c0200031  . 6....o.A... .1
 402085e0 d5ef2223 f2402210 c0200022 63f20841  .."#.@".. ."c..A
 402085f0 12c1200d f0000000 0c130c54 0c750c06  .. ........T.u..
 40208600 12c1e0d9 21f941c9 11e931e1 61ff0901  ....!.A...1.a...
 40208610 080ecd02 02202522 a062c000 000c0dfd  ..... %".b......
 40208620 0232aeac 20229030 22b032a0 e301d8e4  .2.. ".0".2.....
 40208630 c0000000 52110cf4 0d045050 312d0d50  ....R.....PP1-.P
 40208640 25b3e6b2 010d0232 a0cff02f 90f022f0  %......2.../..".
 40208650 22c21d00 f011f0f0 3101cde4 c0000098  ".......1.......
 40208660 0e004211 0cf30d03 40403192 292740d4  ..B.....@@1.)'@.
 40208670 b3e6bd01 0d0d00d0 11d0d031 b63c1c0c  ...........1.<..
 40208680 82a68f01 7c820c03 0c440c35 0c062a7f  ....|....D.5..*.
 40208690 70707422 a064c009 00060400 f0707422  ppt".d.......pt"
 402086a0 a0640c03 0c440c35 0c06c009 00980e0c  .d...D.5........
 402086b0 80922927 b62c1aa6 8d017c80 22a0640c  ..)'.,....|.".d.
 402086c0 030c740c 350c060a 7d707074 c0090006  ..t.5...}ppt....
 402086d0 0400d070 7422a064 0c030c74 0c350c06  ...pt".d...t.5..
 402086e0 c0090098 0e922927 ac6c22a0 610c130c  ......)'.l".a...
 402086f0 540c350c 260c37c0 090022a0 610c130c  T.5.&.7...".a...
 40208700 540c1508 0e0c0602 20270c37 c0000006  T....... '.7....
 40208710 090022a0 610c130c 540c350c 260c07c0  ..".a...T.5.&...
 40208720 090022a0 610c130c 540c1508 0e0c0602  ..".a...T.......
 40208730 20270c07 c00000c8 11d821e8 31f84108   '........!.1.A.
 40208740 0112c120 0df00000 22a06112 c1f00901  ... ....".a.....
 40208750 0110ff0c 1308000c 84022026 1c15c000  .......... &....
 40208760 000c0245 e9ff0801 12c1100d f0000000  ...E............
 40208770 000a0060 00002000 12c1f009 0172afdf  ...`.. ......r..
 40208780 21fcffc0 20006222 d4706610 c0200062  !... .b".pf.. .b
 40208790 62d451f8 ffc02000 4222d750 4420c020  b.Q... .B".PD . 
 402087a0 004262d7 318ce9c0 20000222 d7300010  .Bb.1... ..".0..
 402087b0 c0200002 62d722a0 c801a6e2 c0000022  . ..b."........"
 402087c0 a06c0c23 0c0401f2 fe0c6508 000c6602  .l.#......e...f.
 402087d0 20270c07 c0000022 a06c0c23 0c0401ec   '.....".l.#....
 402087e0 fe0c6508 000c6602 20270c17 c000002c  ..e...f. '.....,
 402087f0 04c02000 31dfff22 23d44022 20c02000  .. .1.."#.@" . .
 40208800 0c240c75 01e3fe0c 06080022 63d422a0  .$.u......."c.".
 40208810 6c022025 0c23c000 00080112 c1100df0  l. %.#..........
 40208820 00008000 ffffdfff 12c1d0d2 6107d1d8  ............a...
 40208830 fe026105 022d00c9 61022028 e981c000  ..a..-..a. (....
 40208840 00080d0c 6202202c 0c13c000 000c230c  ....b. ,......#.
 40208850 940c250c 06080ded 02022025 22a06bc0  ..%....... %".k.
 40208860 00000c23 0c040c55 0c56080d 29410220  ...#...U.V..)A. 
 40208870 2522a06c c000000c 13080dcd 020c240c  %".l..........$.
 40208880 62404e20 02202b40 40f4c000 0022a06b  b@N . +@@....".k
 40208890 0c230c94 0c750c76 080d0c17 022027c9  .#...u.v..... '.
 402088a0 91c00000 22a06b0c 230c940c 25080d0c  ....".k.#...%...
 402088b0 06022027 0c07c000 000c2c22 a06c0c23  .. '......,".l.#
 402088c0 0c040c55 080d0c56 0220270c 17c00000  ...U...V. '.....
 402088d0 91d4ff31 a7ffc020 008223d7 908820c0  ...1... ..#... .
 402088e0 20008263 d771cfff c0200062 23d77066   ..c.q... .b#.pf
 402088f0 10c02000 6263d77c d5c02000 4223d450  .. .bc.|.. .B#.P
 40208900 4410c020 004263d4 c0200022 23d4c022  D.. .Bc.. ."#.."
 40208910 20c02000 2263d41c 92014ee2 c000002d   . ."c....N....-
 40208920 01850506 0c000c0c 2d011b40 20309032  ........-..@ 0.2
 40208930 13004000 74cac3c0 c0f46680 ece040f4  ..@.t.....f...@.
 40208940 080d0c62 02202b0c 13c00000 22a06b0c  ...b. +.....".k.
 40208950 230c940c 75080d0c 76022027 0c07c000  #...u...v. '....
 40208960 00e89122 a06b0c23 0c940c25 0c06080d  ...".k.#...%....
 40208970 78410220 27707074 c00000e0 707422a0  xA. 'ppt....pt".
 40208980 6c0c230c 04080d0c 55022027 0c56c000  l.#.....U. '.V..
 40208990 00080d02 202fc000 000851d8 71602c11  .... /....Q.q`,.
 402089a0 e881c861 22d20820 2cf412c1 300df000  ...a".. ,...0...
 402089b0 94a4fe3f 330d0000 b0a2fe3f 32a0ff12  ...?3......?2...
 402089c0 c1e0c921 d931e941 e1faff09 11020e6c  ...!.1.A.......l
 402089d0 29013790 0705e5ff dd020606 001c1507  ).7.............
 402089e0 b5102c46 07360bd2 a066d0d0 d1d0d0f4  ..,F.6...f......
 402089f0 860000d1 f0ff01ef ff0c0c07 3d02060b  ............=...
 40208a00 00c163fe 080c2d0d 08e00c33 c000000c  ..c...-....3....
 40208a10 33080ccd 0208e021 e7ffc000 0020ccc0  3......!..... ..
 40208a20 f0cc1100 cc11c0c0 312bccc0 c22185d4  ........1+...!..
 40208a30 ff0c0038 0151e0ff cac300cc 11c0c031  ...8.Q.........1
 40208a40 5a601b70 ea404204 24700074 4a4c4246  Z`.p.@B.$p.tJLBF
 40208a50 326660eb e84102af 81007d11 806211d8  2f`..A....}..b..
 40208a60 312d0c7a 66072c01 0d0c0070 74c82108  1-.zf.,....pt.!.
 40208a70 117a6662 651512c1 200df000 12c1f009  .zfbe... .......
 40208a80 01c911d9 21cd020c 0d161d04 261d2066  ....!.......&. f
 40208a90 2d5622a0 6b0c230c 240c6501 3dfe0c46  -V".k.#.$.e.=..F
 40208aa0 0800da7c 02202772 0700c000 00060e00  ...|. 'r........
 40208ab0 22a06b0c 230c240c 350135fe 0c060800  ".k.#.$.5.5.....
 40208ac0 da7c0220 27720700 c0000086 060022a0  .|. 'r........".
 40208ad0 6b0c230c 140c3501 2efe0c06 0800da7c  k.#...5........|
 40208ae0 02202772 0700c000 001bddd0 d074663d  . 'r.........tf=
 40208af0 97c811d8 21080112 c1100df0 12c1e009  ....!...........
 40208b00 113901c9 21d931e9 41dd02ed 04c120fe  .9..!.1.A..... .
 40208b10 16220f22 a0770c03 1cc40c05 080c0c06  .".".w..........
 40208b20 0220270c 07c00000 22a0770c 031ca40c  . '.....".w.....
 40208b30 45080c0c 46022027 0c07c000 0022a077  E...F. '.....".w
 40208b40 0c031ca4 0c45080c 0c460220 270c17c0  .....E...F. '...
 40208b50 000022a0 770c031c a40c5508 0c0c5602  ..".w.....U...V.
 40208b60 20270c07 c0000022 a0770c03 1ca40c55   '.....".w.....U
 40208b70 080c0c56 0220270c 17c00000 22a0770c  ...V. '.....".w.
 40208b80 030c040c 750c0608 0c780102 2027707c  ....u....x.. 'p|
 40208b90 74c00000 22a0770c 030c140c 750c0608  t...".w.....u...
 40208ba0 0c780102 20277074 74c00000 22a0770c  .x.. 'ptt...".w.
 40208bb0 030c240c 350c0608 0c780102 20277070  ..$.5....x.. 'pp
 40208bc0 34c00000 22a0770c 030c440c 75080c0c  4...".w...D.u...
 40208bd0 06022027 e07074c0 000022a0 770c030c  .. '.pt...".w...
 40208be0 340c7508 0c0c0602 2027e078 74c00000  4.u..... '.xt...
 40208bf0 e0703522 a0770c03 0c24080c 0c750220  .p5".w...$...u. 
 40208c00 270c46c0 00000cf4 0c350c36 d030040c  '.F......5.6.0..
 40208c10 12080c0c 0e022027 30e2837d 0e22a077  ...... '0..}.".w
 40208c20 0c03c000 007d0e22 a0770c03 1c84080c  .....}.".w......
 40208c30 0c050220 270c06c0 00007d0d 22a0770c  ... '.....}.".w.
 40208c40 031cc408 0c0c0502 20270c06 c00000c8  ........ '......
 40208c50 21d831e8 41081112 c1200df0 22a0620c  !.1.A.... ..".b.
 40208c60 130c040c 6512c1f0 c911c1c9 fd090108  ....e...........
 40208c70 0c0c6602 20270c17 c0000022 a0620c13  ..f. '.....".b..
 40208c80 0c040c55 080c0c56 0220270c 07c00000  ...U...V. '.....
 40208c90 22a0620c 130c040c 55080c0c 56022027  ".b.....U...V. '
 40208ca0 0c17c000 0022a062 0c130c04 0c65080c  .....".b.....e..
 40208cb0 0c660220 270c07c0 0000c811 080112c1  .f. '...........
 40208cc0 100df000 30b72240 12c1e009 01d921e9  ....0."@......!.
 40208cd0 31c911f9 410c0cf2 a063e2a0 64d1acfd  1...A....c..d...
 40208ce0 1c42015c e1c00000 22a0620c 130c7408  .B.\....".b...t.
 40208cf0 0d0c7502 20250c76 c00000dc 22f79c08  ..u. %.v...."...
 40208d00 21f1ff01 64ecc000 001bccc0 c074e79c  !...d........t..
 40208d10 cec811d8 21e831f8 41080112 c1200df0  ....!.1.A.... ..
 40208d20 00002042 0000c041 0000d041 00008043  .. B...A...A...C
 40208d30 00000840 00008044 000000c2 98681040  ...@...D.....h.@
 40208d40 fc691040 3c661040 f86a1040 b8741040  .i.@<f.@.j.@.t.@
 40208d50 24671040 12c1e0d9 310911c9 21e941cd  $g.@....1...!.A.
 40208d60 05e1efff 8cd32613 08662308 e1eeff86  ......&..f#.....
 40208d70 0000e1ed ffd1edff 6022112a 24e02211  ........`".*$.".
 40208d80 01ace3c0 000051ea ff0c0401 a4e3c000  ......Q.........
 40208d90 0001fee7 c0000029 0131e6ff 2d0e01e7  .......).1..-...
 40208da0 ffc00000 3d022801 01e6ffc0 000031e2  ....=.(.......1.
 40208db0 ff01e4ff c00000ed 0201e3ff c0000022  ..............."
 40208dc0 4c002020 7401e1ff c000003d 022d0e01  L.  t......=.-..
 40208dd0 e0ffc000 003d0d01 d9ffc000 00ed0201  .....=..........
 40208de0 daffc000 00224c01 20207401 d8ffc000  ....."L.  t.....
 40208df0 003d022d 0e01d6ff c000003d 0d01cfff  .=.-.......=....
 40208e00 c0000001 d1ffc000 000811d8 31224c02  ............1"L.
 40208e10 e841c821 12c1200d f0000000 bd8e2040  .A.!.. ....... @
 40208e20 b4090000 1b8f2040 fb8f2040 6c090000  ...... @.. @l...
 40208e30 a8090000 a3090000 9e090000 99090000  ................
 40208e40 94090000 8f090000 8a090000 85090000  ................
 40208e50 80090000 7b090000 76090000 71090000  ....{...v...q...
 40208e60 12c1d0c9 31498169 110921f9 61d941e9  ....1I.i..!.a.A.
 40208e70 51dd02ed 03fd04a6 120e0cd0 2720090b  Q...........' ..
 40208e80 22202074 2971c600 000cd339 7141bcfd  "  t)q.....9qA..
 40208e90 c140fd31 a8edc020 002223f2 402220c0  .@.1... ."#.@" .
 40208ea0 2000080c 02203722 63f2c000 000ce557   .... 7"c......W
 40208eb0 bd3471da ffd06d90 7a66a006 00860900  .4q...m.zf......
 40208ec0 06650046 76000674 00c67100 866f0046  .e.Fv..t..q..o.F
 40208ed0 6d00066b 00c66800 86660046 64000662  m..k..h..f.Fd..b
 40208ee0 00c65f00 865d00c1 ceff567f 05f62e54  .._..]....V....T
 40208ef0 3cb00b8e 56080e42 afb7b2af 83a2a076  <...V..B.......v
 40208f00 5ce35cd9 5cc65cb8 0ce2273d 02466900  \.\.\.\...'=.Fi.
 40208f10 71c5ffd0 5d907a55 a00500c6 6500c649  q...].zU....e..I
 40208f20 00466800 06930086 8f00c68b 00c66800  .Fh...........h.
 40208f30 46880006 84000680 00867c00 467800c6  F.........|.Fx..
 40208f40 74004671 002d0c3d 0e4d0f5d 0145e0ff  t.Fq.-.=.M.].E..
 40208f50 820102a8 119871b2 0101a099 a0a20100  ......q.........
 40208f60 80bb1100 aa11b0aa 20a08820 89090190  ........ .. ....
 40208f70 feb2006e 0ce2076b 1b279d18 4d0f3d0e  ...n...k.'..M.=.
 40208f80 5d01d200 70c2006f 80dd11da ccc0c0f4  ]...p..o........
 40208f90 2d0c05dc ffe1fefc 080ed166 ed022038  -..........f.. 8
 40208fa0 2d01c000 00080e02 2036c000 00220130  -....... 6...".0
 40208fb0 8c1245d1 ff2d0c41 73fdc020 00322df2  ..E..-.As.. .2-.
 40208fc0 403310c0 2000c831 e851326d f2f861d8  @3.. ..1.Q2m..a.
 40208fd0 41082112 c1300df0 3c043c1a 3c2232a0  A.!..0..<.<.<"2.
 40208fe0 66b2af91 62afbb6c 691c180c e557bd34  f...b..li....W.4
 40208ff0 518effd0 7d905a77 a0070086 0900060f  Q...}.Zw........
 40209000 00c60900 063a0046 3a00863d 00460800  .....:.F:..=.F..
 40209010 862400c6 2400c638 00462400 863000c6  .$..$..8.F$..0..
 40209020 30008605 004d0282 afccbd08 6d080d0b  0....M......m...
 40209030 ad043d06 4d0a0241 01060100 4d023241  ..=.M..A....M.2A
 40209040 010d0342 41000602 00824100 22afb122  ...BA.....A.".."
 40209050 41010241 0246c5ff c175ffc6 a2ffc174  A..A.F...u.....t
 40209060 ff46a1ff c174ffc6 9fffc173 ff469eff  .F...t.....s.F..
 40209070 c173ffc6 9cffc172 ff469bff c172ffc6  .s.....r.F...r..
 40209080 99ffc171 ff4698ff c171ffc6 96ffc170  ...q.F...q.....p
 40209090 ff4695ff c170ffc6 93ffc16f ff4692ff  .F...p.....o.F..
 402090a0 c16fffc6 90ff8d03 bd083d08 9d0b4d0a  .o........=...M.
 402090b0 92410186 e2ff0d0a 62a0625c f7724100  .A......b.b\.rA.
 402090c0 624101c6 e2ff8241 0002afdf 7c299241  bA.....A....|).A
 402090d0 0146dfff 62410002 a06f7c9a a24101c6  .F..bA...o|..A..
 402090e0 dbff6d08 0d063d06 4d020241 0106d4ff  ..m...=.M..A....
 402090f0 3d069d03 6d030d09 ad0406cd ff3d069d  =...m........=..
 40209100 0346eaff 6d080d06 86c9ff32 410022af  .F..m......2A.".
 40209110 c46cc006 ceff3241 00b24101 4c8006cc  .l....2A..A.L...
 40209120 ff324100 02afa44c 1bb24101 86c8ff0c  .2A....L..A.....
 40209130 00024101 324100c6 c5ff0d08 3d0922af  ..A.2A......=.".
 40209140 be224101 06fbff92 410002a0 7c024101  ."A.....A...|.A.
 40209150 0d0406bf ff924100 1c34c6fb ff624100  ......A..4...bA.
 40209160 42410102 afcb06ba ff624100 a241012c  BA.......bA..A.,
 40209170 7046b7ff 0d0b6241 003c4332 410106b4  pF....bA.<C2A...
 40209180 ff000000 13922040 00800c00 00200d00  ...... @..... ..
 40209190 08520000 00600000 12c1d0f9 91c96109  .R...`........a.
 402091a0 51d971e9 81dd02ed 070101fe 00c51102  Q.q.............
 402091b0 0071c0c0 31076022 39a169b1 176004a6  .q..1.`"9.i..`..
 402091c0 1c010c0c 2d0c0c33 01f2e1c0 000068b1  ....-..3......h.
 402091d0 38a100f2 11f0f031 c600000c 0f0c0c4d  8......1.......M
 402091e0 0c721118 0201345d 0621f3fd 6d0ed242  .r....4].!..m..B
 402091f0 302d0d09 0185c6ff 41eefd29 41020471  0-......A..)A..q
 40209200 0ce30070 0437bd34 61dfffd0 5d906a55  ...p.7.4a...].jU
 40209210 a0050086 0900463c 00864d00 464b0006  ......F<..M.FK..
 40209220 4900c646 00864400 46420006 4000c63d  I..F..D.FB..@..=
 40209230 00863b00 46390006 3700c634 00c2a06a  ..;.F9..7..4...j
 40209240 169708e1 53fc8160 efc02000 82289c98  ....S..`.. ..(..
 40209250 0e17e82e 92292717 601222a0 670c430c  .....)'.`.".g.C.
 40209260 440c450c 061c37c0 0900c603 0022a067  D.E...7......".g
 40209270 0c430c44 0c450c06 1c47c009 0001ccfd  .C.D.E...G......
 40209280 02007131 c2ff21c0 ff005104 2a4f080e  ..q1..!...Q.*O..
 40209290 50329302 201f0c12 c0000022 a0770c03  P2.. ......".w..
 402092a0 1cc40c65 080e0c66 0220270c 17c00000  ...e...f. '.....
 402092b0 22a0770c 031cc40c 55080e0c 56022027  ".w.....U...V. '
 402092c0 0c17c000 000c5201 e3dfc000 0041b1ff  ......R......A..
 402092d0 51b0ff31 63fc505c 80f05501 c0200022  Q..1c.P\..U.. ."
 402092e0 23452020 c4502220 402220c0 20002263  #E  .P" @" . ."c
 402092f0 45d02d20 38410533 02c56802 c861d871  E.- 8A.3..h..a.q
 40209300 e881f891 085112c1 300df0c2 a2e186cb  .....Q..0.......
 40209310 ffc2a0d1 06caffc2 a0fc86c8 ffc2a127  ...............'
 40209320 06c7ffc2 a15386c5 ffc2a17e 06c4ffc2  .....S.....~....
 40209330 a1aa86c2 ffc2a1d6 06c1ffc2 a20286bf  ................
 40209340 ffc2a22e 06beffc2 a25a86bc ffc2a287  .........Z......
 40209350 06bbffc2 a2b486b9 ff000000 08a5fe3f  ...............?
 40209360 12c1f051 93fd0901 42057101 fcff2764  ...Q....B.q...'d
 40209370 0b320572 80330130 3831d033 11325000  .2.r.3.081.3.2P.
 40209380 80220120 28310501 00080112 c1100df0  .". (1..........
 40209390 50a6fe3f 2ca4fe3f 41feff32 a00112c1  P..?,..?A..2....
 402093a0 e0c26106 02610501 84fdcd02 08003244  ..a..a........2D
 402093b0 00577007 0c42c5df 06460100 453d0122  .Wp..B...F..E=."
 402093c0 6104617d fd71f3ff 42a0640c 1251e3ff  a.a}.q..B.d..Q..
 402093d0 3178fd52 95003203 01291149 012d0c0c  1x.R..2..).I.-..
 402093e0 0445dbff 2d0c851c 026173fd 68065776  .E..-....as.h.Wv
 402093f0 090c420c 0305ef06 46010022 21040535  ..B.....F.."!..5
 40209400 01c22106 02210512 c1200df0 fda3fe3f  ..!..!... .....?
 40209410 12c1e002 6106c261 0782a400 71d5fc20  ....a..a....q.. 
 40209420 c220c020 006227d0 806620c0 20000c04  . . .b'..f . ...
 40209430 0c0022a0 64315efd 6267d051 c8ff615e  ..".d1^.bg.Q..a^
 40209440 fd71d4ff 52950032 03012901 09112d0c  .q..R..2..)...-.
 40209450 45d4ff31 eeffc02c 903a2205 62ffc020  E..1...,.:".b.. 
 40209460 7432c110 057001c8 71086112 c1200df0  t2...p..q.a.. ..
 40209470 fffffff7 00000002 00000030 ffffffe0  ...........0....
 40209480 0000001c ffffffcf 00000010 0000000c  ................
 40209490 61f8ff12 c1f00911 2901c921 d9315125  a.......)..!.1Q%
 402094a0 ecd112e1 c1bbfbc0 20004225 fa604410  ........ .B%.`D.
 402094b0 c0200042 65fa31ef ffc02000 222d4430  . .Be.1... ."-D0
 402094c0 2220c020 000c230c 042c7508 0c226d44  " . ..#..,u.."mD
 402094d0 02202622 a06ac000 0071e7ff 81bbeec0  . &".j...q......
 402094e0 2000622d 44706620 c0200062 6d4451e3   .b-Dpf . .bmDQ.
 402094f0 ff41e3ff c02000b1 0fec322b e8503310  .A... ....2+.P3.
 40209500 403320c0 2000326b e821deff 01dfffc0  @3 . .2k.!......
 40209510 2000a22b e620aa10 00aa20c0 2000a26b   ..+. .... . ..k
 40209520 e67cd9c0 20007228 9c907710 c0200072  .|.. .r(..w.. .r
 40209530 689c0c22 0148dfc0 0000080c 022028c0  h..".H....... (.
 40209540 00000c22 080c0c13 02202b42 a081c000  ..."..... +B....
 40209550 0031ceff c0200022 2d443022 20c02000  .1... ."-D0" . .
 40209560 080c0220 32226d44 c0000022 a06a0c23  ... 2"mD...".j.#
 40209570 080c0c04 0220262c 45c00000 080c0220  ..... &,E...... 
 40209580 31c00000 22a06a0c 23080c0c 04022026  1...".j.#..... &
 40209590 2c55c000 00080c02 202fc000 0042a9ff  ,U...... /...B..
 402095a0 3174fcc0 20002223 d0402210 c020000c  1t.. ."#.@".. ..
 402095b0 040c450c 060c8708 0c2263d0 22a06202  ..E......"c.".b.
 402095c0 20270c13 c0000001 fcfc5800 b7f50728   '........X....(
 402095d0 0145dcff c6020022 00308022 01202831  .E.....".0.". (1
 402095e0 c5e2ff08 0c022023 c0000022 a06b0c23  ...... #...".k.#
 402095f0 080c0c14 0220264c 85c00000 080c0220  ..... &L....... 
 40209600 22c00000 22a06c0c 230c040c 05080c0c  "...".l.#.......
 40209610 06022027 0c17c000 0022a06c 0c230c04  .. '.....".l.#..
 40209620 0c25080c 0c260220 270c17c0 0000080c  .%...&. '.......
 40209630 022013c0 000022a0 770c031c a40c4508  . ....".w.....E.
 40209640 0c0c4602 20270c07 c0000022 a0770c03  ..F. '.....".w..
 40209650 1ca40c55 080c0c56 0220270c 07c00000  ...U...V. '.....
 40209660 22a0770c 031ca40c 45080c0c 46022027  ".w.....E...F. '
 40209670 0c17c000 0022a077 0c031ca4 0c55080c  .....".w.....U..
 40209680 0c560220 270c17c0 00000c02 c821d831  .V. '........!.1
 40209690 081112c1 100df000 001ffeff 61c7fc1c  ............a...
 402096a0 8b92065c 71a4eb80 99019098 319094c0  ...\q.......1...
 402096b0 bc220c02 30a31131 f8ff7062 a0c02000  ."..0..1..pb.. .
 402096c0 8226c130 58109088 c0505a20 80807480  .&.0X....PZ ..t.
 402096d0 5520c020 005266c1 1b222020 74b792d9  U . .Rf.."  t...
 402096e0 91b6fc42 495c0df0 000000fe 00008f03  ...BI\..........
 402096f0 00008001 50b72240 ffff0000 ffff7ffe  ....P."@........
 40209700 12c1c0d9 91e9a109 71f9b1c9 81f189eb  ........q.......
 40209710 c154ea01 f5ffe175 e0c02000 d22e4429  .T.....u.. ...D)
 40209720 c1003d10 3961074d 6dc02000 522c8659  ..=.9a.Mm. .R,.Y
 40209730 4141eeff c0200032 2c864033 20c02000  AA... .2,.@3 . .
 40209740 326c8621 e9ff202d 20c02000 0c130c34  2l.!.. - . ....4
 40209750 0c750c46 010ffb0c f7080022 6e440220  .u.F......."nD. 
 40209760 2722a062 c0000001 0afb0800 022013c0  '".b......... ..
 40209770 00000c22 01b8dec0 000031dd ffc02000  ..."......1... .
 40209780 222ffa30 2220c020 00226ffa 0c2201b1  "/.0" . ."o.."..
 40209790 dec00000 46010022 a00485a1 0622a06c  ....F..".....".l
 402097a0 32a00242 a00001fa fa0c5508 000c5602  2..B......U...V.
 402097b0 20270c17 c0000051 effb0c72 c1edfbc0   '.....Q...r....
 402097c0 2000422c d7504420 c0200042 6cd7c020   .B,.PD . .Bl.. 
 402097d0 00322cd4 30387537 020bc020 00622cd4  .2,.08u7... .b,.
 402097e0 60682556 36ff7cd9 c0200082 2cd49088  `h%V6.|.. ..,...
 402097f0 10c02000 826cd40c 22c02000 722cd420  .. ..l..". .r,. 
 40209800 7720c020 00726cd4 0193dec0 0000c020  w . .rl........ 
 40209810 00b22cd4 0c7ab0b8 75b70a0b c0200002  ..,..z..u.... ..
 40209820 2cd40008 255630ff 102120d2 6105c514  ,...%V0..! .a...
 40209830 05f2210c 0c0d0c0e 0d01003d 90321300  ..!........=.2..
 40209840 eae3e0e0 f48c9f21 abff0192 e9c00000  .......!........
 40209850 0d011bdd d0d07466 8ddf0c55 0c560c07  ......tf...U.V..
 40209860 21a6ff42 a0ff3152 fcd1c9fa 8beee0e4  !..B..1R........
 40209870 f4080d32 036c0220 274033c0 30e2830c  ...2.l. '@3.0...
 40209880 0422a06c 0c23c000 000197ff 2861c020  .".l.#......(a. 
 40209890 00322cd4 0c7f3038 75370f0b c0200042  .2,...08u7... .B
 402098a0 2cd44048 255634ff a1dffbc0 2000922c  ,.@H%V4..... ..,
 402098b0 d7a09910 c0200092 6cd77ce8 c0200072  ..... ..l.|.. .r
 402098c0 2cd88077 10c02000 726cd80c 16c02000  ,..w.. .rl.... .
 402098d0 522cd860 5520c020 00526cd8 071248c8  R,.`U . .Rl...H.
 402098e0 415186ff 41cffbc0 20003112 eb2223fa  AQ..A... .1.."#.
 402098f0 50221040 2220c020 000c340c 750c460c  P".@" . ..4.u.F.
 40209900 07080d22 63fa22a0 62022027 0c13c000  ..."c.".b. '....
 40209910 00c02000 81f6df78 51726844 c0200061  .. ....xQrhD. .a
 40209920 d0e9c266 86060200 22a00432 a000859b  ...f...."..2....
 40209930 06022107 c881d891 2d0ef8b1 e8a112c1  ..!.....-.......
 40209940 400df000 9d022d05 37290297 a40a0016  @.....-.7)......
 40209950 400c1300 33a13022 200df000 f40f0000  @...3.0" .......
 40209960 a0a3fe3f 28a5fe3f 0c0512c1 e0f94109  ...?(..?......A.
 40209970 01d921c9 11d110fc e931cd0d 8bed0c03  ..!......1......
 40209980 0cc40c06 229c06c5 fbff5d02 2bcce79c  ....".....].+...
 40209990 ec0c1d01 f2ff7108 fc62a3e4 f2172d6b  ......q..b....-k
 402099a0 c7671f02 079f1c0c c33cc422 0c370c16  .g.......<.".7..
 402099b0 80220120 2831c5f8 ff5d0201 e8ff62a3  .". (1...]....b.
 402099c0 e471fdfb 6bcc1bdd 665dd502 170a0048  .q..k...f].....H
 402099d0 742d0400 0074dd00 a6b40222 c4e0a6c0  t-...t....."....
 402099e0 02d2c0c0 7c330cd4 0c2685f5 ff6c531c  ....|3...&...lS.
 402099f0 b45d020c 262d0dc5 f4fff1ef fb5d02cd  .]..&-.......]..
 40209a00 0fab3f39 51021c0b 0046442d 04000054  ..?9Q....FD-...T
 40209a10 dd00a6b4 0222c4e0 a6c002d2 c0c07c33  ....."........|3
 40209a20 0cd40c36 c5f1ff6c 531cb45d 020c362d  ...6...lS..]..6-
 40209a30 0d05f1ff 5d024851 2bcc479c c7cd0f0c  ....].HQ+.G.....
 40209a40 3342a07c 221c020c 4620d874 20207445  3B.|"...F .t  tE
 40209a50 efff0c33 42a07c5d 020c462d 0d45eeff  ...3B.|]..F-.E..
 40209a60 5d022bcc e79cd7cd 0fe1bdff 32a08042  ].+.........2..B
 40209a70 a180222c 180c5620 d0842029 8445ecff  ..",..V .. ).E..
 40209a80 32a08042 a1805d02 0c562d0d 45ebff5d  2..B..]..V-.E..]
 40209a90 024bcce7 9cd5c811 d821e831 320f5d51  .K.......!.12.]Q
 40209aa0 b1fff841 52050080 03010008 31a05511  ...AR.......1.U.
 40209ab0 50522077 630b0020 60202321 20206086  PR wc.. ` #!  `.
 40209ac0 00000023 21080100 321112c1 205020f4  ...#!...2... P .
 40209ad0 3022200d f0000000 12c1e0d9 410921e9  0" .........A.!.
 40209ae0 51c931f9 61f193ea c100ffe1 80dfc020  Q.1.a.......... 
 40209af0 00d22e44 c00d1009 11c74d6d c0200031  ...D......Mm. .1
 40209b00 58e95223 86590141 f9fec020 00222386  X.R#.Y.A... ."#.
 40209b10 402220c0 20002263 86c02d20 c020000c  @" . ."c..- . ..
 40209b20 130c340c 750c4601 1afa0cf7 0800226e  ..4.u.F......."n
 40209b30 44022027 22a062c0 00000115 fa080002  D. '".b.........
 40209b40 2013c000 000c2201 c3ddc000 0031e8fe   ....."......1..
 40209b50 c0200022 2ffa3022 20c02000 226ffa0c  . ."/.0" . ."o..
 40209b60 2201bcdd c0000006 01000c42 45640641  "..........BEd.A
 40209b70 90fb01e1 fe42046c 52a0ff57 940a85ca  .....B.lR..W....
 40209b80 fe0d0286 00000000 000c7521 f9fac020  ..........u!... 
 40209b90 006222d4 60687567 050bc020 007222d4  .b".`hug... .r".
 40209ba0 70782556 37ff711f fbc02000 6222d770  px%V7.q... .b".p
 40209bb0 6610c020 006262d7 5187e4c0 20004222  f.. .bb.Q... .B"
 40209bc0 d7504410 c0200042 62d77ce3 c02000b2  .PD.. .Bb.|.. ..
 40209bd0 22d830bb 10c02000 b262d80c 1ac02000  ".0... ..b.... .
 40209be0 9222d8a0 9920c020 009262d8 88110971  ."... . ..b....q
 40209bf0 c71843c8 0141c1fe 310afbc0 2000222f  ..C..A..1... ."/
 40209c00 fa402210 302220c0 20000c13 0c340c75  .@".0" . ....4.u
 40209c10 0c4601df f90c0708 00226ffa 02202722  .F......."o.. '"
 40209c20 a062c000 00c02000 d26e44c0 2000510c  .b.... ..nD. .Q.
 40209c30 e9c26586 06020022 a00432a0 00856a06  ..e...."..2...j.
 40209c40 222107c8 31d841e8 516821f8 610d0612  "!..1.A.Qh!.a...
 40209c50 c1200df0 0df00000 2093c03b 899089b3  . ...... ..;....
 40209c60 8082211b 889c8831 40e92078 a03a34c0  ..!....1@. x.:4.
 40209c70 20004802 c0200042 63804b22 4b337792   .H.. .Bc.K"K3w.
 40209c80 ede02811 0df00000 2083c03b 788078b3  ..(..... ..;x.x.
 40209c90 7072211b 779ca7a1 34e94097 a0aa34aa  pr!.w...4.@...4.
 40209ca0 49c02000 b22380c0 2000b902 4b334b22  I. ..#.. ...K3K"
 40209cb0 4793ede0 27110df0 20730420 61042050  G...'... s. a. P
 40209cc0 0412c1e0 0931c941 6a55c1b1 f9206204  .....1.AjU... b.
 40209cd0 7a662005 04207604 7a002074 047a006a  zf .. v.z. t.z.j
 40209ce0 005a0030 53240020 740c40f6 52010d02  .Z.0S$. t.@.R...
 40209cf0 0020901c d0502290 20207427 30010d02  . ...P".  t'0...
 40209d00 0c420050 740c1308 0c4045b0 68140220  .B.Pt....@E.h.. 
 40209d10 2b480460 79847911 40508460 60846921  +H.`y.y.@P.``.i!
 40209d20 59014049 84c00000 4811080c 0c520220  Y.@I....H....R. 
 40209d30 2b0c13c0 00004801 080c0c42 02202b0c  +.....H....B. +.
 40209d40 23c00000 4821080c 0c520220 2b0c23c0  #...H!...R. +.#.
 40209d50 0000c841 083112c1 200df000 20b82240  ...A.1.. ... ."@
 40209d60 f0b72240 00800000 10b82240 c0b72240  .."@......"@.."@
 40209d70 ad059d06 12c1b029 d10951f9 91c96139  .......)..Q...a9
 40209d80 f1e981d9 7149a1d1 82f96cf4 ed0731e9  ....qI....l...1.
 40209d90 e9c02000 2223e440 2210c020 001c240c  .. ."#.@".. ..$.
 40209da0 750c060c 07a9b199 e1080d22 63e422a0  u.........."c.".
 40209db0 77022027 0c03c000 0022a077 0c030c94  w. '.....".w....
 40209dc0 0c75080d 0c060220 270c07c0 00000c10  .u..... '.......
 40209dd0 0c5f0c0c 28d1c261 1320f093 f9c148c1  ._..(..a. ....H.
 40209de0 32211347 230206a7 00164328 0b631646  2!.G#.....C(.c.F
 40209df0 2872c3fe 16372882 c3fd16b8 2a92c3fc  (r...7(.....*...
 40209e00 16092b0c 0c0c0aa2 61103221 130c8208  ..+.....a.2!....
 40209e10 0d0c0f02 203430f2 832d0fc0 00004221  .... 40..-....B!
 40209e20 13f62413 0c023d0f 42a1f408 0d0cc502  ..$...=.B.......
 40209e30 203a62c1 10c00000 0c02d155 f932a104   :b........U.2..
 40209e40 080d4d0c 0220151c 65c00000 2d0c1c63  ..M.. ..e...-..c
 40209e50 48b145e6 ffacde7d 0c6d0f21 c0ff0c03  H.E....}.m.!....
 40209e60 1c6aa901 92011042 a1048099 01909831  .j.....B.......1
 40209e70 99118201 11522110 80880180 88318921  .....R!......1.!
 40209e80 0105e8c0 0000d142 f9080d02 20100c12  .......B.... ...
 40209e90 c000000c 0f0c1238 f1422110 0c050c06  .......8.B!.....
 40209ea0 69016911 6921080d 0c070220 1a0c06c0  i.i.i!..... ....
 40209eb0 0000080d 0c1208d0 32a400c0 0000c020  ........2...... 
 40209ec0 00080dc1 9ce908c0 c22cf9c0 00008cde  .........,......
 40209ed0 21a4ffc0 382141a3 ff01eee7 c0000021  !...8!A........!
 40209ee0 50fa0221 10c7a210 22c0181b fff0f074  P..!...."......t
 40209ef0 20007402 6110662f 9b022d00 02201b22   .t.a.f/..-.. ."
 40209f00 a001c000 00c2a000 0c0f0c0d 0c020c03  ................
 40209f10 32611122 61120ce2 38f14221 1052c112  2a."a...8.B!.R..
 40209f20 68e17d0e 054d059c be218fff 3d0c5201  h.}..M...!..=.R.
 40209f30 13420112 80550180 44014048 31505831  .B...U..D.@H1PX1
 40209f40 01d5e7c0 0000bc0c 22011201 11f98022  ........"......"
 40209f50 01080020 28310800 202dc0c0 0000e622  ... (1.. -....."
 40209f60 18220113 010bf980 22010800 20283108  ."......"... (1.
 40209f70 00202fc0 c00000a6 22313221 12222111  . /....."12!."!.
 40209f80 d20112f2 01131bcc c0c07480 ff0180dd  ..........t.....
 40209f90 01d0d831 f0f8312a 2f3a3d32 61122261  ...1..1*/:=2a."a
 40209fa0 11264c02 86dbff0c 00460000 0c106c13  .&L......F....l.
 40209fb0 564009d2 21120221 112bdd2b 00000221  V@..!..!.+.+...!
 40209fc0 d0d22180 dd01d0d8 317c1280 f001f0f8  ..!.....1|......
 40209fd0 310d0227 2d010d0d 0cf27d02 e6b0017d  1..'-.....}....}
 40209fe0 000d0380 d701d0d8 31372f01 0d0f1cff  ........17/.....
 40209ff0 7d0fe6c0 017d0080 f70108d1 f0f831dc  }....}........1.
 4020a000 5038a170 0054d020 44a02211 20002022  P8.p.T. D.". . "
 4020a010 21133022 90025200 8cee5d0f 4d0d2153  !.0"..R...].M.!S
 4020a020 ff322113 019ce7c0 0000c050 14d1d8f8  .2!........P....
 4020a030 32211368 1d1b4340 30743261 13e06611  2!.h..C@0t2a..f.
 4020a040 60552059 1d4665ff 02011322 01128000  `U Y.Fe...."....
 4020a050 01802201 20283100 0831fa00 dad21bdd  ..". (1..1......
 4020a060 1b000001 21d0d121 80dd01d0 d831c6d5  ....!..!.....1..
 4020a070 ff0c0c86 63ff4c0c 4662ffc2 a0600cf2  ....c.L.Fb...`..
 4020a080 226110c6 60ff1c05 c0200041 2ae93224  "a..`.... .A*.2$
 4020a090 e4503320 c0200032 64e4c861 d871e881  .P3 . .2d..a.q..
 4020a0a0 f8910851 12c1500d f0c2a070 2c866261  ...Q..P....p,.ba
 4020a0b0 104655ff c2a0784c 17726110 8652ff00  .FU...xL.ra..R..
 4020a0c0 80b82240 2080fe3f 4c741040 12c1c0c9  .."@ ..?Lt.@....
 4020a0d0 21d931e9 41f95109 1159a179 91297149  !.1.A.Q..Y.y.)qI
 4020a0e0 8122a07f 80430140 48314032 a33961e6  ."...C.@H1@2.9a.
 4020a0f0 13024641 000c0c0c 000c0f58 a10b76dd  ..FA.......X..v.
 4020a100 057a5559 b11c83a2 0d00f06c c080e601  .zUY.......l....
 4020a110 e0e83180 aa01a0a8 31a72e3e 80660128  ..1.....1..>.f.(
 4020a120 b1606831 27ad33a0 7074cca7 820d0180  .`h1'.3.pt......
 4020a130 88018088 31872622 d8a11b00 a020742a  ....1.&"..... t*
 4020a140 ff000074 0addf06c c080e601 a20d00e0  ...t...l........
 4020a150 e83180aa 01a0a831 a7aec009 c1372e0d  .1.....1.....7..
 4020a160 62cee80c fe806601 60683186 0a002d0e  b.....f.`h1...-.
 4020a170 0c630107 dec00000 0d020c63 2d0e0010  .c.........c-...
 4020a180 400c1e00 eea10bee e0e0f401 cfffc000  @...............
 4020a190 0008c180 62016068 31a65604 0c568600  ....b.`h1.V..V..
 4020a1a0 006060f4 09c16901 78919881 88719090  .``...i.x....q..
 4020a1b0 90421900 808c9040 4eb04a46 4040f442  .B.....@N.JF@@.B
 4020a1c0 58009c47 52190021 beff3d0c 6d0e7801  X..GR..!..=.m.x.
 4020a1d0 0131e7c0 000008c1 68010cfa a79e0b66  .1......h......f
 4020a1e0 5608b1b8 ffc24b00 c60300e8 611bcc80  V.....K.....a...
 4020a1f0 cc01c0c8 31e0ecc0 569ef0c8 21d831e8  ....1...V...!.1.
 4020a200 41f85108 1112c140 0df00000 12c1f0c9  A.Q....@........
 4020a210 110901cd 021c7027 201d1c12 c72212e6  ......p' ...."..
 4020a220 ac094c00 e66c130c 00860300 02a06006  ..L..l........`.
 4020a230 020002a0 70860000 02a07821 55f80040  ....p.....x!U..@
 4020a240 f408020c 1302202b 0c32c000 002d0c0c  ...... +.2...-..
 4020a250 63019dff c000000c 230c65d0 4211014c  c.......#.e.B..L
 4020a260 f80c3208 00504420 02202b40 40f4c000  ..2..PD . +@@...
 4020a270 00c81108 0112c110 0df00000 00000300  ................
 4020a280 a00f0000 fffffcff 009e0060 4d0612c1  ...........`M...
 4020a290 a0c9b109 a1298139 61526111 d9c1e9d1  .....).9aRa.....
 4020a2a0 f9e1ed07 f13bf8d1 6ef8520f 0849718c  .....;..n.R..Iq.
 4020a2b0 85980339 61909005 56891e41 f0ff319d  ...9a...V..A..1.
 4020a2c0 e8c02000 2223f240 2220c020 002263f2  .. ."#.@" . ."c.
 4020a2d0 c0200008 0fc2a1e0 022028c2 6d1ac000  . ....... (.m...
 4020a2e0 0022a077 0c031c24 080f0c75 0220250c  .".w...$...u. %.
 4020a2f0 06c00000 0c031c84 0c550c56 080f2991  .........U.V..).
 4020a300 02202522 a077c000 000c031c 840c550c  . %".w........U.
 4020a310 560c0708 0fcd0202 202722a0 77c00000  V....... '".w...
 4020a320 22a0770c 031c240c 75080f0c 06022027  ".w...$.u..... '
 4020a330 0c07c000 00c26112 168e0d0c 050c0c22  ......a........"
 4020a340 016cf221 1829f1f0 6c906216 000c440d  .l.!.)..l.b...D.
 4020a350 0460a0e4 60240460 870460b6 04607504  .`..`$.`..`..`u.
 4020a360 60990460 38049a33 ba778a33 7a331cd7  `..`8..3.w.3z3..
 4020a370 6063042a 666a3330 3074f653 010d0300  `c.*fj300t.S....
 4020a380 b0745261 13a00024 b0bb9000 bb900d07  .tRa...$........
 4020a390 b0b0f4b7 37010d0b 0030f432 61100003  ....7....0.2a...
 4020a3a0 40502091 07e25ea0 20b485fe fd21b4ff  @P ...^. ....!..
 4020a3b0 32c11001 f7f742a0 0a022000 52210f02  2.....B... .R!..
 4020a3c0 203b0c06 c0000052 21130c18 32211142   ;.....R!...2!.B
 4020a3d0 91082291 09922110 62910a72 910b6060  .."...!.b..r..``
 4020a3e0 84707084 00194020 20844040 843039b0  .pp...@  .@@.09.
 4020a3f0 70441170 22110088 a1805520 70222060  pD.p".....U p" `
 4020a400 44204903 29131bcc c0c074f0 6c90c04e  D I.).....t.l..N
 4020a410 c05654f3 0861f1de f70800c2 211207f0  .VT..a......!...
 4020a420 1a28819c 520c020c 83487152 21116201  .(..R....HqR!.b.
 4020a430 64720168 82016c89 014593ff 7d0c4191  dr.h..l..E..}.A.
 4020a440 ffc02000 313ce822 23f24022 10c02000  .. .1<."#.@".. .
 4020a450 1c840c55 0c562263 f2080f22 a0770220  ...U.V"c...".w. 
 4020a460 270c03c0 00007891 22a0770c 031c2408  '.....x.".w...$.
 4020a470 0f0c7502 20270c06 c0000008 0f022032  ..u. '........ 2
 4020a480 c0000008 0f022031 c0000008 0f02202f  ...... 1...... /
 4020a490 c138edc0 00004861 38040c12 c0332039  .8....Ha8....3 9
 4020a4a0 04224f08 16fe0df2 21186177 ff0c0c28  ."O.....!.aw...(
 4020a4b0 71022111 0c45f0ac 90a21a00 3d05a078  q.!..E......=..x
 4020a4c0 04a09404 a083049a 88a0b604 a09504ba  ................
 4020a4d0 99a0b904 ba77a0b7 04ba77a0 a0e41cdb  .....w....w.....
 4020a4e0 9a778a77 a0802470 7074f657 013d0730  .w.w..$ppt.W.=.0
 4020a4f0 40743d0b 40749080 77907070 f4773b01  @t=.@t..w.pp.w;.
 4020a500 3d0730b0 f400bbb0 881bb80b 803984b0  =.0..........9..
 4020a510 70848080 84b0b984 c0200080 bb11f09a  p........ ......
 4020a520 011ce552 6d1aba99 70b14160 5ca0ba99  ...Rm...p.A`\...
 4020a530 c0200099 05c02000 1cfbb26d 1ac02000  . .... ....m.. .
 4020a540 107701a0 33019905 7a332074 90721700  .w..3...z3 t.r..
 4020a550 30881170 70a48077 a07a33c0 200082a1  0..pp..w.z3. ...
 4020a560 e0826d1a c0200039 05c02000 72a1e172  ..m.. .9.. .r..r
 4020a570 6d1ac020 0039051b cc322114 0c45c0c0  m.. .9...2!..E..
 4020a580 74c08ec0 56e8f2c8 b1d8c1e8 d1f8e108  t...V...........
 4020a590 a112c160 0df00000 98741040 12c1c0d9  ...`.....t.@....
 4020a5a0 c1c9b109 a1cd0221 e3e7c020 005222e3  .......!... .R".
 4020a5b0 505921c0 20004222 e0404921 5a44c020  PY!. .B".@I!ZD. 
 4020a5c0 005222e2 505921c0 20000222 e1000921  .R".PY!. .."...!
 4020a5d0 5000c009 31c02000 6222f760 68216901  P...1. .b".`h!i.
 4020a5e0 c0200052 22f85058 215911c0 20002222  . .R".PX!Y.. .""
 4020a5f0 f97ccd52 c3fe000f 31092100 0540d0d3  .|.R....1.!..@..
 4020a600 90405f31 2020b129 0c3d052d 0401e8ea  .@_1  .).=.-....
 4020a610 c0000029 51394158 2148313d 052d0401  ...)Q9AX!H1=.-..
 4020a620 e4eac000 004d0368 5138412a 264a3367  .....M.hQ8A*&J3g
 4020a630 b2011b33 4d0d01d8 ffc00000 291c4801  ...3M.......).H.
 4020a640 68116971 405f3160 6f316961 3d052d04  h.iq@_1`o1ia=.-.
 4020a650 01d8eac0 00002991 39815861 48713d05  ......).9.XaHq=.
 4020a660 2d0401d3 eac00000 4d038891 38812a28  -.......M...8.*(
 4020a670 4a3387b2 011b334d 0d01c7ff c0000008  J3....3M........
 4020a680 a1292cd8 c1c8b112 c1400df0 37220227  .),......@..7".'
 4020a690 a4110015 40313ef7 0c142833 0044a140  ....@1>...(3.D.@
 4020a6a0 22202933 0df00000 fd7ffdff 82ae0072  " )3...........r
 4020a6b0 a142316b f7c02000 62235980 66107066  .B1k.. .b#Y.f.pf
 4020a6c0 20c02000 62635951 f8ff0c24 c0200022   . .bcYQ...$. ."
 4020a6d0 23585022 10402220 c0200022 63580df0  #XP".@" . ."cX..
 4020a6e0 12c1e009 112901d9 31e941c9 21ed05c1  .....)..1.A.!...
 4020a6f0 5cf7d135 eac02000 022c5849 5117e024  \..5.. ..,XIQ..$
 4020a700 2d0301d4 dac00000 0122f708 00022019  -........".... .
 4020a710 2801c000 000851c0 2000222c 5817e213  (.....Q. .",X...
 4020a720 0c020607 00c02000 522d8040 55c057be  ...... .R-.@U.W.
 4020a730 c3c60200 c0200062 2d800066 c067bed6  ..... .b-..f.g..
 4020a740 0c12c821 d831e841 081112c1 200df000  ...!.1.A.... ...
 4020a750 9148fb31 43f7c020 00822342 908810c0  .H.1C.. ..#B....
 4020a760 20008263 420c17c0 20006223 58706620   ..cB... .b#Xpf 
 4020a770 c0200062 63587ce5 c0200042 23585044  . .bcX|.. .B#XPD
 4020a780 10c02000 426358c0 200029b3 0df00000  .. .BcX. .).....
 4020a790 fffff7ff 4133f7c0 20007130 f728b4c0  ....A3.. .q0.(..
 4020a7a0 20006224 42706620 c0200062 644251f8   .b$Bpf . .bdBQ.
 4020a7b0 ffc02000 38b45033 10c02000 39b40df0  .. .8.P3.. .9...
 4020a7c0 12c1f002 610001f2 f6022000 02201132  ....a..... .. .2
 4020a7d0 a080c000 0005bcfe 22a00008 0112c110  ........".......
 4020a7e0 0df00000 d0a2fe3f 1ea3fe3f 15a4fe3f  .......?...?...?
 4020a7f0 80a3fe3f 3171f812 c1c0c261 06d26107  ...?1q.....a..a.
 4020a800 e9810951 0803f991 00020556 e00c02c3  ...Q.......V....
 4020a810 f0080002 2028c000 0001ddf6 08000220  .... (......... 
 4020a820 300c12c0 0000c127 fe221c01 2020b4c5  0......'."..  ..
 4020a830 cefd221c 0132c110 0c1485ee 0201d4f6  .."..2..........
 4020a840 08000860 0c02c000 00d20112 0c0cf1d1  ...`............
 4020a850 fae1e4ff 9c6c261c 0f262c07 663c100c  .....l&..&,.f<..
 4020a860 edc60200 0cbd8601 000c6d46 00000c1d  ..........mF....
 4020a870 f07f2062 a06442a0 0131dcff 51dbff80  .. b.dB..1..Q...
 4020a880 2d012028 315295f5 32038049 1169010c  -. (1R..2..I.i..
 4020a890 046149f8 0590fe4c 022c830c 240c05c0  .aI....L.,..$...
 4020a8a0 6c906a6e c53e041b ccc0c074 664ca401  l.jn.>.....tfL..
 4020a8b0 b8f60800 022032c0 000001b5 f6080002  ..... 2.........
 4020a8c0 2031c000 0001b2f6 08000220 2fc187de   1......... /...
 4020a8d0 c0000031 aff62843 c0222029 430c0f01  ...1..(C." )C...
 4020a8e0 c4ff0c33 39a10ced e134f80c 0ceaeff6  ...39....4......
 4020a8f0 6c232d0c 0c53020e 2009d101 41dac000  l#-..S.. ...A...
 4020a900 003d0242 0e2328d1 01baff20 44c04033  .=.B.#(.... D.@3
 4020a910 823a22c6 13000ca5 c735220c 5322ccfb  .:"......5".S"..
 4020a920 420e2652 0e2359c1 5044c040 22820118  B.&R.#Y.PD.@"...
 4020a930 dcc00000 68c101ae ff6a22c6 0900220e  ....h....j"...".
 4020a940 290cc7c7 371fc08c a0320e26 39b182c8  )...7....2.&9...
 4020a950 ce3022c0 2028821c 63010ddc c0000098  .0". (..c.......
 4020a960 b101a3ff 9a22d2cd ffc03c90 303f80c2  ....."....<.0?..
 4020a970 cc01c0c0 743a3022 4380561d f748a11b  ....t:0"C.V..H..
 4020a980 fff0f074 0b4449a1 56a4f521 81f62202  ...t.DI.V..!..".
 4020a990 40319efa 80220120 28312022 903a22c5  @1...". (1 ".:".
 4020a9a0 0dfec861 d871e881 f8910851 12c1400d  ...a.q.....Q..@.
 4020a9b0 f0000000 1c086203 001cc547 a5040cc7  ......b....G....
 4020a9c0 86020047 a80572c4 f0460000 0c077066  ...G..r..F....pf
 4020a9d0 c0624200 7d084728 017d040c 144a921b  .bB.}.G(.}...J..
 4020a9e0 a44a8382 0800a040 747088c0 82490066  .J.....@tp...I.f
 4020a9f0 64ea0df0 52a4fe3f e2a2fe3f e8a2fe3f  d...R..?...?...?
 4020aa00 62a0640c 1412c1d0 e9a10971 f9b1d991  b.d........q....
 4020aa10 c981dd03 cd02f1f7 ff802201 20283172  ..........". (1r
 4020aa20 cfda529f 5b320f43 49116901 0c0461e2  ..R.[2.CI.i...a.
 4020aa30 f74576fe 3176fac0 2c903a22 c503fe42  .Ev.1v..,.:"...B
 4020aa40 0fb8cc44 666c0205 f102e1eb ff661d31  ...Dfl.......f.1
 4020aa50 0c0d0c05 59612d0e 45040368 61dad200  ....Ya-.E..ha...
 4020aa60 dd11d0d0 311b0600 60746961 6646e62b  ....1...`tiafF.+
 4020aa70 0d5bdd00 d0b3d0d2 2100dd11 d0d03146  .[......!.....1F
 4020aa80 00000c0d 3d0e22c1 104d0d85 f2ff261c  ....=."..M....&.
 4020aa90 1222ccfa 16c20b42 ccf50c23 0c304003  .".....B...#.0@.
 4020aaa0 83860000 02a00031 a3e662af ffd04074  .......1..b...@t
 4020aab0 d05011e1 c1f70015 4052a0ff e0e090d2  .P......@R......
 4020aac0 5e060055 a10044a1 605530c0 20002223  ^..U..D.`U0. ."#
 4020aad0 ff502210 402220c0 200042a0 061cf592  .P".@" . .B.....
 4020aae0 a1386178 fd71c5ff 2263ff00 c0904c02  .8ax.q.."c....L.
 4020aaf0 32c110f0 cc117a7c 62160199 01820fb9  2.....z|b.......
 4020ab00 89114535 043122f6 51acf742 03430203  ..E5.1".Q..B.C..
 4020ab10 425a5c22 05395205 38802201 4000c04b  BZ\".9R.8.".@..K
 4020ab20 00202831 80550150 58315022 c027a009  . (1.U.PX1P".'..
 4020ab30 71cfe668 43706620 6943c881 d8910871  q..hCpf iC.....q
 4020ab40 829e06e8 a1a65804 0c19924f baf8b112  ......X....O....
 4020ab50 c1300df0 0c1046d3 ff000000 4fa6fe3f  .0....F.....O..?
 4020ab60 77a4fe3f bea4fe3f 12c1c0d9 51e961f9  w..?...?....Q.a.
 4020ab70 7139c1c9 410931cd 02c58a02 0c0f0c6e  q9..A.1........n
 4020ab80 018ef7c0 5ca00b3c 42ccfa49 8139b152  ....\..<B..I.9.R
 4020ab90 c5c95921 dd0002c0 f0f67c2d 0c5328b1  ..Y!......|-.S(.
 4020aba0 420d3e52 0d3859a1 80440180 55015058  B.>R.8Y..D..U.PX
 4020abb0 31404831 5044c040 22820175 dbc00000  1@H1PD.@"..u....
 4020abc0 58a101f3 f55a22c6 1800f6ac 2d0c5328  X....Z".....-.S(
 4020abd0 81420d44 520d3e59 91804401 80550150  .B.DR.>Y..D..U.P
 4020abe0 58314048 315044c0 40228201 69dbc000  X1@H1PD.@"..i...
 4020abf0 00589101 e7f55a22 860c0022 0d4a62a0  .X....Z"...".Jb.
 4020ac00 0d802201 202831c7 3623420d 44426101  ..". (1.6#B.DBa.
 4020ac10 80440140 48314042 c0222102 1c634022  .D.@H1@B."!..c@"
 4020ac20 82015bdb c0000058 1101d9f5 5a221bdd  ..[....X....Z"..
 4020ac30 0bee78c1 62006c7a 7f806601 1bff6068  ..x.b.lz..f...`h
 4020ac40 312a6662 470056fe f421c5ff 91c4ffa8  1*fbG.V..!......
 4020ac50 c1920900 b20a0080 99019098 31ba9992  ............1...
 4020ac60 4a008202 6ca20296 26182826 1a250c05  J...l...&.(&.%..
 4020ac70 d2af806d 0d21bbff 0cd348c1 d2404152  ...m.!....H..@AR
 4020ac80 406245fa 02c841d8 51e861f8 71083112  @bE...A.Q.a.q.1.
 4020ac90 c1400df0 b20263e2 0267dc5b b63c0286  .@....c..g.[.<..
 4020aca0 47002145 f722023a 0c1580d2 01d0d831  G.!E.".:.......1
 4020acb0 c6efffc7 3e61f140 f7d20265 faddd20d  ....>a.@...e....
 4020acc0 38f20268 80dd01d0 d831661f 45c1b0f5  8..h.....1f.E...
 4020acd0 0c53220c 4ec20c48 80220120 283180cc  .S".N..H.". (1..
 4020ace0 01c0c831 c022c020 2e820129 dbc00000  ...1.". ...)....
 4020acf0 2a3c8033 0128b130 3831d033 c0302282  *<.3.(.081.3.0".
 4020ad00 3d0e0123 dbc00000 01a2f52a dd80dd01  =..#.......*....
 4020ad10 d0d8310c 1586d6ff 3202660c ff30ffc0  ..1.....2.f..0..
 4020ad20 f72c4af1 25f7d202 64faddd2 0d4a4202  .,J.%...d....JB.
 4020ad30 6880dd01 d0d83166 14d8f200 5480ff01  h.....1f....T...
 4020ad40 f0f831f6 ac2f2192 f50c8322 024ee033  ..1../!....".N.3
 4020ad50 c0802201 20283129 01202fc0 3022820c  ..". (1). /.0"..
 4020ad60 53010bdb c0000008 012a00c6 0a000c05  S........*......
 4020ad70 d2af8006 bfff2186 f50c3322 025ae033  ......!...3".Z.3
 4020ad80 c0802201 202831f0 22c03022 822022a0  ..". (1.".0". ".
 4020ad90 1c6301ff dac00000 2a0f0ce3 80200120  .c......*.... . 
 4020ada0 2831c033 c0d022c0 3022823d 0e01f8da  (1.3..".0".=....
 4020adb0 c0000001 77f52add 80dd01d0 d83146d4  ....w.*......1F.
 4020adc0 ffb69c08 21fdf622 024686b6 ffd2af80  ....!..".F......
 4020add0 0c0546a7 ff000000 00001000 0aa4fe3f  ..F............?
 4020ade0 4ca6fe3f 12c1d0e2 61072261 09c95109  L..?....a."a..Q.
 4020adf0 41f981d9 61d166f5 fd02084d c1b2fc00  A...a.f....M....
 4020ae00 040556f0 09080d02 2028c000 00080d02  ..V..... (......
 4020ae10 20300c12 c0000022 1c012020 b4c56ffd   0....."..  ..o.
 4020ae20 221c013d 010c14c5 8f02080d 08600c02  "..=.........`..
 4020ae30 c00000e2 01020c0c 9c6c261c 0f262c07  .........l&..&,.
 4020ae40 663c100c eec60200 0cbe8601 000c1e46  f<.............F
 4020ae50 00000c6e 3d0f2d0e 45baff1b ccc0c074  ...n=.-.E......t
 4020ae60 664cd408 0d022032 c0000008 0d022031  fL.... 2...... 1
 4020ae70 c0000008 0d02202f c1d8ffc0 0000084d  ...... /.......M
 4020ae80 31d8ff41 36ff51d5 ff0c0222 4d6d224d  1..A6.Q...."Mm"M
 4020ae90 6c225d30 22458022 44002253 00c00020  l"]0"E."D."S... 
 4020aea0 094d0606 00103120 42a00022 1d35225c  .M....1 B..".5"\
 4020aeb0 01058702 221c013d 01c57c02 084db7f0  ...."..=..|..M..
 4020aec0 07220d40 8b3105ca ffc851d8 61e871f8  .".@.1....Q.a.q.
 4020aed0 81084112 c1300df0 2162f5c0 20002222  ..A..0..!b.. .""
 4020aee0 592024b5 1b222021 4122d2f8 00221120  Y $.." !A"...". 
 4020aef0 20310df0 12c1f009 010125f5 080008a0   1........%.....
 4020af00 c0000052 aeac02ae 78072201 0d022d05  ...R....x."...-.
 4020af10 0725012d 00080100 22112020 3112c110  .%.-....".  1...
 4020af20 0df00000 7cda414e f5c02000 922458a0  ....|.AN.. ..$X.
 4020af30 9910c020 00926458 1ba22b82 a08ab380  ... ..dX..+.....
 4020af40 812192ae 0082d802 808084c0 20007224  .!.......... .r$
 4020af50 59907710 807720c0 20007264 5961d2fd  Y.w..w . .rdYa..
 4020af60 0c25c020 00322458 60331050 3320c020  .%. .2$X`3.P3 . 
 4020af70 00326458 0df00000 00f0ffff 02800200  .2dX............
 4020af80 7138f5c0 20003227 5882a1a0 17e32f20  q8.. .2'X...../ 
 4020af90 9024a1f9 ff709911 c0200062 2759a066  .$...p... .b'Y.f
 4020afa0 10906620 806620c0 20006267 5951f3ff  ..f .f . .bgYQ..
 4020afb0 c0200042 27585044 20c02000 4267580d  . .B'XPD . .BgX.
 4020afc0 f0000000 01f0ffff 00960060 31feff21  ...........`1..!
 4020afd0 feffc020 00222289 2020b43a 22202141  ... ."".  .:" !A
 4020afe0 00221120 20310df0 fff1ffff 48a6fe3f  .".  1......H..?
 4020aff0 04a3fe3f 8ea4fe3f 71fcff62 a20012c1  ...?...?q..b....
 4020b000 f00901c9 11d92151 16f5dd02 c1e1f4c0  ......!Q........
 4020b010 20004225 59704410 604420c0 20004265   .B%YpD.`D . .Be
 4020b020 590c54c0 20000225 58000f41 40001026  Y.T. ..%X..A@..&
 4020b030 500a080c 022019c0 00008605 0001ebff  P.... ..........
 4020b040 221000c0 20004225 5817641d f6921f1b  "... .B%X.d.....
 4020b050 22225000 21e7ff42 2c7b9b32 85bffec8  ""P.!..B,{.2....
 4020b060 11d82108 0112c110 0df03931 b6920522  ..!.......91..."
 4020b070 aeb0c602 00080c08 a0c00000 383101db  ............81..
 4020b080 ff42ae6c 27a46f52 100062ae 78f69514  .B.l'.oR..b.x...
 4020b090 72aeac67 22016d02 2d076727 012d0600  r..g".m.-.g'.-..
 4020b0a0 22112020 3171d3ff 629c3472 078027a6  ".  1q..b.4r..'.
 4020b0b0 61604690 4a2242c2 fe1b2240 24b32022  a`F.J"B..."@$. "
 4020b0c0 21006211 60603162 5c341647 0522ae7c  !.b.``1b\4.G.".|
 4020b0d0 67a2352a 461b2440 24b32021 21002211  g.5*F.$@$. !!.".
 4020b0e0 20203122 5c1f0609 000c058c 838c6508    1"\.........e.
 4020b0f0 0c022016 c0000008 0c022019 2d0dc000  .. ....... .-...
 4020b100 0001baff 0c02c6d1 ff2d0662 5c1f0c15  .........-.b\...
 4020b110 c6f5ff67 a2b342c6 f047a21b 22c6f486  ...g..B..G.."...
 4020b120 e7ff229c 1f8b5267 250572c2 f877a6b8  .."...Rg%.r..w..
 4020b130 2d06625c 1f46f5ff 2022902a 2642c2fe  -.b\.F.. ".*&B..
 4020b140 1b224024 b3202221 46ddff00 38a5fe3f  ."@$. "!F...8..?
 4020b150 ffffffbf 8d0212c1 c00951d9 71e981f9  ..........Q.q...
 4020b160 91c961f2 ac00c2a0 c9ed03d1 89f43d04  ..a...........=.
 4020b170 42211098 0d080492 29160005 0556f018  B!......)....V..
 4020b180 22ae7c69 11490189 d139c159 b1c00900  ".|i.I...9.Y....
 4020b190 92ae7cc0 2000a1b2 f438daf0 3310c033  ..|. ....8..3..3
 4020b1a0 20c02000 39dac020 0008da7c e2200010   . .9.. ...|. ..
 4020b1b0 c0200009 dac02000 82aeac01 e4ffa22a  . .... ........*
 4020b1c0 580c0bb9 a1925d1f 48a11b54 00649082  X.....].H..T.d..
 4020b1d0 56005040 7449a166 44edc020 0091a0f4  V.P@tI.fD.. ....
 4020b1e0 38b93921 c0200022 29c82931 c02000f2  8.9!. .").)1. ..
 4020b1f0 29d0f941 c02000b8 b97cecc0 bb10c020  )..A. ...|..... 
 4020b200 00b9b9a1 d3ffc020 008229c8 a08810c0  ....... ..).....
 4020b210 20008269 c8c16ce7 0c0779a1 c02000f2   ..i..l...y.. ..
 4020b220 2c804221 0a22a00e 4034a042 c4fd32c3  ,.B!."..@4.B..2.
 4020b230 01402393 80220120 2831c515 fec02000  .@#..". (1.... .
 4020b240 0188f4d8 a1422058 acde01c0 ff0c0c00  .....B X........
 4020b250 dd904d0f 28d138c1 58b14548 ffdc2245  ..M.(.8.X.EH.."E
 4020b260 c9ff429d 001bcc47 a202225d 00c0c074  ..B....G.."]...t
 4020b270 c79ede01 7bf4c154 e7c02000 28d07ce3  ....{..T.. .(.|.
 4020b280 302210c0 2000d8a1 29d01bfd f0d074d9  0".. ...).....t.
 4020b290 a1664d87 c0200061 72f48821 89b6c020  .fM.. .ar..!... 
 4020b2a0 00783172 66c8c020 00584148 115266d0  .x1rf.. .XAH.Rf.
 4020b2b0 bcb401a6 ff22afd8 0c0999a1 00a211a0  ....."..........
 4020b2c0 a03138a1 48a10033 901b5450 40743293  .18.H..3..TP@t2.
 4020b2d0 0049a1a7 a3012d03 00a21166 44e0312c  .I....-....fD.1,
 4020b2e0 f4080302 20162253 1fc00000 06020051  .... ."S.......Q
 4020b2f0 28f442ae 7c42551f a11ff598 017124f4  (.B.|BU......q$.
 4020b300 88096297 1fa08820 89096257 34460b00  ..b.... ..bW4F..
 4020b310 229d1fc0 0900c020 00b151f4 08dbf000  "...... ..Q.....
 4020b320 10c00020 c0200009 dbc02000 d8db7cee  ... . .... ...|.
 4020b330 e0dd10c0 2000d9db c02000b2 2b58c861  .... .... ..+X.a
 4020b340 d871e881 f8910851 12c1400d f0000000  .q.....Q..@.....
 4020b350 12c1f0c2 61031031 2020c220 210df409  ....a..1  . !...
 4020b360 21220240 0580ff01 0af40c02 5d011b62  !".@........]..b
 4020b370 5a423204 00602074 ca333244 006662ed  ZB2..` t.32D.fb.
 4020b380 21f9fd0c d34d0162 00415200 62806601  !....M.b.AR.b.f.
 4020b390 60683145 8902c831 082112c1 100df000  `h1E...1.!......
 4020b3a0 b0b82240 7d0212c1 e0390121 fdff0911  .."@}....9.!....
 4020b3b0 c921d931 cd05dd04 794101b6 e2c00000  .!.1....yA......
 4020b3c0 0841c020 00280dc7 92f72d00 01a2d7c0  .A. .(....-.....
 4020b3d0 00000801 0c542122 f4c02000 32225830  .....T!".. .2"X0
 4020b3e0 3f414033 10665313 7cd5c020 00422258  ?A@3.fS.|.. .B"X
 4020b3f0 504410c0 20004262 58460100 c0200062  PD.. .BbXF... .b
 4020b400 225871e3 f3780772 27190020 74c00700  "Xq..x.r'.. t...
 4020b410 c821d831 081112c1 200df000 0886fe3f  .!.1.... ......?
 4020b420 2aa4fe3f ff03fcff 0c0412c1 e0e951d9  *..?..........Q.
 4020b430 410921c9 3101faff cd02dd03 0c2231f7  A.!.1........"1.
 4020b440 ffe2007d 3a4480ee 013a2242 14004251  ...}:D...:"B..BQ
 4020b450 00220200 e0e83122 41020cd2 e67c230c  ."....1"A....|#.
 4020b460 534d0042 047c0b2c 80440140 48314911  SM.B.|.,.D.@H1I.
 4020b470 404ec040 22820146 d9c00000 e8112aee  @N.@"..F......*.
 4020b480 46080032 007e8033 01303831 e033c0c7  F..2.~.3.081.3..
 4020b490 a2024642 0022ccfa 2023820c 53013cd9  ..FB.".. #..S.<.
 4020b4a0 c000002a ee661d0a 7cadd241 00d24102  ...*.f..|..A..A.
 4020b4b0 c6080032 cdfe5693 0b01d9ff 32007f32  ...2..V.....2..2
 4020b4c0 41002200 80224101 02008102 4102d201  A.".."A.....A...
 4020b4d0 0180dd01 d0d831e6 7c2c3201 000b2c80  ......1.|,2...,.
 4020b4e0 33013038 31803301 30383130 3dc03022  3.081.3.0810=.0"
 4020b4f0 820c5301 27d9c000 00020100 80000100  ..S.'...........
 4020b500 08312a00 06080002 01020cd2 80000100  .1*.............
 4020b510 0831d000 c0c72275 0c5322cc fa202082  .1...."u.S"..  .
 4020b520 011cd9c0 0000da02 a1bfff0a 9e41ccf3  .............A..
 4020b530 90907460 9911c020 008224da a0881090  ..t`... ..$.....
 4020b540 8820c020 008264da 0c17c020 0068d470  . . ..d.... .h.p
 4020b550 6620c020 0069d47c e5c02000 38d45033  f . .i.|.. .8.P3
 4020b560 10c02000 39d4c831 d841e851 082112c1  .. .9..1.A.Q.!..
 4020b570 200df0a2 cdfd564a f501a9ff 32008232   .....VJ....2..2
 4020b580 41002200 83224101 02008406 cfff0c53  A.".."A........S
 4020b590 22ccfe20 208201fe d8c00000 86e1ff22  "..  .........."
 4020b5a0 ccfe2023 820c5301 fad8c000 0086bcff  .. #..S.........
 4020b5b0 12c1f002 61030176 f3084029 2127700c  ....a..v..@)!'p.
 4020b5c0 3193f720 22903a22 054bfd28 21317ee6  1.. ".:".K.(!1~.
 4020b5d0 c0200032 239c1763 25202074 3d018558  . .2#..c%  t=..X
 4020b5e0 ff050204 0c024562 002169f3 08020220  ......Eb.!i.... 
 4020b5f0 1622921f c000001c e20116d7 c0000008  ."..............
 4020b600 3112c110 0df00000 36a4fe3f 0c86fe3f  1.......6..?...?
 4020b610 c05d0000 99994940 9999e940 000000c0  .]....I@...@....
 4020b620 b0741040 b86a1040 12c1b0e9 d1f9e129  .t.@.j.@.......)
 4020b630 71d9c1c9 b1c1f4ff 09a1020c 5fdd03cc  q..........._...
 4020b640 302c8e46 04006610 041cae46 020032c0  0,.F..f....F..2.
 4020b650 fe1c822c 8e30e283 2d0d3d0e 019bfac0  ...,.0..-.=.....
 4020b660 0000e692 1a2d0d3d 0e01c9d8 c0000020  .....-.=....... 
 4020b670 0e82d000 c00000a0 f0201129 61460800  ......... .)aF..
 4020b680 204ec0e6 94172d0d 3d0e01c1 d8c00000   N....-.=.......
 4020b690 1b02000e 82d000c0 0000a046 f6ff0c02  ...........F....
 4020b6a0 2961320c 7b220c9e 16430839 51f20c7a  )a2.{"...C.9Q..z
 4020b6b0 8022112a ff167f07 2d037c6e d0ee82d0  .".*....-.|n....
 4020b6c0 22c13033 a0f03311 22611032 61123d0f  ".03..3."a.2a.=.
 4020b6d0 017efac0 00000221 12422110 072202c6  .~.....!.B!.."..
 4020b6e0 54002d04 3d0f01aa d8c00000 0198f5c0  T.-.=...........
 4020b6f0 00002921 2d0f0195 f5c00000 fd022851  ..)!-.........(Q
 4020b700 01c8ffc0 00003d02 2d0f018d f5c00000  ......=.-.......
 4020b710 3d022821 018af5c0 0000f1bc ff380f01  =.(!.........8..
 4020b720 87f5c000 0001bfff c000002a fe860100  ...........*....
 4020b730 0c0f7c6e d0ee8202 0c9af261 13161008  ..|n.......a....
 4020b740 0941220c 9ff20c99 8022112a ff161f07  .A"......".*....
 4020b750 3d0fd020 c1226111 00d0a0f0 dd11015a  =.. ."a........Z
 4020b760 fac00000 022111d7 22024648 003d0f2d  .....!..".FH.=.-
 4020b770 000187d8 c0000001 75f5c000 002931d8  ........u....)1.
 4020b780 412d0f01 72f5c000 00fd022d 0d01a4ff  A-..r......-....
 4020b790 c000003d 02d8312d 0f0169f5 c000003d  ...=..1-..i....=
 4020b7a0 022d0d01 66f5c000 003198ff 38030163  .-..f....1..8..c
 4020b7b0 f5c00000 019cffc0 0000f221 132a3e06  ...........!.*>.
 4020b7c0 0100f221 130c0339 f12191ff d21c5001  ...!...9.!....P.
 4020b7d0 f0f2dade 08002add 08002d0d c0000001  ......*...-.....
 4020b7e0 8cff41eb f20c0352 a0645722 01dd0332  ..A....R.dW"...2
 4020b7f0 1c512804 3aee0aee 08022d0e c0000038  .Q(.:.....-....8
 4020b800 f1087142 1c3e0b00 00004040 40b10764  ..qB.>....@@@..d
 4020b810 0256af15 421c4e00 00404040 b1076402  .V..B.N..@@@..d.
 4020b820 56d31556 fd0b52a0 64572201 0c0ec861  V..V..R.dW"....a
 4020b830 e0ce9346 2c00206f c0072602 064d002d  ...F,. o..&..M.-
 4020b840 043d0f01 53d8c000 001b2201 40f5c000  .=..S.....".@...
 4020b850 0029012d 0f013df5 c0000029 11285101  .).-..=....).(Q.
 4020b860 70ffc000 003d02f8 01281101 35f5c000  p....=...(..5...
 4020b870 003d022d 0f0131f5 c0000031 64ff3803  .=.-..1....1d.8.
 4020b880 012ff5c0 00000167 ffc00000 c6a6ff20  ./.....g....... 
 4020b890 4fc0d724 02063800 3d0f2d00 013dd8c0  O..$..8.=.-..=..
 4020b8a0 00001b22 012af5c0 0000dd02 2d0f0127  ...".*......-..'
 4020b8b0 f5c00000 fd022841 015affc0 00003d02  ......(A.Z....=.
 4020b8c0 2d0f011f f5c00000 3d022d0d 011cf5c0  -.......=.-.....
 4020b8d0 0000314e ff380301 19f5c000 000151ff  ..1N.8........Q.
 4020b8e0 c00000c6 b4ffcd0d e1c5d80c 0d2d0c01  .............-..
 4020b8f0 d4efc000 00299139 815146ff 41cfef01  .....).9.QF.A...
 4020b900 c8d8c000 005d0e4d 0d01c4d8 c0000001  .....].M........
 4020b910 c5d8c000 00388151 40fffd02 41c7ef28  .....8.Q@...A..(
 4020b920 9101bfd8 c000004d 0d5d0e01 bcd8c000  .......M.]......
 4020b930 00d1a5fd 01bcd8c0 00007138 ff51f7dc  ..........q8.Q..
 4020b940 f0609450 5210c066 012d0cc0 2000422d  .`.PR..f.-.. .B-
 4020b950 a8704410 60442050 4420c020 00c8b1e8  .pD.`D PD . ....
 4020b960 d1426da8 f8e1d8c1 08a112c1 500df0cd  .Bm.........P...
 4020b970 0fc6dcff 0c0f466f fff22113 0c034691  ......Fo..!...F.
 4020b980 ffcd0346 d8ff0000 12c1f0c9 210911cc  ...F........!...
 4020b990 520c000c 0c861200 e61202c6 720032a0  R...........r.2.
 4020b9a0 64b0c211 2d0c01fa d7c00000 0d020ca3  d...-...........
 4020b9b0 2d0c80c0 01c0c831 01f6d7c0 00000ca3  -......1........
 4020b9c0 01c2f9c0 0000a622 02067500 0c104604  ......."..u...F.
 4020b9d0 00c20101 02010080 cc018000 01000831  ...............1
 4020b9e0 c0c831e6 1c050041 21c60100 0b2c0012  ..1....A!....,..
 4020b9f0 400040a1 2175fdc0 20004262 b562cc1e  @.@.!u.. .Bb.b..
 4020ba00 0c050016 400030a1 c035b3c0 20003262  ....@.0..5.. .2b
 4020ba10 a7e61c05 004121c6 01000b7c 00174000  .....A!....|..@.
 4020ba20 40a1c020 000c0642 62eca2cc 1e0c0900  @.. ...Bb.......
 4020ba30 1a400080 a1c089b3 c0200082 62a12610  .@....... ..b.&.
 4020ba40 14662004 0c858603 0032c0fd 0cab5d06  .f ......2....].
 4020ba50 305b8346 00000c25 a6bc0d6c 04404c90  0[.F...%...l.@L.
 4020ba60 00144000 45a14600 000c04c0 20004262  ..@.E.F..... .Bb
 4020ba70 a37c0ba6 1c10e6bc 0d7ce770 7c900017  .|.......|.p|...
 4020ba80 400075a1 c601000c 08507221 c07893c0  @.u......Pr!.x..
 4020ba90 20006c1a 7262a281 72f2c7ab 10d6dc00   .l.rb..r.......
 4020baa0 1ce9909c 90001940 0075a146 00000c07  .......@.u.F....
 4020bab0 7c19c020 007268c3 c7aa1097 ac0d3cc3  |.. .rh.......<.
 4020bac0 303c9000 13400045 a1460000 0c04c020  0<...@.E.F..... 
 4020bad0 004268c2 26101466 20040c40 86030052  .Bh.&..f ..@...R
 4020bae0 c0fd0c54 5064830d 06460000 0c10a6bc  ...TPd...F......
 4020baf0 0d6c0660 6c900016 400040a1 4600000c  .l.`l...@.@.F...
 4020bb00 04c02000 4262efa6 1c10e6bc 0d7ce770  .. .Bb.......|.p
 4020bb10 7c900017 400050a1 c601000c 08005221  |...@.P.......R!
 4020bb20 c05893c0 20005262 eec7ab10 d6dc001c  .X.. .Rb........
 4020bb30 ebb0bc90 001b4000 50a14600 000c05c0  ......@.P.F.....
 4020bb40 20005262 ebc7aa10 97ac0d3c c3303c90   .Rb.......<.0<.
 4020bb50 00134000 00a14600 000c00c0 2000c821  ..@...F..... ..!
 4020bb60 0262ea08 1112c110 0df0d632 e632a064  .b.........2.2.d
 4020bb70 b0c2112d 0c0186d7 c000000d 020ca32d  ...-...........-
 4020bb80 0c0bc080 cc01c0c8 310181d7 c000000c  ........1.......
 4020bb90 a3014df9 c000007c 8337a211 0c104690  ..M....|.7....F.
 4020bba0 ff0c30e6 8202468e ff0c2006 8dff0c30  ..0...F... ....0
 4020bbb0 7ce447a2 02868aff 0c204689 ff000000  |.G...... F.....
 4020bbc0 12c1f009 01015be2 dc221c04 c0200032  ......[.."... .2
 4020bbd0 20e44033 20c02000 3260e406 04006cf6   .@3 . .2`....l.
 4020bbe0 c0200052 20e46055 10c02000 5260e441  . .R .`U.. .R`.A
 4020bbf0 e8f18032 01220440 30383180 22012028  ...2.".@081.". (
 4020bc00 314582ff 080112c1 100df000 12c1f0c2  1E..............
 4020bc10 61010261 0020c220 c59dfc2d 0c05faff  a..a. . ...-....
 4020bc20 c8110801 12c1100d f0000000 00140000  ................
 4020bc30 e3a4fe3f 81bc1409 9841c65a ffff00fc  ...?.....A.Z....
 4020bc40 00009001 fffffffb 00000018 ffffff80  ................
 4020bc50 ff0ff0ff 00200200 a60f0000 0000c0ff  ..... ..........
 4020bc60 54583800 00ff0ff0 e600200b 3ff0ffdf  TX8....... .?...
 4020bc70 400c0020 ffff80ff 00001300 3ff0ffff  @.. ........?...
 4020bc80 800d0000 000000fc 2401fe03 ffffff0f  ........$.......
 4020bc90 000000b0 00000004 ffff0bff 00002400  ..............$.
 4020bca0 ffffbfff ff0f0000 83008000 fff7ffff  ................
 4020bcb0 40a5fe3f 5080fe3f 97a4fe3f a102f952  @..?P..?...?...R
 4020bcc0 af8021db ff61f0f5 12c1e009 41c951e9  ..!..a......A.Q.
 4020bcd0 71d961b1 d6ffd1bc fce1e1f1 c0200092  q.a.......... ..
 4020bce0 2e58b099 20c02000 926e58c0 2000822e  .X.. . ..nX. ...
 4020bcf0 43608820 c0200082 6e437135 dcc02000  C`. . ..nCq5.. .
 4020bd00 422ed070 44106044 20c02000 426ed031  B..pD.`D . .Bn.1
 4020bd10 c9ffc020 00326e5b c1c8ffc0 2000c26e  ... .2n[.... ..n
 4020bd20 5ab1add7 c0200092 2e54b099 10c02000  Z.... ...T.... .
 4020bd30 926e54c0 200072a1 90822ec6 c0200072  .nT. .r...... .r
 4020bd40 6ec641bf ff61bdff c0200032 2dbb6033  n.A..a... .2-.`3
 4020bd50 10403320 c0200032 6dbbc1ba ffc02000  .@3 . .2m..... .
 4020bd60 b22de2c0 bb10c020 00b26de2 a20a00a2  .-..... ..m.....
 4020bd70 caf1c020 00922e52 509910a0 9920c020  ... ...RP.... . 
 4020bd80 00926e52 71b1ff81 f4e0c020 00622e4a  ..nRq...... .b.J
 4020bd90 80661070 6620c020 00626e4a 41acffc0  .f.pf . .bnJA...
 4020bda0 200038de 403310c0 200039de 2202222c   .8.@3.. .9.".",
 4020bdb0 e0076214 c02000c2 2e5150cc 1000cc20  ..b.. ...QP.... 
 4020bdc0 c02000c2 6e51c604 002c63c0 2000222e  . ..nQ...,c. .".
 4020bdd0 51502210 302220c0 2000226e 5102afc0  QP".0" . ."nQ...
 4020bde0 1c1c6179 e4c02000 b22edc00 bb10c0bb  ..ay.. .........
 4020bdf0 20c02000 b26edca1 09fec020 00922da8   . ..n..... ..-.
 4020be00 a09920c0 2000926d a88191ff 7192ffc0  .. . ..m....q...
 4020be10 2000522e 59805510 705520c0 2000526e   .R.Y.U.pU . .Rn
 4020be20 594155fc 318dffc0 2000222e 59402210  YAU.1... .".Y@".
 4020be30 302220c0 2000226e 590188ff c189ffc0  0" . ."nY.......
 4020be40 2000b22e 5700bb10 c0bb20c0 2000b26e   ...W..... . ..n
 4020be50 57a184ff 9185ffc0 2000822e 54a08810  W....... ...T...
 4020be60 908820c0 2000826e 54c02000 52a08072  .. . ..nT. .R..r
 4020be70 2ec6c020 00526ec6 0c44c020 00322ec4  ... .Rn..D. .2..
 4020be80 403320c0 2000326e c42178ff 0179ffc0  @3 . .2n.!x..y..
 4020be90 2000c22e dc20cc10 00cc20c0 2000c26e   .... .... . ..n
 4020bea0 dcb174ff a175ffc0 2000922e c9b09910  ..t..u.. .......
 4020beb0 a09920c0 2000926e c98170ff 7171ffc0  .. . ..n..p.qq..
 4020bec0 2000522e 56805510 705520c0 2000526e   .R.V.U.pU . .Rn
 4020bed0 56416cff 316dffc0 2000222e d3402210  VAl.1m.. ."..@".
 4020bee0 302220c0 2000226e d30168ff c169ffc0  0" . ."n..h..i..
 4020bef0 2000b22e c800bb10 c0bb20c0 2000b26e   ......... . ..n
 4020bf00 c8a164ff c0200092 2de2a099 20c02000  ..d.. ..-... . .
 4020bf10 926de281 61ff7161 ffc02000 52269c80  .m..a.qa.. .R&..
 4020bf20 55107055 20c02000 52669c41 5dffc020  U.pU . .Rf.A].. 
 4020bf30 00322ed1 403310c0 2000326e d10c0205  .2..@3.. .2n....
 4020bf40 c8ffc113 f1080c08 300c02c0 0000a2af  ........0.......
 4020bf50 cf2c0931 78e16142 e00152ff c0200082  .,.1x.aB..R.. ..
 4020bf60 2d8ea088 10908820 c0200082 6d8ec020  -...... . ..m.. 
 4020bf70 00514dff 722e92c0 2000526e 920c64c0  .QM.r... .Rn..d.
 4020bf80 2000222e 93402220 c0200022 6e93c020   ."..@" . ."n.. 
 4020bf90 00026ec7 c02000b2 2ec700bb 20c02000  ..n.. ...... . .
 4020bfa0 b26ec7a1 42ffc020 0098aea0 9910c020  .n..B.. ....... 
 4020bfb0 0099ae7c 980c27c0 20005226 89805510  ...|..'. .R&..U.
 4020bfc0 705520c0 20005266 897ce4c0 20002223  pU . .Rf.|.. ."#
 4020bfd0 f0402210 c0200008 0c022028 2263f0c0  .@".. .... ("c..
 4020bfe0 00000c12 080c0c13 02202b0c c4c00000  ......... +.....
 4020bff0 0c22080c 0c130220 2b42a184 c000000c  ."..... +B......
 4020c000 32080c0c 2302202b 0c64c000 00080c02  2...#. +.d......
 4020c010 202fc000 00284ce1 26ffb7f2 112d0e32   /...(L.&....-.2
 4020c020 a07f4124 ff5124ff 1c060c07 c509fe0c  ..A$.Q$.........
 4020c030 120c0842 2c783160 f27122f8 52c36062  ...B,x1`.q".R.`b
 4020c040 c3167207 00e90189 11892189 311b7770  ..r.......!.1.wp
 4020c050 70748523 fe0c1e81 f6fe980c 82082292  pt.#..........".
 4020c060 29270768 2822a077 0c031c24 0c750c06  )'.h(".w...$.u..
 4020c070 72a0d8c0 090022a0 770c031c 840c1508  r.....".w.......
 4020c080 0c0c1602 20270c17 c0000006 040022a0  .... '........".
 4020c090 770c031c 240c750c 0672a0e8 c00900c0  w...$.u..r......
 4020c0a0 2000222d 98e02220 c02000c8 51226d98   ."-.." . ..Q"m.
 4020c0b0 e871d861 084112c1 200df000 12c1f002  .q.a.A.. .......
 4020c0c0 61008507 0522a064 0163d4c0 00000221  a....".d.c.....!
 4020c0d0 0012c110 80000000 ffff1ff0 ffffff1f  ................
 4020c0e0 ff3fe0ff 00401f00 ffff00ff 0000ab00  .?...@..........
 4020c0f0 ff00ffff b1f9ffa1 7ef5310e e1c02000  ........~.1... .
 4020c100 2223e6b0 2210a022 20c02000 2263e6c0  "#..".." . ."c..
 4020c110 20009223 e7b09910 a09920c0 20009263   ..#...... . ..c
 4020c120 e781eeff 713efdc0 20006223 e5806610  ....q>.. .b#..f.
 4020c130 706620c0 20006263 e551e9ff 41eaffc0  pf . .bc.Q..A...
 4020c140 20002223 e6502210 402220c0 20002263   ."#.P".@" . ."c
 4020c150 e6b1e5ff a1e6ffc0 20009223 e8b09910  ........ ..#....
 4020c160 a09920c0 20009263 e881e1ff 72a100c0  .. . ..c....r...
 4020c170 20006223 f2806610 706620c0 20006263   .b#..f.pf . .bc
 4020c180 f252af80 4c74c020 002223e6 50221040  .R..Lt. ."#.P".@
 4020c190 2220c020 002263e6 0df00000 4ba4fe3f  " . ."c.....K..?
 4020c1a0 ff0fffff 00000e01 00000d01 0000de03  ................
 4020c1b0 0000ed03 12c1f041 f9ff0901 22048201  .......A...."...
 4020c1c0 cbd56622 1752a069 62af94c0 20003220  ..f".R.ib... .2 
 4020c1d0 68603310 503320c0 20003260 68320483  h`3.P3 . .2`h2..
 4020c1e0 26130266 332a0c1a b2afbcc0 20009220  &..f3*...... .. 
 4020c1f0 68b09910 a09920c0 20009260 687ce8c0  h..... . ..`h|..
 4020c200 20007220 5d807710 c0200072 605d3204   .r ].w.. .r`]2.
 4020c210 8352aeff 26230266 332bc020 0021b3d5  .R..&#.f3+. .!..
 4020c220 02228d32 aeff3000 10c02000 0c030c04  .".2..0... .....
 4020c230 02628d0c 150c0201 6ce3c000 0001abd5  .b......l.......
 4020c240 41d7ff52 aeff3204 7c261311 c0200062  A..R..2.|&... .b
 4020c250 208d5066 10c02000 62608d32 047c6623   .Pf.. .b`.2.|f#
 4020c260 1182a100 c0200072 20858077 20c02000  ..... .r ..w . .
 4020c270 72608562 aecf3204 813c0766 1314c020  r`.b..2..<.f... 
 4020c280 00922086 60991070 9920c020 00926086  .. .`..p. . ..`.
 4020c290 460d0066 2311c020 00a2208e 50aa10c0  F..f#.. .. .P...
 4020c2a0 2000a260 8e060800 c0200022 20866022   ..`..... ." .`"
 4020c2b0 10702220 c0200022 6086c020 00b2208e  .p" . ."`.. .. .
 4020c2c0 50bb10c0 2000b260 8e32047e 2c082613  P... ..`.2.~,.&.
 4020c2d0 26263323 26432026 531d3204 8052c3fd  &&3#&C &S.2..R..
 4020c2e0 562510c0 20007220 8d607710 807720c0  V%.. .r .`w..w .
 4020c2f0 20007260 8dc62a00 518fe00c 090ba316   .r`..*.Q.......
 4020c300 ba0fb2c3 fc165b0f 22c3fd16 7215a2c3  ......[."...r...
 4020c310 fb161a15 32ae0fc0 20005220 82305510  ....2... .R .0U.
 4020c320 705520c0 20005260 82c02000 22208330  pU . .R`.. ." .0
 4020c330 22107022 20c02000 226083b2 047fb62b  ".p" . ."`.....+
 4020c340 26c02000 92208560 99108099 20c02000  &. .. .`.... . .
 4020c350 926085c0 20007220 8d607710 807720c0  .`.. .r .`w..w .
 4020c360 20007260 8d060800 c02000b2 208560bb   .r`..... .. .`.
 4020c370 1070bb20 c02000b2 6085c020 00a2208d  .p. . ..`.. .. .
 4020c380 60aa10c0 2000a260 8d32047e 66130206  `... ..`.2.~f...
 4020c390 23006633 02862100 02c3fc16 f00d22c3  #.f3..!.......".
 4020c3a0 fb16920d 017eff41 f2f00200 7d317cff  .....~.A....}1|.
 4020c3b0 66101551 b7e1c020 00281430 22105022  f..Q... .(.0".P"
 4020c3c0 20c02000 29144605 00662012 613ed8c0   . .).F..f .a>..
 4020c3d0 20005814 30551060 5520c020 00591408   .X.0U.`U . .Y..
 4020c3e0 0112c110 0df06623 bac02000 72208560  ......f#.. .r .`
 4020c3f0 77108077 20c02000 72608546 e9ff3204  w..w . .r`.F..2.
 4020c400 7fa2c3fd 16fa0cb2 c3fb169b 0cf62302  ..............#.
 4020c410 462c0021 64ffc020 00226540 06bdff32  F,.!d.. ."e@...2
 4020c420 047f6613 1e0c120c 030c140c 0501eee2  ..f.............
 4020c430 c000000c 020c830c 840c0501 ebe2c000  ................
 4020c440 00c6d7ff 56c3f50c 020c130c 140c0501  ....V...........
 4020c450 e6e2c000 000c820c 030c840c 0501e2e2  ................
 4020c460 c0000046 cfff3204 7f263376 265373b6  ...F..2..&3v&Ss.
 4020c470 235b314d ffc02000 32654046 a5ff3204  #[1M.. .2e@F..2.
 4020c480 7f66131e 0c020c13 0c140c05 01d7e2c0  .f..............
 4020c490 00000c82 0c030c84 0c0501d3 e2c00000  ................
 4020c4a0 06c0ff56 d3ef0c12 0c030c14 0c0501ce  ...V............
 4020c4b0 e2c00000 0c020c83 0c840c05 01cbe2c0  ................
 4020c4c0 000086b7 ffc02000 92654046 91ffc020  ...... ..e@F... 
 4020c4d0 00926540 068fff91 35ffc020 00926540  ..e@....5.. ..e@
 4020c4e0 068cffa1 33ffc020 00a26540 0689ff00  ....3.. ..e@....
 4020c4f0 8da4fe3f 803fe00f ffffcfff 12c1f009  ...?.?..........
 4020c500 0101fbff 22008056 620801a1 ef22a066  ...."..Vb....".f
 4020c510 08000c33 0220240c 14c00000 319def22  ...3. $.....1.."
 4020c520 639c2104 e0c02000 5222e552 639dc020  c.!... .R".Rc.. 
 4020c530 004222e6 42639ec0 20000c14 0c550c06  .B".Bc.. ....U..
 4020c540 3cc72222 e722639f 080322a0 66022027  <.""."c...".f. '
 4020c550 0c33c000 0001e6ff 21e7ffc0 200071f5  .3......!... .q.
 4020c560 dfb227e7 20bb20c0 2000b267 e7a1c7fd  ..'. . . ..g....
 4020c570 c0200092 27e6a099 20c02000 9267e681  . ..'... . ..g..
 4020c580 deffc020 006227e5 806610c0 20006267  ... .b'..f.. .bg
 4020c590 e50c1332 40800801 12c1100d f0000000  ...2@...........
 4020c5a0 90a4fe3f 12c1f009 0101fdff 22007d66  ...?........".}f
 4020c5b0 123822a0 660c3301 76ef0c14 080051f8  .8".f.3.v.....Q.
 4020c5c0 ff022026 520580c0 000001f5 ff31d9df  .. &R........1..
 4020c5d0 522021c0 20005263 e5422022 c0200042  R !. .Rc.B ". .B
 4020c5e0 63e62220 23c02000 2263e70c 0662407d  c." #. ."c...b@}
 4020c5f0 080112c1 100df000 12c1f009 01661205  .............f..
 4020c600 85efff86 0000c5f9 ff080112 c1100df0  ................
 4020c610 00004000 6ca4fe3f 00780000 12c1e002  ..@.l..?.x......
 4020c620 6104c951 218fdec1 5aefc020 00422297  a..Q!...Z.. .B".
 4020c630 c0200032 2296c020 00104840 0c130c74  . .2".. ..H@...t
 4020c640 0c350c26 0c07080c 22229702 202722a0  .5.&...."".. '".
 4020c650 61c00000 c5a9ff22 a0770c03 1c040c05  a......".w......
 4020c660 080c0c06 0220270c 17c00000 85b70131  ..... '........1
 4020c670 d2f02d03 4b33c5f4 00484c67 f40e0c02  ..-.K3...HLg....
 4020c680 8533fc71 e3ff684c 70662069 4c4516fe  .3.q..hLpf iLE..
 4020c690 81e1ff82 08868c68 0c028574 fe060100  .......h...t....
 4020c6a0 0c120574 fe4c050c 070c060c 190c0a41  ...t.L.........A
 4020c6b0 85f621c1 f0820c5f 32c21480 88014214  ..!...._2.....B.
 4020c6c0 01a90199 11808831 82c81f80 88018088  .......1........
 4020c6d0 318068b3 60607405 8a01984c b7f9040c  1.h.``t....L....
 4020c6e0 6245cbfc 455dff0c 220137e2 c02000b2  bE..E]..".7.. ..
 4020c6f0 209c20bb 20c02000 0c120c73 0c5451c6   . . . ....s.TQ.
 4020c700 ff0c160c 07b2609c a1acf0a9 0145a4fe  ......`......E..
 4020c710 45130238 4cb77327 c55afc62 abff5114  E..8L.s'.Z.b..Q.
 4020c720 f0c02000 4225d060 4410c020 004265d0  .. .B%.`D.. .Be.
 4020c730 0c02854d ff080c02 2016229c 1fc00000  ...M.... .".....
 4020c740 85b300c1 b4ff220c 86320c87 420c88c5  ......"..2..B...
 4020c750 f4fc020c 77261014 26201122 a00085e9  ....w&..& ."....
 4020c760 ff22a000 c8510841 12c1200d f00c1285  ."...Q.A.. .....
 4020c770 e8ffc6fa ff000000 dca4fe3f b4a2fe3f  ...........?...?
 4020c780 10a3fe3f 12c1d0c9 71e991d9 810961d1  ...?....q.....a.
 4020c790 faff0c00 0941322d 11220d23 1b33326d  .....A2-.".#.32m
 4020c7a0 11379207 0c1e026d 11860000 00e020e2  .7.....m...... .
 4020c7b0 4d2e22c1 1031f1ff 85e000c1 f5ee16ee  M."..1..........
 4020c7c0 07420d16 56840722 a07732a0 0042a00f  .B..V..".w2..B..
 4020c7d0 0c150c16 e20c4008 0c80ee01 022025e0  ......@...... %.
 4020c7e0 e831c000 000c030c f40c150c 160c1708  .1..............
 4020c7f0 0c295102 202722a0 77c00000 414ad938  .)Q. '".w...AJ.8
 4020c800 4c0c1240 3310394c 855dfe98 0c520d30  L..@3.9L.]...R.0
 4020c810 9229279c 1522a077 0c030cf4 0c150c16  .)'..".w........
 4020c820 0c17c009 00860400 22a07732 a00042a0  ........".w2..B.
 4020c830 0f52a001 0c167851 c009002d 0e85b5fc  .R....xQ...-....
 4020c840 0c0232c1 10811afd 422c780c 0951ccff  ..2.....B,x..Q..
 4020c850 711df662 c5b67207 00991199 21993189  q..b..r.....!.1.
 4020c860 011b7770 707445a2 fd2153f0 0c0432c2  ..wpptE..!S...2.
 4020c870 53453efd 4d0221de f9426c7b 9b32853d  SE>.M.!..Bl{.2.=
 4020c880 fdc871d8 81e89108 6112c130 0df00000  ..q.....a..0....
 4020c890 12c1f009 1121f2dd c0200042 22854901  .....!... .B".I.
 4020c8a0 7ce3c020 00022285 300010c0 20000262  |.. ..".0... ..b
 4020c8b0 855c0201 8ae1c000 000c1201 66d2c000  .\..........f...
 4020c8c0 000c877c 3861aaef c0200052 26d08055  ...|8a... .R&..U
 4020c8d0 10705520 c0200052 66d022a3 e8015dd2  .pU . .Rf."...].
 4020c8e0 c000000c 4bc02000 a1a2ef92 2ad07c30  ....K. .....*.|0
 4020c8f0 009910b0 9920c020 00926ad0 0c120155  ..... . ..j....U
 4020c900 d2c00000 c0200031 d6dd2801 22638507  ..... .1..(."c..
 4020c910 620822a0 a00171e1 c0000008 1112c110  b."...q.........
 4020c920 0df00000 8fa4fe3f 12c1f009 1101fdff  .......?........
 4020c930 0c063200 95520069 cc630c14 42409546  ..2..R.i.c..B@.F
 4020c940 0c002261 00624095 17e52822 a0044586  .."a.b@...("..E.
 4020c950 0301f4ff 72009656 570045f3 ff01f1ff  ....r..VW.E.....
 4020c960 22210082 a0008240 9685e1ff 22a0040c  "!.....@...."...
 4020c970 03459703 081112c1 100df000 98a4fe3f  .E.............?
 4020c980 9aa4fe3f 9ca4fe3f 0c06a109 f0420200  ...?...?.....B..
 4020c990 5d0a92ca c0424a00 320201fb 7a303104  ]....BJ.2...z01.
 4020c9a0 324a022a 861b6682 08028245 031b5577  2J.*..f....E..Uw
 4020c9b0 95f05d0a 81c1fc0c 062a361b 551b6642  ..]......*6.U.fB
 4020c9c0 03114245 11720314 80b4017a 44424514  ..BE.r.....zDBE.
 4020c9d0 320317b0 b8313abb b2451787 95da5d0a  2....1:..E....].
 4020c9e0 71e7ff0c 080c06b2 021ab249 5c42021b  q..........I\B..
 4020c9f0 42495d2a 4632021c b2021d30 30548033  BI]*F2.....00T.3
 4020ca00 1130bb20 b2592f1b 6642041e 42452080  .0. .Y/.fB..BE .
 4020ca10 34013038 31e66302 77640282 45202a46  4.081.c.wd..E *F
 4020ca20 1b557795 e15d0a71 d6ff0c06 2a861b66  .Uw..].q....*..f
 4020ca30 82082282 45241b55 7795f05d 0a71d1ff  ..".E$.Uw..].q..
 4020ca40 0c062aa6 1b66a20a 28a2452a 1b557795  ..*..f..(.E*.Uw.
 4020ca50 f00c5532 02303249 41b20231 b24973a2  ..U2.02IA..1.Is.
 4020ca60 0232a249 74820233 82497572 02347249  .2.It..3.Iur.4rI
 4020ca70 76620235 62497742 02364249 78320237  vb.5bIwB.6BIx2.7
 4020ca80 324979b2 0238b249 7aa20240 a2497b82  2Iy..8.Iz..@.I{.
 4020ca90 02418249 7c720242 62024370 70548077  .A.I|r.Bb.CppT.w
 4020caa0 11706620 62593f42 02444249 80320245  .pf bY?B.DBI.2.E
 4020cab0 324981b2 0247a202 4680bb01 80aa01a0  2I...G..F.......
 4020cac0 a831b0b8 3180bb11 b0aa20a2 59418202  .1..1..... .YA..
 4020cad0 49720248 80880180 77017078 31808831  Ir.H....w.px1..1
 4020cae0 80881180 77207259 4262024a 62498642  ....w rYBb.JbI.B
 4020caf0 024b6d05 40403442 4988f664 016d0462  .Km.@@4BI..d.m.b
 4020cb00 49888202 4b808424 82498a72 024b7077  I...K..$.I.r.Kpw
 4020cb10 0472498c 62024c60 60346249 87673501  .rI.b.L``4bI.g5.
 4020cb20 5d065249 8762024c 60642462 49894202  ].RI.b.L`d$bI.B.
 4020cb30 4c404704 42498b32 024d3030 3432498e  L@G.BI.2.M0042I.
 4020cb40 b2024db0 b434b249 8da2024e a2498f82  ..M..4.I...N.I..
 4020cb50 024f8249 90720250 72499162 02516249  .O.I.r.PrI.b.QbI
 4020cb60 92420252 42499332 02533249 94b20254  .B.RBI.2.S2I...T
 4020cb70 b249950c 1ba20255 a2499682 02568249  .I.....U.I...V.I
 4020cb80 97720257 72499862 02586249 99420259  .r.WrI.b.XbI.B.Y
 4020cb90 42499a32 025a3249 9ba2025b b2499da2  BI.2.Z2I...[.I..
 4020cba0 499c8202 5d82499e 72025e72 499f6202  I...].I.r.^rI.b.
 4020cbb0 5f6249a0 42026042 49a13202 613249a2  _bI.B.`BI.2.a2I.
 4020cbc0 b20262b2 49a3a202 63a249a4 82026482  ..b.I...c.I...d.
 4020cbd0 49a57202 657249a6 62026662 49a74202  I.r.erI.b.fbI.B.
 4020cbe0 674249a8 32026832 49a9b202 69b249aa  gBI.2.h2I...i.I.
 4020cbf0 a2026aa2 49ab8202 6b8249ac 72026c72  ..j.I...k.I.r.lr
 4020cc00 49ad6202 6d6249ae 42026e42 49af3202  I.b.mbI.B.nBI.2.
 4020cc10 6f3249b0 b20270b2 49b1a202 71a249b2  o2I...p.I...q.I.
 4020cc20 0c020df0 70008000 12c1f002 6102c261  ....p.......a..a
 4020cc30 037cf2c1 2ed301d6 edc02000 0c230c84  .|........ ..#..
 4020cc40 0c050800 226c4902 202622a0 6ac00000  ...."lI. &".j...
 4020cc50 0c02c020 00226c43 0c3245d2 02c02000  ... ."lC.2E... .
 4020cc60 0c07726c 50c02000 726c517c e6c02000  ..rlP. .rlQ|.. .
 4020cc70 522c6a60 5510c020 00526c6a c0200042  R,j`U.. .Rlj. .B
 4020cc80 2c404911 31e8ffc0 2000326c 400c820c  ,@I.1... .2l@...
 4020cc90 0385e102 9151f8c0 2000822c 4201d3f6  .....Q.. ..,B...
 4020cca0 90882002 00808901 66102c22 a06701b8  .. .....f.,".g..
 4020ccb0 ed0c4308 000c1402 202652a0 88c00000  ..C..... &R.....
 4020ccc0 22a06701 b3ed0c43 08000c24 02202652  ".g....C...$. &R
 4020ccd0 a091c000 00460700 66201a22 a06732a0  .....F..f .".g2.
 4020cce0 0442a002 01abed52 a0070800 0c560220  .B.....R.....V. 
 4020ccf0 270c27c0 0000c020 00280122 6c420c12  '.'.... .(."lB..
 4020cd00 851003c0 20003811 0821326c 40c83112  .... .8..!2l@.1.
 4020cd10 c1100df0 47a4fe3f 12c1f009 0145dc02  ....G..?.....E..
 4020cd20 01fdff32 004e0200 b29c4366 100885ef  ...2.N....Cf....
 4020cd30 ff060300 000000cc 60261204 8c1285ee  ........`&......
 4020cd40 ff080112 c1100df0 143a0040 a4380040  .........:.@.8.@
 4020cd50 12c1f009 0101a5f6 218eed02 00802842  ........!.....(B
 4020cd60 bc80b7f2 3605ecff 01f3ddc0 20003220  ....6....... .2 
 4020cd70 46277327 c0200042 2046404d 2566241b  F's'. .B F@M%f$.
 4020cd80 51dbd2c0 20005225 8887650f 0c1201ee  Q... .R%..e.....
 4020cd90 ffc00000 0c1201ed ffc00000 080112c1  ................
 4020cda0 100df000 4aa4fe3f 01010101 04040404  ....J..?........
 4020cdb0 04010104 01040401 ffc3ffff 00080000  ................
 4020cdc0 01010104 04040401 71f7ff31 a5ed4207  ........q..1..B.
 4020cdd0 7f51f5ff 26146826 346561f4 ff264471  .Q..&.h&4ea..&Dq
 4020cde0 26546e42 07816624 1121f1ff c0200022  &TnB..f$.!... ."
 4020cdf0 63d8c020 006263d9 46040066 340e41ed  c.. .bc.F..f4.A.
 4020ce00 ffc02000 4263d8c0 20005263 d9a184ee  .. .Bc.. .Rc....
 4020ce10 c0200092 2340a099 20c02000 92634081  . ..#@.. . ..c@.
 4020ce20 e6ff71e6 ffc02000 62234280 66107066  ..q... .b#B.f.pf
 4020ce30 20c02000 6263420c 25c02000 59a30df0   . .bcB.%. .Y...
 4020ce40 c0200052 63d8b1de ffc02000 b263d986  . .Rc..... ..c..
 4020ce50 eeffc020 006263d8 21dbffc0 20002263  ... .bc.!... ."c
 4020ce60 d906eaff 2480fe3f 00000066 ffff70fc  ....$..?...f..p.
 4020ce70 a81f1040 21fcff12 c1f00901 01fdffc0  ...@!...........
 4020ce80 000021f9 ff3199d2 0142edc0 20000c34  ..!..1...B.. ..4
 4020ce90 0c750c46 0c070800 22634422 a0620220  .u.F...."cD".b. 
 4020cea0 270c13c0 000041f1 ff316ddc c0200022  '.....A..1m.. ."
 4020ceb0 23864022 10c02000 0c040135 ed2c5508  #.@".. ....5.,U.
 4020cec0 00226386 22a06a02 20260c23 c0000008  ."c.".j. &.#....
 4020ced0 0112c110 0df00000 780e0060 61a3dc0c  ........x..`a...
 4020cee0 0571fdff c0200032 26804b66 50532077  .q... .2&.KfPS w
 4020cef0 96f1419d dc8ce2c0 20002224 9e0c1620  ..A..... ."$... 
 4020cf00 25c02026 930df0c0 20005264 9e0c020d  %. &.... .Rd....
 4020cf10 f0000000 4195dcc0 20003224 9ec02000  ....A... .2$.. .
 4020cf20 62249800 52116033 206060f4 60552050  b$..R.`3 ``.`U P
 4020cf30 3320c020 00526498 c0200032 649e0df0  3 . .Rd.. .2d...
 4020cf40 12c1f009 01004211 3188dcc0 20000223  ......B.1... ..#
 4020cf50 980000f4 400020c0 20000c02 026398c5  ....@. . ....c..
 4020cf60 f7ff0801 12c1100d f0000000 fc8a2040  .............. @
 4020cf70 54f22040 84f02040 84ea2040 68842040  T. @.. @.. @h. @
 4020cf80 48872040 d8ae2040 24af2040 80af2040  H. @.. @$. @.. @
 4020cf90 e0e92040 5c8c2040 549c2040 a8731040  .. @\. @T. @.s.@
 4020cfa0 4aa6fe3f 00b92240 0da3fe3f 20b92240  J..?.."@...? ."@
 4020cfb0 00006401 086b0040 881f1040 12c1e0c9  ..d..k.@...@....
 4020cfc0 31d941f9 610921e9 510c15ed 0221e8ed  1.A.a.!.Q....!..
 4020cfd0 c0200042 22d25044 20c02000 4262d27c  . .B".PD . .Bb.|
 4020cfe0 e3c02000 0222d230 0010c020 000262d2  .. ..".0... ..b.
 4020cff0 01f1ffc0 0000d1de fff1dcff 61e3ff41  ............a..A
 4020d000 e4ff31e4 ff01e4ff 51e1ff71 deff81dc  ..1.....Q..q....
 4020d010 ff91daff a1d9ffc1 deecb1d6 ff290cb2  .............)..
 4020d020 6212a262 3a926228 82622279 a2526219  b..b:.b(.b"y.Rb.
 4020d030 02621ec2 dc023262 36499262 6216f262  .b....2b6I.bb..b
 4020d040 1fd26243 d1d7fff1 d5ff620d 00f2621d  ..bC......b...b.
 4020d050 dc262d0e 0593ff29 010ce009 11220c18  .&-....)....."..
 4020d060 224c8646 040031ca ec0c0432 03404901  "L.F..1....2.@I.
 4020d070 80330130 38313911 0c00420c 65611bd2  .3.0819...B.ea..
 4020d080 27640e52 0c668055 01505831 d0551152  'd.R.f.U.PX1.U.R
 4020d090 5c34c020 00622645 e134dc60 60246626  \4. .b&E.4.``$f&
 4020d0a0 07820d00 0c178007 83024c87 009074bc  ..........L...t.
 4020d0b0 a9c02000 f22e980c 12f0f075 c5e1ff22  .. ........u..."
 4020d0c0 4c888c92 21b8ff01 73dbc000 000c0f52  L...!...s......R
 4020d0d0 cffc0c02 62cffe0c 030b7f0c 140c0070  ....b..........p
 4020d0e0 04836034 83502483 29714602 000c030c  ..`4.P$.)qF.....
 4020d0f0 000c0f0c 08897192 0d000c04 ec19a20c  ......q.........
 4020d100 8716da13 520c6116 9516c020 00d22e98  ....R.a.... ....
 4020d110 d0d0f4d0 b5c0562b 14424c89 0c0d8648  ......V+.BL....H
 4020d120 00dd0416 40110c00 31a0ff02 4c8952c3  ....@...1...L.R.
 4020d130 f642c3a3 9cd0020c 88dc802d 043d050c  .B.........-.=..
 4020d140 0445b4fc 4d022192 ec3197ff 42627b22  .E..M.!..1..Bb{"
 4020d150 c26445b3 fc85bfff c5c6ff85 05ff4544  .dE...........ED
 4020d160 ff38718c 43c5d0ff 06020021 3eff0192  .8q.C......!>...
 4020d170 ffc00000 420c878c e45d0f4d 0d218bff  ....B....].M.!..
 4020d180 320c8901 44dbc000 00d185ff 0181ec52  2...D..........R
 4020d190 0d000840 66150db7 f02e2811 851ffc86  ...@f.....(.....
 4020d1a0 09000000 000c0421 04ee51b2 f032c253  .......!..Q..2.S
 4020d1b0 50502059 0205aafc 6176ec4d 0222667b  PP Y....av.M."f{
 4020d1c0 32c66d22 c66405a9 fc9179ff c0200082  2.m".d....y.. ..
 4020d1d0 2e9f8080 f4908820 c0200082 6e9f720c  ....... . ..n.r.
 4020d1e0 4d662740 e20c4c92 0c5af20c 5db20c4a  Mf'@..L..Z..]..J
 4020d1f0 a20c4980 bb11b0aa 20b20c5b 80ff0180  ..I..... ..[....
 4020d200 bb11b099 20b20c4b 80ee0100 bb11e0bb  .... ..K........
 4020d210 20e20c5c b0aa2000 ee11f0ee 20e09920   ..\.. ..... .. 
 4020d220 c0200099 0a280108 21c8310c 1ef861e2  . ...(..!.1...a.
 4020d230 4d00d841 e85112c1 200df0ac a30c1046  M..A.Q.. ......F
 4020d240 b9ffdd04 51f4d4c0 2000222e 98502210  ....Q... ."..P".
 4020d250 d02220c0 2000226e 9886b1ff 1bdd0c12  ." . ."n........
 4020d260 224c89d0 d0f486f6 ff387102 0c893004  "L.......8q...0.
 4020d270 93c6acff 0c1d86f2 ff000000 9145ec12  .............E..
 4020d280 c1f0619b fc090102 06653206 9c980922  ..a......e2...."
 4020d290 067f9229 27302220 20002000 00749c10  ...)'0"  . ..t..
 4020d2a0 22a0770c 030cf40c 150c160c 17c00900  ".w.............
 4020d2b0 c6040022 a0770c03 0cf40c15 7206640c  ...".w......r.d.
 4020d2c0 16707004 c0090008 0112c110 0df00000  .pp.............
 4020d2d0 ff1ffeff 1c8861fe ff5196dc 3072110c  ......a..Q..0r..
 4020d2e0 025042a0 c0200032 24c16033 10303720  .PB.. .2$.`3.07 
 4020d2f0 c0200032 64c11b22 20207487 92e20df0  . .2d.."  t.....
 4020d300 e40c0000 2020f412 c1f00921 02a70727  ....  .....!...'
 4020d310 b00531fb ff27b302 21faff01 1dec3220  ..1..'..!.....2 
 4020d320 19080030 30f53901 08e00c33 c0000001  ...00.9....3....
 4020d330 18ec0c33 08002911 08e02801 c0000048  ...3..)...(....H
 4020d340 1102a07f 2044c022 af81f044 11004411  .... D."...D..D.
 4020d350 4040312b 44404221 00441140 4031e6e4  @@1+D@B!.D.@@1..
 4020d360 010d0427 20012d00 08210022 11202031  ...' .-..!.".  1
 4020d370 12c1100d f0000000 12c1e0d9 51c941dd  ............Q.A.
 4020d380 033103ec 09310203 40cd02f6 701e4293  .1...1..@...p.B.
 4020d390 0e0b2032 930f4921 4033c030 22820c53  .. 2..I!@3.0"..S
 4020d3a0 017cd1c0 00000821 2a000613 00f6a01f  .|.....!*.......
 4020d3b0 42930f22 c0fa3293 10491140 33c03022  B.."..2..I.@3.0"
 4020d3c0 820c5301 73d1c000 0008112a 00460a00  ..S.s......*.F..
 4020d3d0 2293110c d407341f 0050a032 93103901  ".....4..P.2..9.
 4020d3e0 52c5c930 22c02025 821c6301 69d1c000  R..0". %..c.i...
 4020d3f0 0008012a 00460000 0d022d0c 317ff500  ...*.F....-.1...
 4020d400 40114040 31c55afd 0c001b70 0a6c5206  @.@@1.Z....p.lR.
 4020d410 00700074 5a5d5246 006660ed c841d851  .p.tZ]RF.f`..A.Q
 4020d420 083112c1 200df000 12c1f0c9 31c13dfd  .1.. .......1.=.
 4020d430 2d01320c 9b092180 33013038 3185f3ff  -.2...!.3.081...
 4020d440 0c550c42 62010502 0c970c07 67b01552  .U.Bb.......g..R
 4020d450 4c9d0006 c0000274 0c16624c 9cf6204b  L......t..bL.. K
 4020d460 0ce28608 00724c9c 3201046d 07373012  .....rL.2..m.70.
 4020d470 4201035d 0247b043 c6010052 010057b0  B..].G.C...R..W.
 4020d480 6e0c1552 4c9d0cf2 8c4685e4 ff860400  n..RL....F......
 4020d490 620c638c 76220c64 85e3ff06 01000cf2  b.c.v".d........
 4020d4a0 05e3ffc8 31082112 c1100df0 f660040c  ....1.!......`..
 4020d4b0 d2c6f4ff f6800f0c 92c6f2ff 8201020c  ................
 4020d4c0 3587b00c c6eeff0c a907390f 0cc286ed  5.........9.....
 4020d4d0 ffa20101 a7b0a30c 2586e9ff 0cdb073b  ........%......;
 4020d4e0 040c8246 e8ff1c13 37309c2d 07c6e5ff  ...F....70.-....
 4020d4f0 5d0746e3 ff000000 a6a4fe3f 31ffff12  ].F........?1...
 4020d500 c1f00921 22438001 a2eb3d01 22004085  ...!"C....=.".@.
 4020d510 65fd0821 12c1100d f0000000 aaa4fe3f  e..!...........?
 4020d520 12c1f009 01c5ddff 01fdff22 40800801  ..........."@...
 4020d530 12c1100d f0000000 0c040c02 51a3f60c  ............Q...
 4020d540 c7c02000 1b846225 8ce09411 00194060  .. ...b%......@`
 4020d550 30148040 74606841 7066106a 330033a1  0..@t`hApf.j3.3.
 4020d560 3a226684 db0df000 000ef23f 3189eb21  :"f........?1..!
 4020d570 feff3223 a4c02000 22221130 22300df0  ..2#.. ."".0"0..
 4020d580 26421426 b2091c23 3712101c 44471203  &B.&...#7...DG..
 4020d590 0c120df0 0c320df0 0c020df0 0c220df0  .....2......."..
 4020d5a0 8cf22612 0526220e 2632031c 020df01c  ..&..&".&2......
 4020d5b0 420df00c 420df01c 220df000 2280fe3f  B...B..."..."..?
 4020d5c0 00000800 12c1e0d9 31f951c9 21e94109  ........1.Q.!.A.
 4020d5d0 11ed0308 02cd0200 030556e0 08f16ceb  ..........V...l.
 4020d5e0 21f7ff08 0f221200 02202920 2044c000  !...."... )  D..
 4020d5f0 000c1208 0f0c1302 202b1cf4 c000000c  ........ +......
 4020d600 0dd02d20 85f9ff42 a1f452a0 0c106120  ..- ...B..R...a 
 4020d610 080f3d02 02203a0c 02c00000 02010022  ..=.. :........"
 4020d620 01018000 01802201 20283100 08318022  ......". (1..1."
 4020d630 11200020 e02d9002 52001bdd d0d07466  . . .-..R.....tf
 4020d640 4dbe3d01 21deff0c 14221200 450d0021  M.=.!...."..E..!
 4020d650 dbff3d01 22120005 0300080f 02202ad1  ..=."........ *.
 4020d660 d8ffc000 00280cd0 2220290c c821d831  .....(.." )..!.1
 4020d670 e841f851 081112c1 200df000 ff00f0ff  .A.Q.... .......
 4020d680 ff3f00f0 00c0ffff 80921181 fcff71a9  .?............q.
 4020d690 dbb1fbff a1fcff12 c1f0c911 e9310901  .............1..
 4020d6a0 d9210c00 1c8d7050 a0c02000 4225c180  .!....pP.. .B%..
 4020d6b0 44109044 20c02000 4265c100 21417022  D..D . .Be..!Ap"
 4020d6c0 a0620301 52030080 66018055 01505831  .b..R...f..U.PX1
 4020d6d0 60683107 601d20e5 11b04601 c02000c2  `h1.`. ...F.. ..
 4020d6e0 2281b0cc 1040cc20 e0cc20c0 2000c262  "....@. .. . ..b
 4020d6f0 81c60500 904611c0 2000e222 81a0ee10  .....F.. .."....
 4020d700 40ee2050 ee20c020 00e26281 1b000000  @. P. . ..b.....
 4020d710 74d79091 c811d821 e8310801 12c1100d  t......!.1......
 4020d720 f0000000 20204412 c1f04901 c9210911  ....  D...I..!..
 4020d730 cd03c5e4 ff41a0ec 40229032 1202324c  .....A..@".2..2L
 4020d740 00221202 08012028 41224c01 bc400c02  .".... (A"L..@..
 4020d750 0c23420c 00010eeb 80440108 00404831  .#B......D...@H1
 4020d760 02202b40 40f4c000 000c120c 23420c01  . +@@.......#B..
 4020d770 0108eb80 44010800 40483102 202b4040  ....D...@H1. +@@
 4020d780 f4c00000 c8210811 12c1100d f0000000  .....!..........
 4020d790 26121426 22152632 16264217 42c2fb0c  &..&".&2.&B.B...
 4020d7a0 630c5240 23830df0 0ce20df0 0ca20df0  c.R@#...........
 4020d7b0 0c820df0 0c720df0 12c1e009 013951c9  .....r.......9Q.
 4020d7c0 11d921f9 41e931fd 03ed02d2 13002202  ..!.A.1.......".
 4020d7d0 00d0c924 d0303480 02010008 31d0d404  ...$.04.....1...
 4020d7e0 d0dd9030 dd90d0d0 74a6107c 664d1002  ...0....t..|fM..
 4020d7f0 c0f82bdd d0d07402 4e008000 01000831  ..+...t.N......1
 4020d800 a6103ef6 7c1e2d0c 45f8ff02 0e001bcc  ..>.|.-.E.......
 4020d810 c0c07420 00c0024e 00800001 000831a6  ..t ...N......1.
 4020d820 101f667c e0a61019 f69d1602 c0f82bdd  ..f|..........+.
 4020d830 d0d07402 4e008000 01000831 a61002b6  ..t.N......1....
 4020d840 9de8c0ec 110801c8 11fbeee0 e074b0ee  .............t..
 4020d850 11b66d04 abddd0d0 74eaede2 5f00d821  ..m.....t..._..!
 4020d860 e831f841 12c1200d f07762d5 b67d16d2  .1.A.. ..wb..}..
 4020d870 cdfe8b20 224e00d0 d0748002 01000831  ... "N...t.....1
 4020d880 776202f6 7de8d680 fbb62c1d 0bccc0c0  wb..}.....,.....
 4020d890 742d0cc5 efff320e 002a2322 4e008002  t-....2..*#"N...
 4020d8a0 01000831 77620266 1ce1d640 f9666d91  ...1wb.f...@.fm.
 4020d8b0 d2cdfe8b 20224e00 d0d074c6 e0ff0000  .... "N...t.....
 4020d8c0 12c1e029 4109712d 01050b01 0c335211  ...)A.q-.....3R.
 4020d8d0 03b21102 821101a2 11077211 06921105  ..........r.....
 4020d8e0 62110401 abea0c04 2d040800 9a66aa77  b.......-....f.w
 4020d8f0 ba8808e0 8a557077 90606690 7066c070  .....Upw.`f.pf.p
 4020d900 55d00055 11006611 60603150 50315025  U..U..f.``1PP1P%
 4020d910 b36046b3 00441100 22112020 31404031  .`F..D..".  1@@1
 4020d920 4951c000 00019aea 0c330800 296108e0  IQ.......3..)a..
 4020d930 2851c000 00386108 712033c0 284112c1  (Q...8a.q 3.(A..
 4020d940 203a2200 22112020 310df000 f00b0000   :".".  1.......
 4020d950 e7a2fe3f 0ba5fe3f 0c135cf4 21fcff12  ...?...?..\.!...
 4020d960 c1e0c961 0951c115 ff0189ea 225c0008  ...a.Q......"\..
 4020d970 00225c00 02202b0c 72c00000 0c020184  ."\.. +.r.......
 4020d980 ea0c1308 00421c00 02202b40 4044c000  .....B... +@@D..
 4020d990 00221c00 32c1100c 1485d8ff 4c0231ec  ."..2.......L.1.
 4020d9a0 ff0c141c f572c112 81ebff62 1c0092a1  .....r.....b....
 4020d9b0 38606044 99018208 008911c5 49010201  8``D........I...
 4020d9c0 122c4780 00010008 31072702 e6a0391c  .,G.....1.'...9.
 4020d9d0 823d0c00 22c02241 1222c112 85ddff0c  .=.."."A."......
 4020d9e0 72016bea 0c130800 421c0002 202b4045  r.k.....B... +@E
 4020d9f0 41c00000 0c020166 ea0c1308 00421c00  A......f.....B..
 4020da00 02202b40 4044c000 00221c00 32c1100c  . +@@D..."..2...
 4020da10 1405d1ff 221c0032 c110c5c6 ff085122  ...."..2......Q"
 4020da20 1c0031e5 ebc86122 532d12c1 200df000  ..1...a"S-.. ...
 4020da30 0c050c06 0c072040 740c0312 c1e0c951  ...... @t......Q
 4020da40 d9610941 e9713921 3911e151 ea390108  .a.A.q9!9..Q.9..
 4020da50 0e0c1202 201a4c03 c000000c 0d0c0c08  .... .L.........
 4020da60 0e08b022 a138c000 001bddca c200cc11  ...".8..........
 4020da70 c0c03166 4de8080e 02201b0c 12c00000  ..1fM.... ......
 4020da80 0841d861 4b3cbb2c e871c851 3023b320  .A.aK<.,.q.Q0#. 
 4020da90 232112c1 20002211 2020310d f0000000  #!.. .".  1.....
 4020daa0 0c141cf5 82a13861 c5fe12c1 c0c961d9  ......8a......a.
 4020dab0 71e981f9 9172c110 29c10951 4c0238c1  q....r..)..QL.8.
 4020dac0 01a5ff62 16008901 60604402 00000911  ...b....``D.....
 4020dad0 4538010c 0e0c00f2 a06f7201 1068c10c  E8.......or..h..
 4020dae0 0aa9d182 06058077 01620600 70783172  .......w.b..px1r
 4020daf0 c71f7241 108066c0 00661160 6031f076  ..rA..f..f.``1.v
 4020db00 1182c7f9 89b172c7 f8007711 70703179  ......r...w.pp1y
 4020db10 a1320110 2d0f8033 01303831 0a030241  .2..-..3.081...A
 4020db20 100ac680 00010008 31072f01 2d002241  ........1./.-."A
 4020db30 1069f1c5 efff804c 01dd020c 1c404831  .i.....L.....@H1
 4020db40 49e1472f 010c0c28 e1c02f93 05eeff58  I.G/...(../....X
 4020db50 b1207dc0 00071100 00315720 0532a0a8  . }......1W .2..
 4020db60 d7a3518c ee48d158 a1072408 57200562  ..Q..H.X..$.W .b
 4020db70 a0a8d7a6 3f5c0887 223a98e1 68f1c09f  ....?\..":..h...
 4020db80 93f71930 1bee0027 110c2a1b 902b8090  ...0...'..*..+..
 4020db90 89b30d0a 80812180 86c00b88 80880180  ......!.........
 4020dba0 8831a628 010d08e0 e0742020 3129d1a2  .1.(.....t  1)..
 4020dbb0 cef656ba f508c1c8 61020000 f891f030  ..V.....a......0
 4020dbc0 1137ad1f 9cced020 d01b322b 223023b3  .7..... ..2+"0#.
 4020dbd0 20212100 22112020 31d871e8 81085112   !!.".  1.q...Q.
 4020dbe0 c1400df0 0c02c6fb ff000000 8ca22623  .@............&#
 4020dbf0 0c263309 26630626 73030c02 0df0216c  .&3.&c.&s.....!l
 4020dc00 eb416deb 32024e42 04302202 4d804401  .Am.2.NB.0".M.D.
 4020dc10 80330130 38314048 31802201 202831e6  .3.081@H1.". (1.
 4020dc20 74d92d03 0df00000 12c1d009 11396169  t.-..........9ai
 4020dc30 71290149 81f951d9 31c921e9 410c0c1c  q).I..Q.1.!.A...
 4020dc40 8ed13cda f8812d0c 3801c575 00fa0202  ..<...-.8..u....
 4020dc50 00004861 80000100 0831f68c 044a4006  ..Ha.....1...J@.
 4020dc60 02005871 4d0507a5 014d0002 af00d03c  ..XqM....M.....<
 4020dc70 a0408060 4d0e8088 01808831 872e014d  .@.`M......1...M
 4020dc80 08405074 c0200022 23c10022 10502220  .@Pt. ."#..".P" 
 4020dc90 c0200022 63c11bcc c0c074e7 9ca7c821  . ."c.....t....!
 4020dca0 d831e841 f8510811 12c1300d f0000000  .1.A.Q....0.....
 4020dcb0 00002c00 000000f0 fffffff0 91feff60  ..,............`
 4020dcc0 820112c1 f072a100 3077c069 115901c9  .....r..0w.i.Y..
 4020dcd0 310921cd 0201aee9 5117da61 f5ff7070  1.!.....Q..a..pp
 4020dce0 74607711 606420c0 20002225 ee902210  t`w.`d . ."%..".
 4020dcf0 80222070 22206022 20c02000 0ca30800  ." p" `" . .....
 4020dd00 2265ee02 201c0c42 c00000d0 5c11c070  "e.. ..B....\..p
 4020dd10 040c1688 010c0422 58007046 83504420  ......."X.pF.PD 
 4020dd20 80440151 e5ffc020 003102da 2223ee50  .D.Q... .1.."#.P
 4020dd30 22104022 20c02000 0196e908 002263ee  ".@" . ......"c.
 4020dd40 0c420220 1c0ca3c0 00000821 9811c831  .B. .......!...1
 4020dd50 22590012 c1100df0 aca2fe3f 30b92240  "Y.........?0."@
 4020dd60 9d0312c1 b0699152 6110f961 29c10921  .....i.Ra..a)..!
 4020dd70 0c03c931 d941e951 dd040c0e 0c0c9911  ...1.A.Q........
 4020dd80 39f10c00 0c02f221 1029d109 e10c7238  9......!.)....r8
 4020dd90 c10c3032 c3f47002 9309a130 307439b1  ..02..p....00t9.
 4020dda0 f63c454d 0f017ae9 32a080e0 2ed13a22  .<EM..z.2.....:"
 4020ddb0 080038f1 20282129 81022042 3a220c13  ..8. (!).. B:"..
 4020ddc0 80220120 2831c000 004d0f38 810170e9  .". (1...M.8..p.
 4020ddd0 3032c008 002d0e80 33013038 3139f102  02...-..3.0819..
 4020dde0 20420c03 c00000ed 020c1238 b148115d   B.........8.H.]
 4020ddf0 012b6185 ecff7291 01529100 0d0777a5  .+a...r..R....w.
 4020de00 010d050c 14003011 5027c050 22113030  ......0.P'.P".00
 4020de10 31003483 01dfcec0 000002c2 10000521  1.4............!
 4020de20 024d008c 9f28f1d6 52000030 60324d00  .M...(..R..0`2M.
 4020de30 0c0238c1 48115d01 2b6105e8 ff329101  ..8.H.].+a...2..
 4020de40 42910030 24c04a33 4022110c 14003311  B..0$.J3@"....3.
 4020de50 30303130 348301ce cec00000 52c21050  00104.......R..P
 4020de60 5521524d 018c7fd6 5e005050 60524d01  U!RM....^.PP`RM.
 4020de70 020d0028 f1800001 000831f6 3c1650ee  ...(......1.<.P.
 4020de80 c00032c0 80330180 ee01e0e8 31302831  ..2..3......10(1
 4020de90 29f1461a 0028d148 e12a354a 60806601  ).F..(.H.*5J`.f.
 4020dea0 80330130 28316048 3149e129 d1666c4e  .3.0(1`H1I.).flN
 4020deb0 38f128e1 0137e92b 22080020 22212043  8.(..7.+".. "! C
 4020dec0 c0804401 40383139 f138d108 002b3330  ..D.@819.8...+30
 4020ded0 32213971 30eec080 ee01e0e8 31c00000  2!9q0.......1...
 4020dee0 e6520e01 2be90800 08002871 c00000a6  .R..+.....(q....
 4020def0 520c3199 ff4173d1 28034022 20290358  R.1..As.(.@" ).X
 4020df00 919c9521 96ff420d 01320d00 80440180  ...!..B..2...D..
 4020df10 33013038 31404831 01dfd7c0 000058a1  3.081@H1......X.
 4020df20 1bccc0c0 74c055c0 5645e70c 134d0f01  ....t.U.VE...M..
 4020df30 18e928f1 08008022 01022042 202831c0  ..(....".. B (1.
 4020df40 00004d0f 0113e90c 03080080 2e010220  ..M............ 
 4020df50 42202831 c0000008 21c831f8 61e24d01  B (1....!.1.a.M.
 4020df60 28f1224d 00e851d8 4112c150 0df00000  (."M..Q.A..P....
 4020df70 40b92240 ffff00e0 30932012 c1c0c261  @."@....0. ....a
 4020df80 09f2610c 59d16931 49210981 d9a1e9b1  ..a.Y.i1I!......
 4020df90 dd02ed07 08029911 00010556 a018f8d1  ...........V....
 4020dfa0 22a0770c 03c1fae8 1c04080c 0c050220  ".w............ 
 4020dfb0 250c06c0 00000c03 0cf40c65 0c66080c  %..........e.f..
 4020dfc0 29510220 2522a077 c000000c 030c940c  )Q. %".w........
 4020dfd0 750c0608 0c296102 202522a0 77c00000  u....)a. %".w...
 4020dfe0 080c0220 282971c0 0000080c 0220300c  ... ()q...... 0.
 4020dff0 12c00000 28212020 b40552fa 28213d01  ....(!  ..R.(!=.
 4020e000 0c140572 ff080c08 600c02c0 0000080c  ...r....`.......
 4020e010 08f00c12 c0000022 a0770c03 0c940c75  .......".w.....u
 4020e020 080c0c06 0220270c 07c00000 22a0770c  ..... '.....".w.
 4020e030 031c040c 25080c0c 26022027 0c17c000  ....%...&. '....
 4020e040 00283172 01443d0f 2b41f201 405d0e6d  .(1r.D=.+A..@].m
 4020e050 0fc5d0ff 080c0220 1b0c12c0 000022a0  ....... ......".
 4020e060 770c031c 040c050c 06080c78 51022027  w..........xQ. '
 4020e070 7941c000 00786122 a0770c03 0cf4080c  yA...xa".w......
 4020e080 0c650220 270c66c0 00007871 22a0770c  .e. '.f...xq".w.
 4020e090 030c9408 0c0c7502 20270c06 c0000022  ......u. '....."
 4020e0a0 a0770c03 1c040c25 080c0c26 0220270c  .w.....%...&. '.
 4020e0b0 07c00000 0cf24201 027c1080 44014048  ......B..|..D.@H
 4020e0c0 31072401 0d044201 03072201 2d006c10  1.$...B...".-.l.
 4020e0d0 22410280 44018032 01303831 4048311c  "A..D..2.081@H1.
 4020e0e0 f2072401 0d040722 012d0022 41038042  ..$....".-."A..B
 4020e0f0 01404831 8cee5841 8ca53030 60324102  .@H1..XA..00`2A.
 4020e100 80330130 38318cdf 219aff01 62d7c000  .3.081..!...b...
 4020e110 00420103 32010230 570480e3 01e0e831  .B..2..0W......1
 4020e120 166508e2 c3200620 00c21300 c0e84180  .e... . ......A.
 4020e130 cc01c0c8 3161cae8 80ae01b1 50f0e09c  ....1a......P...
 4020e140 01b09920 e1a1f3b1 8bffc020 00822e98  ... ....... ....
 4020e150 b08810a0 88209088 20c02000 826e982c  ..... .. . ..n.,
 4020e160 07c02000 58a67055 20c02000 59a67c04  .. .X.pU . .Y.|.
 4020e170 0c23c020 00222e8f 40221030 2220c020  .#. ."..@".0" . 
 4020e180 00226e8f 02ae0e0c 1fc02000 d22e9900  ."n....... .....
 4020e190 dd10f0dd 20c02000 c891d26e 99f8c1d8  .... . ....n....
 4020e1a0 a1e8b108 8112c140 0df080f4 01f0f831  .......@.......1
 4020e1b0 776402f2 c440080c 80cf0102 202ac0c8  wd...@...... *..
 4020e1c0 31c00000 3149d028 0d804f01 805e1140  1...1I.(..O..^.@
 4020e1d0 48315044 20581130 22204255 00290d86  H1PD X.0" BU.)..
 4020e1e0 d4ff0000 00000001 12c1f0d9 21c911e9  ............!...
 4020e1f0 31e1f1e9 0901080e c166e877 f03522a0  1........f.w.5".
 4020e200 6a0c230c 040c5508 0c0c4602 20270c07  j.#...U...F. '..
 4020e210 c0000091 e7e9a80c 220901a2 2a2716d2  ........"...*'..
 4020e220 0422a06a 0c230c44 0c750c46 0c17c00a  .".j.#.D.u.F....
 4020e230 00861200 d20e2c22 a0610c13 0c240c45  ......,".a...$.E
 4020e240 080c0c06 0220277d 0dc00000 720e2d22  ..... '}....r.-"
 4020e250 a0660c33 0c14080c 0c550220 270c06c0  .f.3.....U. '...
 4020e260 0000c811 d821e831 080112c1 100df022  .....!.1......."
 4020e270 a06a0c23 0c440c75 0c460c27 c00a0022  .j.#.D.u.F.'..."
 4020e280 a0680c33 0c140c05 080c0c06 0220270c  .h.3......... '.
 4020e290 17c00000 22a06a0c 230c640c 45080c0c  ....".j.#.d.E...
 4020e2a0 06022027 0c87c000 0022a06a 0c230c44  .. '.....".j.#.D
 4020e2b0 0c05080c 0c060220 270c17c0 000022a0  ....... '.....".
 4020e2c0 6a0c230c 340c6508 0c0c6602 20270c17  j.#.4.e...f. '..
 4020e2d0 c0000022 a06a0c23 0c440c35 080c0c36  ...".j.#.D.5...6
 4020e2e0 0220270c 07c00000 22a06a0c 230c440c  . '.....".j.#.D.
 4020e2f0 35080c0c 36022027 0c17c000 0022a064  5...6. '.....".d
 4020e300 01d5cbc0 000022a0 6a0c230c 54080c0c  ......".j.#.T...
 4020e310 55022025 0c06c000 000c330c 140c050c  U. %......3.....
 4020e320 060c0708 0cdd0202 202722a0 68c00000  ........ '".h...
 4020e330 01a0e941 89fe6200 01b63d04 3cc2d7b2  ...A..b...=.<...
 4020e340 0951a8ff 38045033 203904bc b61ce3c0  .Q..8.P3 9......
 4020e350 2d1122c2 d9018ecd c00000d0 3df020d0  -.".........=. .
 4020e360 74d24e2c e0231120 20f40c93 01a5cbc0  t.N,.#.  .......
 4020e370 0000612b e9580e20 40742b44 40422142  ..a+.X. @t+D@B!B
 4020e380 4e2d6055 20590e06 abff1c43 d02da0d0  N-`U Y.....C.-..
 4020e390 229022c2 f2017ecd c0000006 efff0000  "."...~.........
 4020e3a0 d4e32040 2ca5fe3f 12c1f009 01c911d9  .. @,..?........
 4020e3b0 21cd02dd 032180e9 3d0c2202 52c582ff  !....!..=.".R...
 4020e3c0 017ee961 7be9f6bc 3a41f5ff c03c904a  .~.a{...:A...<.J
 4020e3d0 33a00300 862800c6 27000633 00463200  3....(..'..3.F2.
 4020e3e0 862500c6 24000630 00462f00 062d00c6  .%..$..0.F/..-..
 4020e3f0 2a008628 00c62100 86250046 23000621  *..(..!..%.F#..!
 4020e400 00c61e00 da3c32d3 ff3203f0 020030f6  .....<2..2....0.
 4020e410 8c0b4206 61560405 320d0086 12008000  ..B.aV..2.......
 4020e420 01000831 2610170c b2271041 0cd44710  ...1&....'.A..G.
 4020e430 4272c0f2 5206230c 00700583 86000002  Br..R.#..p......
 4020e440 06203020 7407b205 82064f26 28010d02  . 0 t.....O&(...
 4020e450 c81121d4 ffd82122 02000000 7407b201  ..!...!"....t...
 4020e460 2d000801 12c1100d f03a32c6 ebff0206  -........:2.....
 4020e470 2146f3ff 020622c6 f1ff3206 63c6e2ff  !F...."...2.c...
 4020e480 320d0046 e1ff320d 02c6dfff 320d0446  2..F..2.....2..F
 4020e490 deff320d 06c6dcff 320d0146 dbff320d  ..2.....2..F..2.
 4020e4a0 03c6d9ff 320d0546 d8ff3206 62c6d6ff  ....2..F..2.b...
 4020e4b0 2b648293 00000440 8090b190 88c00016  +d.....@........
 4020e4c0 408a8200 25a10088 11808031 82530027  @...%......1.S.'
 4020e4d0 28142048 c0502060 80220120 28314253  (. H.P `.". (1BS
 4020e4e0 000df00c 020df020 40608724 f52a4880  ....... @`.$.*H.
 4020e4f0 25012028 3146f9ff 60b92240 f30f0000  %. (1F..`."@....
 4020e500 30a4fe3f 80b92240 12c190f2 61180261  0..?.."@....a..a
 4020e510 14226111 52611262 6119c261 15e26117  ."a.Ra.ba..a..a.
 4020e520 d26116dd 04ed03c1 92e8c020 00c22cd8  .a......... ..,.
 4020e530 22a138c0 c8458538 ff226113 f68c0a7c  ".8..E.8."a....|
 4020e540 f2202c30 20202446 00002d0c 3d0e85e5  . ,0  $F..-.=...
 4020e550 fff123f2 e119e96c 03422113 0d025221  ..#....l.B!...R!
 4020e560 112c0a5a 52526110 5205002d 0ae05511  .,.ZRRa.R..-..U.
 4020e570 5044c000 44114040 31372401 3d0409e1  PD..D.@@17$.=...
 4020e580 680e372a 012d0300 82118080 31d77619  h.7*.-......1.v.
 4020e590 09e1dc40 2d0889c1 3d0f0c44 0c25d9d1  ...@-...=..D.%..
 4020e5a0 c5f0ff0d 020c0d06 11003d0d 2d0889c1  ..........=.-...
 4020e5b0 d9d10c44 0c2585ef ff98e1dd 02564919  ...D.%.......VI.
 4020e5c0 a8c1e61a 02066300 a6ba0286 61005632  ......c.....a.V2
 4020e5d0 18020f02 1b000000 74024f02 1c422790  ........t.O..B'.
 4020e5e0 0b7ced48 d10c0332 4f023254 000c0062  .|.H...2O.2T...b
 4020e5f0 21198c6d 0c05524f 03525f00 02611abc  !..m..RO.R_..a..
 4020e600 3621bdff 3d0c48c1 629f0071 cad758d1  6!..=.H.b..q..X.
 4020e610 707ca052 9500c020 00820e30 7227c180  p|.R... ...0r'..
 4020e620 88018077 01707831 80883189 010119d6  ...w.px1..1.....
 4020e630 c0000002 211a6221 12164610 c9f1cc3d  ....!.b!..F....=
 4020e640 c9f116b0 0f0c05fd 0da1e5f1 220e5cc2  ............".\.
 4020e650 a07f8022 01202831 50959080 7c017078  ...". (1P...|.px
 4020e660 311b55e0 99909209 3d505074 80990190  1.U.....=PPt....
 4020e670 983177a9 01cd0966 45dd51d0 fbcac280  .1w....fE.Q.....
 4020e680 cc01c0c8 31168d09 2c44d09c c0809901  ....1...,D......
 4020e690 90983197 a40b0261 1a221500 b2a3e427  ..1....a.".....'
 4020e6a0 3b0ee6a9 7b421500 3195ff02 611a4733  ;...{B..1...a.G3
 4020e6b0 6f22c120 31c2fb1c 859055c0 52412085  o". 1.....U.RA .
 4020e6c0 0fff620e 5d720120 418eff21 bcfbc08d  ..b.]r. A..!....
 4020e6d0 c082c818 22120032 045a8077 01806601  ...."..2.Z.w..f.
 4020e6e0 60683170 78318033 017058c0 5a663038  `h1px1.3.pX.Zf08
 4020e6f0 318077c0 7aff5a33 624e5d32 445a32c1  1.w.z.Z3bN]2DZ2.
 4020e700 220c0405 02ff21ad fb32c122 22120085  ".....!..2.""...
 4020e710 f7fe0221 1a51a9fb a1b2f132 1500325e  ...!.Q.....2..2^
 4020e720 2df09cc0 00f09380 99019098 31804f01  -...........1.O.
 4020e730 40f831d6 4f004c6b 97ab1ea6 1f02e6a9  @.1.O.Lk........
 4020e740 18c22115 d22116e2 2117f221 18022114  ..!..!..!..!..!.
 4020e750 12c1700d f00c0086 9fffac90 0c8db20a  ..p.............
 4020e760 037c8980 bb01b0b8 3100bbc0 b24a0380  .|......1....J..
 4020e770 bb01b0b8 31972b01 9d0b0d0d 972d010d  ....1.+......-..
 4020e780 09024a03 c60b0032 0e5c015d ff220e5d  ..J....2.\.].".]
 4020e790 d2005a80 22018033 01303831 20283180  ..Z."..3.081 (1.
 4020e7a0 dd01f022 80f033c0 324e5c22 4e5dd0d8  ..."..3.2N\"N]..
 4020e7b0 31f0dd80 d2405a22 0e3032c1 28853afc  1....@Z".02.(.:.
 4020e7c0 05e400f2 2119167f f7214eff 520e5c32  ....!....!N.R.\2
 4020e7d0 0e5d414b ff803301 42045a80 55015058  .]AK..3.B.Z.U.PX
 4020e7e0 31804401 30383140 4831c020 0088f1b2  1.D.081@H1. ....
 4020e7f0 2110d8c1 7172fba1 4fd77217 00622ad8  !...qr..O.r..b*.
 4020e800 d901b20b 00b91189 21920e30 80660180  ........!..0.f..
 4020e810 99019098 31993160 68316060 60a088a0  ....1.1`h1```...
 4020e820 c0200082 28c1016e f1808801 80883189  . ..(..n......1.
 4020e830 41020003 c9618000 01000831 09510195  A....a.....1.Q..
 4020e840 d5c00000 46beff00 41f7e77c e631c8e7  ....F...A..|.1..
 4020e850 c0200022 23d74022 10c02000 2263d7b1  . ."#.@".. ."c..
 4020e860 5dd1c020 00a223d7 b0aa10c0 2000a263  ].. ..#..... ..c
 4020e870 d7c02000 9223d460 9910c020 009263d4  .. ..#.`... ..c.
 4020e880 0c28c020 007223d8 807720c0 20007263  .(. .r#..w . .rc
 4020e890 d8c02000 5223d860 5510c020 005263d8  .. .R#.`U.. .Rc.
 4020e8a0 0c14c020 002223d8 402220c0 20002263  ... ."#.@" . ."c
 4020e8b0 d80df000 2ba5fe3f 2aa5fe3f 00a3fe3f  ....+..?*..?...?
 4020e8c0 f0b92240 12c1e002 61040139 e8420064  .."@....a..9.B.d
 4020e8d0 52005e40 40045684 09565509 61f6ff62  R.^@@.V..VU.a..b
 4020e8e0 060056c6 08013ef1 51a2e7c0 20007225  ..V...>.Q... .r%
 4020e8f0 d4326102 f7f731c0 20008225 d4808825  .2a...1. ..%...%
 4020e900 ec589200 042931dc e931ebff 3203002d  .X...)1..1..2..-
 4020e910 01803301 30383105 a6fe2d01 3192f041  ..3.081...-.1..A
 4020e920 e7ff5831 682105be ffc5f1ff 312df10c  ..X1h!......1-..
 4020e930 020197e6 22430421 f2fe0800 22025a08  ...."C.!....".Z.
 4020e940 00802201 202831c0 0000a682 240c0251  ..". (1.....$..Q
 4020e950 ecfe0c04 42455a05 fdfd7117 e8322778  ....BEZ...q..2'x
 4020e960 68211b33 3267788c 7621d5ff 014ad5c0  h!.32gx.v!...J..
 4020e970 00000841 12c1200d f0000000 917de781  ...A.. ......}..
 4020e980 d9d50c0b 12c1f0c9 110901d9 210c00d2  ............!...
 4020e990 a0ff7cfc 9060a020 70905d0d ad0bc020  ..|..`. p.].... 
 4020e9a0 0032a117 6226e01b 00000074 c0663060  .2..b&.....t.f0`
 4020e9b0 407442c4 eb6060a4 62570040 a4b330aa  @tB..``.bW.@..0.
 4020e9c0 82803610 a0a821a7 2d015d0a 3a353257  ..6...!.-.].:52W
 4020e9d0 006680bf c811d821 080112c1 100df000  .f.....!........
 4020e9e0 12c1e009 61394129 517cd521 61e7c020  ....a9A)Q|.!a.. 
 4020e9f0 004222d4 504410c0 20004262 d40c23c0  .B".PD.. .Bb..#.
 4020ea00 20000222 d4300020 c0200002 62d41c92   ..".0. . ..b...
 4020ea10 0111cac0 00002d01 05f6ff28 51021103  ......-....(Q...
 4020ea20 42110232 11019211 07721105 62110482  B..2.....r..b...
 4020ea30 11067a66 9a884a33 3a008088 90606690  ..zf..J3:....`f.
 4020ea40 6060f480 70f4f090 119090f4 77390580  ``..p.......w9..
 4020ea50 80d04600 000c0882 52000841 77360570  ..F.....R..Aw6.p
 4020ea60 26c04600 000c0222 50000861 12c1200d  &.F...."P..a.. .
 4020ea70 f0000000 f13c1101 f33c1101 f03c1101  .....<...<...<..
 4020ea80 ffff0300 3040f412 c1c0c961 e981f991  ....0@.....a....
 4020ea90 59d16941 0c13d971 d13ee609 51080d29  Y.iA...q.>..Q..)
 4020eaa0 3102202b 0c02c000 0028d1c1 31e71652  1. +.....(..1..R
 4020eab0 124c0f0c 1ed2c2fc 4c071cc8 0c090c0a  .L......L.......
 4020eac0 0c0bb921 a9b199c1 89117901 d9a10c0d  ...!......y.....
 4020ead0 0c12012f e60c2308 00480102 202b4040  .../..#..H.. +@@
 4020eae0 f4c00000 012be60c 0208000c 2302202b  .....+......#. +
 4020eaf0 f040f4c0 0000c020 0031deff 326cd3c0  .@..... .1..2l..
 4020eb00 200021dd ff226cd3 0c2201d2 c9c00000   .!.."l.."......
 4020eb10 08013811 88217153 e652a07f 4d0dc020  ..8..!qS.R..M.. 
 4020eb20 00622cd3 60687560 4e8356e4 fec02000  .b,.`hu`N.V... .
 4020eb30 922cd30c 1b909f05 b09930c0 2000222c  .,........0. .",
 4020eb40 d30c0a70 221020ab 839c299d 05faf300  ...p". ...).....
 4020eb50 ff11f0f0 31f72501 9d0ffd09 46030030  ....1.%.....F..0
 4020eb60 2fc0fd0d 00221120 203120f2 b39c2a9d  /....".  1 ...*.
 4020eb70 050a0300 00110000 31072501 9d000d09  ........1.%.....
 4020eb80 46030030 20c00d0d 00221120 20312002  F..0 ....".  1 .
 4020eb90 b3090148 a172c3fe 3061211b 660c1380  ...H.r..0a!.f...
 4020eba0 66016068 31703693 39114728 1778b1a8  f.`h1p6.9.G(.x..
 4020ebb0 c10a97fa ba00bb11 00991190 7031b0a0  ............p1..
 4020ebc0 31a9c179 b1a8d11b 88808074 892180aa  1..y.......t.!..
 4020ebd0 c056baef c601000c 090c0aa9 b199c10c  .V..............
 4020ebe0 120c23f8 b1d1eae5 2bff080d f042f402  ..#.....+....B..
 4020ebf0 202bf0f2 21c00000 0c020c23 e8c1080d   +..!......#....
 4020ec00 2beee042 f402202b e0e221c0 00000c12  +..B.. +..!.....
 4020ec10 080d0c13 02202b42 a07fc000 004197ff  ..... +B.....A..
 4020ec20 c0200028 31384142 6cd3e243 00f24301  . .(18ABl..C..C.
 4020ec30 9cf29193 ffe07e01 708f0161 e3f0c020  ......~.p..a... 
 4020ec40 00522699 90551080 55207055 20c02000  .R&..U..U pU . .
 4020ec50 526699c8 61d871e8 81f89108 5112c140  Rf..a.q.....Q..@
 4020ec60 0df00000 0c048b52 22a07f30 55e00055  .......R"..0U..U
 4020ec70 11505031 5045b300 44114030 31e6e301  .PP1PE..D.@01...
 4020ec80 2d038022 01202831 0df00000 10ba2240  -..". (1......"@
 4020ec90 30ba2240 0c0712c1 b0e981f9 91d97109  0."@..........q.
 4020eca0 51c96169 a149e152 61100c94 0c750c06  Q.ai.I.Ra....u..
 4020ecb0 cd0301b7 e5dd0208 0022a077 0220270c  .........".w. '.
 4020ecc0 03c00000 4d0c3d0d 0c050c06 01b1e50c  ....M.=.........
 4020ecd0 02290129 11292108 000c0702 201a0c12  .).).)!..... ...
 4020ece0 c000000c 0c0c3462 011069b1 49c10c0d  ......4b..i.I...
 4020ecf0 0c0fa8a1 0c098c4c 261c0966 2c0a0c77  .......L&..f,..w
 4020ed00 79b1c600 000cf889 b1b8b1ca aaa9d192  y...............
 4020ed10 4a001bbb b9f1bcac 261c1d66 2c5322a0  J.......&..f,S".
 4020ed20 6b0c230c 24019ae5 0c650800 0c460220  k.#.$....e...F. 
 4020ed30 277d0dc0 0000060e 0022a06b 0c230c24  '}.......".k.#.$
 4020ed40 0194e50c 3508000c 06022027 7d0dc000  ....5..... '}...
 4020ed50 00460700 22a06b0c 230c140c 350c0601  .F..".k.#...5...
 4020ed60 8ce50c17 0800707d 90022027 707074c0  ......p}.. 'ppt.
 4020ed70 00000187 e5080028 e102201c 0ca3c000  .......(.. .....
 4020ed80 00ed0222 21108cb2 21c1ff3d 0d4d0e01  ..."!...!..=.M..
 4020ed90 41d4c000 00e7af0e fd0e48d1 0c13303d  A.........H...0=
 4020eda0 90c03d93 32440048 f11bddd0 d074d044  ..=.2D.H.....t.D
 4020edb0 c05614f6 e221108c ee21b5ff 48d13d0c  .V...!...!..H.=.
 4020edc0 42040001 34d4c000 00ac2c26 1c65662c  B...4.....,&.ef,
 4020edd0 3822a06b 0c230c24 0c65016d e50c4608  8".k.#.$.e.m..F.
 4020ede0 0078d102 20277207 00c00000 86060022  .x.. 'r........"
 4020edf0 a06b0c23 0c140c35 0166e50c 06080078  .k.#...5.f.....x
 4020ee00 d1022027 720700c0 000028c1 1bccc0c0  .. 'r.....(.....
 4020ee10 740b2229 c15652ed 015ee508 0002201b  t.").VR..^.... .
 4020ee20 0c12c000 00c861d8 71e881f8 91085112  ......a.q.....Q.
 4020ee30 c1500df0 22a06b0c 230c240c 350154e5  .P..".k.#.$.5.T.
 4020ee40 0c060800 78d10220 27720700 c00000c6  ....x.. 'r......
 4020ee50 edff0000 50ba2240 12c1a0f9 a10961d9  ....P."@......a.
 4020ee60 81c971e9 91695159 f139d149 e10c030c  ..q..iQY.9.I....
 4020ee70 940c750c 06ed07c1 46e5dd02 080c22a0  ..u.....F.....".
 4020ee80 77022027 0c07c000 00e9410c 0451c8e6  w. '......A..Q..
 4020ee90 38e15205 5e0b2320 20745024 83226116  8.R.^.#  tP$."a.
 4020eea0 37320206 5600f2af 800c0b58 51e941d9  72..V......XQ.A.
 4020eeb0 b1321130 42016449 c1326115 d2a07f0c  .2.0B.dI.2a.....
 4020eec0 0e506024 50531450 55906055 90505074  .P`$PS.PU.`U.PPt
 4020eed0 526110a2 211698d1 b26113aa 99a8f192  Ra..!....a......
 4020eee0 09009261 12a099c0 92611132 21112221  ...a.....a.2!."!
 4020eef0 10e033c0 80330130 383185d6 ff0c0020  ..3..3.081..... 
 4020ef00 02b380c0 01c0c831 c7ad040b cd060100  .......1........
 4020ef10 f7ac011b cf0c1238 b1c04074 0c05011c  .......8..@t....
 4020ef20 e50c0669 01691169 2108000c 0702201a  ...i.i.i!..... .
 4020ef30 0c06c000 000116e5 080008b0 222115c0  ............"!..
 4020ef40 00000113 e5080022 611408b0 222115c0  ......."a..."!..
 4020ef50 00000221 14622112 2a000000 11000031  ...!.b!.*......1
 4020ef60 4b000003 216060c0 00661160 6031e616  K...!``..f.``1..
 4020ef70 0880dc01 d0d83146 010080fc 01f0f831  ......1F.......1
 4020ef80 ac462606 22802c01 202831cc 12967601  .F&.".,. (1...v.
 4020ef90 1b3f371d 12422113 eae61b54 50407442  .?7..B!....TP@tB
 4020efa0 611342c4 f65624f4 98c1b221 1678f1a8  a.B..V$....!.x..
 4020efb0 41707cc0 baaa8067 01606831 724a006c  Ap|....g.`h1rJ.l
 4020efc0 8777a606 6c866c88 824a009c 39422112  .w..l.l..J..9B!.
 4020efd0 21a1ff32 21168050 01505831 01aed3c0  !..2!..P.PX1....
 4020efe0 0000f2af 80d2a07f 0c0e0c0b 72211668  ............r!.h
 4020eff0 e11b8780 70747261 167066c0 5636edc1  ....ptra.pf.V6..
 4020f000 e4e43c29 e84138e1 a20e00ea 3380aa01  ..<).A8.....3...
 4020f010 32c38002 037fa0a8 31800001 000831a0  2.......1.....1.
 4020f020 a0c0a7a9 0542c0ce 424e0051 61e65205  .....B..BN.Qa.R.
 4020f030 5eacb558 e10b55a6 1525615f e648e10c  ^..X..U..%a_.H..
 4020f040 006a4472 04316a80 82083222 037f8077  .jDr.1j...2"...w
 4020f050 c07a220a 7e224700 1b000000 740795e2  .z".~"G.....t...
 4020f060 080c0220 1b0c12c0 0000c871 d881e891  ... .......q....
 4020f070 f8a10861 12c1600d f0000000 a0ba2240  ...a..`......."@
 4020f080 706b1040 82c2fe12 c1a0c9a1 e9c1f9d1  pk.@............
 4020f090 099169e1 526113d9 b18911d1 26d5c020  ..i.Ra......&.. 
 4020f0a0 00922de0 00084090 90b1c020 00a22de3  ..-...@.... ..-.
 4020f0b0 000840a0 a0b1a0f9 c0c02000 622de200  ..@....... .b-..
 4020f0c0 08406060 b1c02000 7901022d e1000840  .@``.. .y..-...@
 4020f0d0 aa992d09 88e10000 b10ae680 85306000  ..-..........0`.
 4020f0e0 c0cd0040 63308066 30606074 8c66cd0e  ...@c0.f0``t.f..
 4020f0f0 2d0fed00 fd092261 10c0df31 4d02205f  -....."a...1M. _
 4020f100 3159f13d 05012ad8 c000005d 0d4d0c39  1Y.=..*....].M.9
 4020f110 3129413d 0d2d0c01 26d8c000 000c060c  1)A=.-..&.......
 4020f120 100c0758 31b8413a 552a4b40 7083b7b4  ...X1.A:U*K@p...
 4020f130 011b55bd 04ad0550 60837706 03bd000c  ..U....P`.w.....
 4020f140 0a4d0ff9 61e26112 38f12221 10a26114  .M..a.a.8."!..a.
 4020f150 b26115e0 8f31f05f 31595182 61110114  .a...1._1YQ.a...
 4020f160 d8c00000 e22115f2 21145221 11422112  .....!..!.R!.B!.
 4020f170 39712981 3d0d2d0c 010ed8c0 00000871  9q).=.-........q
 4020f180 3000c038 8120a3c0 a7b3010b 00702a11  0..8. .......p*.
 4020f190 5d0f4d0e 104740a0 308101b9 ffc00000  ].M..G@.0.......
 4020f1a0 38018042 0158e140 48311b44 40412140  8..B.X.@H1.D@A!@
 4020f1b0 20605024 83585148 61224300 29213d0d   `P$.XQHa"C.)!=.
 4020f1c0 2d0c01fb d7c00000 52211142 2112dd03  -.......R!.B!...
 4020f1d0 cd0238f1 22211001 f6d7c000 003a0d2a  ..8."!.......:.*
 4020f1e0 2cc7b201 1b004d0e 5d0fc801 104740d2  ,.....M.]....G@.
 4020f1f0 21132030 81702211 01a2ffc0 00005201  !. 0.p".......R.
 4020f200 60806201 6068311b 66606121 600060d0  `.b.`h1.f`a!`.`.
 4020f210 0683024c 01ac6521 99ffc020 0031c5d4  ...L..e!... .1..
 4020f220 48118050 01505831 00044032 23f94821  H..P.PX1..@2#.H!
 4020f230 3030b180 44014048 310116d3 c00000c8  00..D.@H1.......
 4020f240 a1d8b1e8 c1f8d108 9112c160 0df00000  ...........`....
 4020f250 00400000 9d0312c1 b0797149 51626112  .@.......yqIQba.
 4020f260 52611109 81226110 f9c1d9a1 e9b1c991  Ra..."a.........
 4020f270 0c0e0c0c d147e4f2 01549961 0c220221  .....G...T.a.".!
 4020f280 10226113 52211262 21116241 10524111  ."a.R!.b!.bA.RA.
 4020f290 0c120010 400022a1 02015809 e12020f4  ....@."...X..  .
 4020f2a0 29d10c14 5d0f32a0 80080dc0 2cd10220  )...].2.....,.. 
 4020f2b0 3e3a2220 282132c1 1029f120 2ec08022  >:" (!2..). ..."
 4020f2c0 01202831 c0000032 c1110c04 5d0f080d  . (1...2....]...
 4020f2d0 ed020220 3e2d0cc0 000038d1 080dcd02  ... >-....8.....
 4020f2e0 08d00c12 c0000022 21103861 52011182  ......."!.8aR...
 4020f2f0 21116201 100c1980 66c08221 12606993  !.b.....f..!.`i.
 4020f300 62411080 55c088e1 50599352 41118901  bA..U...PY.RA...
 4020f310 080d4851 02201272 c112c000 0028f102  ..HQ. .r.....(..
 4020f320 01122a2e 80e00102 0113e0e8 312aee80  ..*.........1*..
 4020f330 000180ee 01e0e831 00083100 ccc0080d  .......1..1.....
 4020f340 80cc0108 c0c0c831 c0000032 21130b33  .......1...2!..3
 4020f350 32611356 b3f42201 12080d80 22010800  2a.V.."....."...
 4020f360 202831c0 0000e652 12220113 080d8022   (1....R."....."
 4020f370 01080020 2831c000 00a65217 71b5ff41  ... (1....R.q..A
 4020f380 76fa6197 ee380452 06057033 201b5552  v.a..8.R..p3 .UR
 4020f390 46053904 0cf27c10 072e010d 0e072201  F.9...|.......".
 4020f3a0 2d006c10 80e201e0 e8311cf2 072c010d  -.l......1...,..
 4020f3b0 0c072201 2d0032c1 100c145d 0f80c201  ..".-.2....]....
 4020f3c0 080dc0c8 3102203e 2d0ec000 005d0f2d  ....1. >-....].-
 4020f3d0 0c080d32 c1110220 3e0c04c0 00000881  ...2... >.......
 4020f3e0 d8a1f8c1 38712221 14e24300 c24200e8  ....8q"!..C..B..
 4020f3f0 b1c89112 c1500df0 9d05ad03 12c1b0d9  .....P..........
 4020f400 e1e9f179 810c030c 05f26110 09c1c9d1  ...y......a.....
 4020f410 62611329 51496122 a0771c04 0c06c1dc  ba.)QIa".w......
 4020f420 e3a26111 080c9261 12022025 f22113c0  ..a....a.. %.!..
 4020f430 00000c03 0cf40c65 0c66080c ed020220  .......e.f..... 
 4020f440 2522a077 c000000c 031c840c 550c5608  %".w........U.V.
 4020f450 0cdd0202 202522a0 77c00000 0c031c84  .... %".w.......
 4020f460 0c350c36 080c2991 02202522 a077c000  .5.6..).. %".w..
 4020f470 000c030c 940c750c 06080c29 a1022025  ......u....).. %
 4020f480 22a077c0 0000080c 29710220 100c12c0  ".w.....)q. ....
 4020f490 0000e241 10d24111 8ccf080c 22c11002  ...A..A....."...
 4020f4a0 204532c1 11c00000 22a0770c 031c040c   E2.....".w.....
 4020f4b0 25080c0c 26022027 0c17c000 00e9b122  %...&. '......."
 4020f4c0 a0770c03 1c840c75 080c0c17 92011082  .w.....u........
 4020f4d0 0111e099 c0d088c0 80879390 97939241  ...............A
 4020f4e0 10824111 0220270c 76c00000 080ce221  ..A.. '.v......!
 4020f4f0 11022014 2861c000 000c050c 060c074d  .. .(a.........M
 4020f500 020c0339 21391139 01080c0c 1202201a  ...9!9.9...... .
 4020f510 3d0ec000 00285178 8162c113 42011158  =....(Qx.b..B..X
 4020f520 91320110 ed05f911 69017921 72c11208  .2......i.y!r...
 4020f530 0c68a102 2043fd06 c0000008 0c02201b  .h.. C........ .
 4020f540 0c12c000 0078b122 a0770c03 1c04080c  .....x.".w......
 4020f550 0c050220 270c06c0 00007d0d 22a0770c  ... '.....}.".w.
 4020f560 030cf408 0c0c6502 20270c66 c000007d  ......e. '.f...}
 4020f570 0e22a077 0c031c84 080c0c55 0220270c  .".w.......U. '.
 4020f580 56c00000 7d0f22a0 770c031c 840c3508  V...}.".w.....5.
 4020f590 0c0c3602 2027d871 c000007d 0d22a077  ..6. '.q...}.".w
 4020f5a0 0c030c94 080c0c75 0220270c 06c00000  .......u. '.....
 4020f5b0 22a0770c 031c840c 75080c0c 76022027  ".w.....u...v. '
 4020f5c0 0c07c000 0022a077 0c031c04 0c25080c  .....".w.....%..
 4020f5d0 0c260220 270c07c0 0000080c d2211202  .&. '........!..
 4020f5e0 20100c02 c0000008 c1c8d1e8 f1320112   ............2..
 4020f5f0 f2211032 4d002201 13224d01 d8e112c1  .!.2M.".."M.....
 4020f600 500df000 12c1f009 0151cad3 c0200022  P........Q... ."
 4020f610 a0770c03 0c845225 d861e7e4 015de362  .w....R%.a...].b
 4020f620 06530800 50506080 55010220 26505831  .S..PP`.U.. &PX1
 4020f630 80660160 68316055 c052c5e8 505074c0  .f.`h1`U.R..PPt.
 4020f640 00000801 12c1100d f0000000 5d0312c1  ............]...
 4020f650 f00c0309 01e931d9 21c911dd 04c14ce3  ......1.!.....L.
 4020f660 ed02080c 22a07702 20261cb4 c0000022  ....".w. &....."
 4020f670 a0770c03 080c0c54 022026e0 5474c000  .w.....T. &.Tt..
 4020f680 00e05034 22a07708 0c0c0302 20260c64  ..P4".w..... &.d
 4020f690 c0000022 a0770c03 0cf40c45 080c505d  ...".w.....E..P]
 4020f6a0 20022026 505074c0 00005d0d 22a07708   . &PPt...].".w.
 4020f6b0 0c0c0302 20260cf4 c00000c8 11d821e8  .... &........!.
 4020f6c0 31080112 c1100df0 0df00000 0df00000  1...............
 4020f6d0 0c020df0 d0ba2240 fca3fe3f 21feff12  ......"@...?!...
 4020f6e0 c1e0c261 05d96109 4101ead1 c0000021  ...a..a.A......!
 4020f6f0 b2e431f9 ff0c0405 56fa0c13 0c540c75  ..1.....V....T.u
 4020f700 d124e30c 06080dcd 02022025 22a062c0  .$........ %".b.
 4020f710 00000c13 0c640c45 0c06080d 29210220  .....d.E....)!. 
 4020f720 2522a062 c000000c 430c340c 450c0608  %".b....C.4.E...
 4020f730 0d293102 202522a0 67c00000 0c130c24  .)1. %".g......$
 4020f740 0c450c06 080ddd02 02202522 a061c000  .E....... %".a..
 4020f750 00804201 003d1128 21403320 48312020  ..B..=.(!@3 H1  
 4020f760 74404074 80441140 22204d0c 30222029  t@@t.D.@" M.0" )
 4020f770 013d012d 01054efa 517cd2c0 20004b31  .=.-..N.Q|.. .K1
 4020f780 2acc5225 ff59114b 214d0cc5 4cfa0841  *.R%.Y.K!M..L..A
 4020f790 ca22d861 c85112c1 200df000 aa5555aa  .".a.Q.. ....UU.
 4020f7a0 890f0000 ac540000 20110000 6c0d0000  .....T.. ...l...
 4020f7b0 12c1f0c9 11d92109 012103d6 c0200031  ......!..!... .1
 4020f7c0 f8ff42a4 d2222280 51f5ff4a 42504430  ..B.."".Q..JBPD0
 4020f7d0 40228230 228231f3 ff0189c6 c0000031  @".0".1........1
 4020f7e0 f2ff3022 8231f1ff 0186c6c0 00000c0c  ..0".1..........
 4020f7f0 d2a3e832 a3e70182 c6c00000 1bcc42a4  ...2..........B.
 4020f800 60402282 d79ceb0c 0c32a3d9 52a35c50  `@"......2..R.\P
 4020f810 2282017b c6c00000 1bccd79c ebc811d8  "..{............
 4020f820 21080112 c1100df0 22a07331 30c8c020  !.......".s10.. 
 4020f830 002263c5 0df00000 e0ba2240 21ffff12  ."c......."@!...
 4020f840 c1e0c261 01d921e9 31f94109 010191d1  ...a..!.1.A.....
 4020f850 c000000c 1a9102d2 c0200082 2985a088  ......... ..)...
 4020f860 20c02000 22a06a0c 230c840c 4501c8e2   . .".j.#...E...
 4020f870 0c060800 0c070220 27826985 c00000c1  ....... '.i.....
 4020f880 d2d5c020 00b22c80 0ce205a7 f80c0de1  ... ..,.........
 4020f890 17c8f2a0 c805f9ff 45f1ffc0 2000226e  ........E... ."n
 4020f8a0 4e0c2205 91000c82 0c030520 0022a0aa  N."........ ."..
 4020f8b0 c50c00c0 20000c22 022c8045 40000c22  .... ..".,.E@.."
 4020f8c0 8554000c 220c0305 a200c020 00322c80  .T.."...... .2,.
 4020f8d0 1bddf79d bfc811d8 21e831f8 41080112  ........!.1.A...
 4020f8e0 c1200df0 f0ba2240 00bb2240 e0250040  . ...."@.."@.%.@
 4020f8f0 12c1f009 0101fdff c0000001 1bd26642  ..............fB
 4020f900 19c02000 3220ff1b 33c02000 21f6ff32  .. .2 ..3. .!..2
 4020f910 60ff0160 d1c00000 86050026 22026612  `..`.......&".f.
 4020f920 100c03c0 200021f0 ff3260ff 015ad1c0  .... .!..2`..Z..
 4020f930 00000801 12c1100d f0000000 12c1f009  ................
 4020f940 01cc930c 53012ec6 c0000086 060001f3  ....S...........
 4020f950 cc27b00b 012bc6c0 00004022 11060200  .'...+....@"....
 4020f960 40221101 27c6c000 00080112 c1100df0  @"..'...........
 4020f970 30228220 2c410df0 54a6fe3f 88130000  0". ,A..T..?....
 4020f980 51dbc7c0 20004225 474a42c0 200061fa  Q... .B%GJB. .a.
 4020f990 ff426541 31faff0c 15273301 0c055246  .BeA1....'3...RF
 4020f9a0 000df000 00000050 12c1f0d9 21090101  .......P....!...
 4020f9b0 00e4c911 020039c1 cdc7dc20 7cc5c020  ......9.... |.. 
 4020f9c0 00322c59 503310c0 2000326c 59860700  .2,YP3.. .2lY...
 4020f9d0 6610072c 06604420 c6040066 20100c38  f..,.`D ...f ..8
 4020f9e0 c0200072 2c598077 20c02000 726c590c  . .r,Y.w . .rlY.
 4020f9f0 03d167e2 c0200032 6c50c020 00226c51  ..g.. .2lP. ."lQ
 4020fa00 c0200022 a0770c55 0c560c17 080d426c  . .".w.U.V....Bl
 4020fa10 40022027 1cc4c000 00511aea 41d5d731  @. '.....Q..A..1
 4020fa20 c5d2c020 002223f2 50221040 2220c020  ... ."#.P".@" . 
 4020fa30 002263f2 0c120107 c6c00000 22a0770c  ."c.........".w.
 4020fa40 031cc40c 55080d0c 56022027 0c07c000  ....U...V. '....
 4020fa50 0022a077 0c031cc4 0c65080d 0c660220  .".w.....e...f. 
 4020fa60 270c07c0 00005125 e7416de3 c0200031  '.....Q%.Am.. .1
 4020fa70 b1d22223 fa502210 402220c0 20000c34  .."#.P".@" . ..4
 4020fa80 0c750c46 0c07080d 2263fa22 a0620220  .u.F...."c.".b. 
 4020fa90 270c13c0 000061c3 ffc02000 626c44d8  '.....a... .blD.
 4020faa0 21c81108 0112c110 0df00000 82afc051  !..............Q
 4020fab0 8fc7c020 00722546 80771020 7720c020  ... .r%F.w. w . 
 4020fac0 00726546 7ce6c020 0042256a 60441030  .reF|.. .B%j`D.0
 4020fad0 4420c020 0042656a 0df00000 7480fe3f  D . .Bej....t..?
 4020fae0 0000000f 61feff28 06660225 519ee841  ....a..(.f.%Q..A
 4020faf0 fcff215b d1c02000 32229650 3310303f  ..![.. .2".P3.0?
 4020fb00 4166130f c0200022 22954022 10202875  Af... ."".@". (u
 4020fb10 29060df0 c0200022 229706fb ff000000  ).... ."".......
 4020fb20 50008000 12c1f009 0185fbff 26220c0c  P...........&"..
 4020fb30 420c0341 fbff05e7 ffc60700 019de302  B..A............
 4020fb40 00656620 0c0c420c 0341f5ff 85e5ff46  .ef ..B..A.....F
 4020fb50 02000c42 0c034132 e3c5e4ff 080112c1  ...B..A2........
 4020fb60 100df000 12c1f009 0185f7ff 26220c0c  ............&"..
 4020fb70 020c0341 ebff05e3 ffc60700 018de302  ...A............
 4020fb80 00656620 0c0c020c 0341e5ff 85e1ff46  .ef .....A.....F
 4020fb90 02000c02 0c034122 e3c5e0ff 080112c1  ......A"........
 4020fba0 100df000 28e00100 3c200300 64800c00  ....(...< ..d...
 4020fbb0 12c1f009 01c5f2ff 014dc726 122bac82  .........M.&.+..
 4020fbc0 217ce332 02014202 659c1326 240f51f5  !|.2..B.e..&$.Q.
 4020fbd0 ffc02000 52604308 0112c110 0df061f2  .. .R`C.......a.
 4020fbe0 ffc02000 62604306 fbff71f0 ffc02000  .. .b`C...q... .
 4020fbf0 72604306 f8ff0000 316ee322 03393203  r`C.....1n.".92.
 4020fc00 3a262210 26130d26 330a0c23 4138c7c0  :&".&..&3..#A8..
 4020fc10 20003264 680df000 11200000 7142cc81   .2dh.... ..qB..
 4020fc20 10d1c020 00622886 2143d270 6610c020  ... .b(.!C.pf.. 
 4020fc30 00222246 71f9ff27 725151cd e2c02000  .""Fq..'rQQ... .
 4020fc40 92255677 19030c12 0df0c020 0022254f  .%Vw....... ."%O
 4020fc50 20a21566 3aef20b4 25662be9 20378592   ..f:. .%f+. 7..
 4020fc60 a07f3789 e0c02000 22254f20 42156634  ..7... ."%O B.f4
 4020fc70 d420a425 662ace20 b785b789 c8c02000  . .%f*. ...... .
 4020fc80 22255677 92bfc020 00626886 0c020df0  "%Vw... .bh.....
 4020fc90 20503440 70543060 14c06611 a0771160   P4@pT0`..f..w.`
 4020fca0 55206135 ff705520 5256010d f0000000  U a5.pU RV......
 4020fcb0 24a5fe3f 25a5fe3f ffcfffff fffff0ff  $..?%..?........
 4020fcc0 412eff12 c1f00921 62140169 015125e8  A......!b..i.Q%.
 4020fcd0 01e4d0c0 20003220 96503310 303f4139  .... .2 .P3.0?A9
 4020fce0 1126120b 2622080c 12082112 c1100df0  .&..&"....!.....
 4020fcf0 85f2ff41 dbd081ee ff011fff 82080072  ...A...........r
 4020fd00 00002240 05807710 70722072 40047070  .."@..w.pr r@.pp
 4020fd10 745627fd 7cfb61e8 ff31e6ff 0c122243  tV'.|.a..1...."C
 4020fd20 0071e6ff a2afc021 f1c6c020 009811b2  .q.....!... ....
 4020fd30 62496619 46880180 50340055 11c02000  bIf.F...P4.U.. .
 4020fd40 32248270 33105033 20c02000 32648280  2$.p3.P3 . .2d..
 4020fd50 b41440bb 11c02000 92248260 9910b099  ..@... ..$.`....
 4020fd60 20c02000 92648280 8654c020 00522487   . ..d...T. .R$.
 4020fd70 a0551080 5520c020 00526487 917de281  .U..U . .Rd..}..
 4020fd80 16ecc020 00522242 805520c0 20005262  ... .R"B.U . .Rb
 4020fd90 420c8b7c 33c02000 8229d030 8810b088  B..|3. ..).0....
 4020fda0 20c02000 52a06482 69d09811 0b556605   . .R.d.i....Uf.
 4020fdb0 fa661951 c02000b2 224ab0b0 14ccabc0  .f.Q. .."J......
 4020fdc0 20003222 4a303014 1633ffc0 20003224   .2"J00..3.. .2$
 4020fdd0 82703310 c0200032 6482c020 00b22482  .p3.. .2d.. ..$.
 4020fde0 60bb10c0 2000b264 82c02000 922487a0  `... ..d.. ..$..
 4020fdf0 9910c020 00926487 0c28c020 0052224a  ... ..d..(. .R"J
 4020fe00 80551052 40060c02 46b7ff00 26120266  .U.R@...F...&..f
 4020fe10 222f51d9 fe220504 ec6221b4 c6c02000  "/Q.."...b!... .
 4020fe20 32224a30 3014cca3 c0200042 224a4040  2"J00.... .B"J@@
 4020fe30 141634ff 0c27c020 0062224a 70661062  ..4..'. .b"Jpf.b
 4020fe40 45060df0 8129e631 bbd161a8 c6c02000  E....).1..a... .
 4020fe50 8266440c 07c02000 72665151 e2f8c020  .fD... .rfQQ... 
 4020fe60 00526640 4108e9c0 20002223 f2402210  .Rf@A... ."#.@".
 4020fe70 c0200022 63f20df0 33330000 ffff3fff  . ."c...33....?.
 4020fe80 fffffffc ffffff3f a1fcff31 34da614e  .......?...14.aN
 4020fe90 d4c02000 a266f891 f9ff8161 e2c02000  .. ..f.....a.. .
 4020fea0 72269d90 77108077 20c02000 72669d51  r&..w..w . .rf.Q
 4020feb0 f4ff4170 e5c02000 22269d50 22104022  ..Ap.. ."&.P".@"
 4020fec0 20c02000 22669db1 6fe5a1e8 d1c02000   . ."f..o..... .
 4020fed0 92269db0 9910a099 20c02000 92669d81  .&...... . ..f..
 4020fee0 e9ff7145 c7c02000 52269d80 55107055  ..qE.. .R&..U.pU
 4020fef0 20c02000 52669d41 38c7c020 00222381   . .Rf.A8.. ."#.
 4020ff00 402210c0 20002263 810df000 41a9e212  @".. ."c....A...
 4020ff10 c1f0c911 09010204 35c12bd4 26107626  ........5.+.&.v&
 4020ff20 30732640 7026506d 0c00c020 00026cf8  0s&@p&Pm... ..l.
 4020ff30 01d5ff31 0adac020 00b22c9d 00bb10c0  ...1... ..,.....
 4020ff40 2000b26c 9da14fe5 c0200092 2c9da099   ..l..O.. ..,...
 4020ff50 10c02000 926c9d81 caffc020 00722c9d  .. ..l..... .r,.
 4020ff60 807710c0 2000726c 9d61c4ff c0200052  .w.. .rl.a... .R
 4020ff70 2c9d6055 10c02000 526c9d41 1fc7c020  ,.`U.. .Rl.A... 
 4020ff80 00222381 402220c0 20002263 81c81108  ."#.@" . ."c....
 4020ff90 0112c110 0df02204 36852e00 06e4ff00  ......".6.......
 4020ffa0 87130000 0002f23f 1c4212c1 e0c911d9  .......?.B......
 4020ffb0 21e931f9 41090101 a7c4c000 000c0ce1  !.1.A...........
 4020ffc0 f8ffd1f8 fff1e5d9 c0200002 2d840000  ......... ..-...
 4020ffd0 34cc90c0 2000222f f4202c34 9c020c22  4... ."/. ,4..."
 4020ffe0 019dc4c0 00003d0c 1bccc0c0 f437bed7  ......=......7..
 4020fff0 c811d821 e831f841 080112c1 200df000  ...!.1.A.... ...
 40210000 12c1f031 6be20901 02033542 aecf2610  ...1k.....5B..&.
 40210010 0f26300c 26400926 50060801 12c1100d  .&0.&@.&P.......
 40210020 f03c0621 32c6c020 00522285 40551060  .<.!2.. .R".@U.`
 40210030 5520c020 00526285 c0200002 228d4000  U . .Rb.. ..".@.
 40210040 10c02000 02628d02 03352610 2d26302a  .. ..b...5&.-&0*
 40210050 26400266 50c36203 36b626bd 0c020c13  &@.fP.b.6.&.....
 40210060 0c140c05 01e1d3c0 00000c82 0c030c84  ................
 40210070 0c0501dd d3c00000 86e7ff72 0336b627  ...........r.6.'
 40210080 980c120c 030c140c 0501d7d3 c000000c  ................
 40210090 020c830c 840c0501 d4d3c000 0046deff  .............F..
 402100a0 12c1f031 43e20901 02033552 aecf2610  ...1C.....5R..&.
 402100b0 0f26300c 26400926 50060801 12c1100d  .&0.&@.&P.......
 402100c0 f0220336 010ac6b6 22282c06 c0200072  .".6...."(,.. .r
 402100d0 20855077 10607720 c0200072 6085c020   .Pw.`w . .r`.. 
 402100e0 0042208d 50441060 4420c020 0042608d  .B .PD.`D . .B`.
 402100f0 8608003c 0ac02000 92208550 9910a099  ...<.. .. .P....
 40210100 20c02000 926085c0 20008220 8d508810   . ..`.. .. .P..
 40210110 c0200082 608d0203 3526104f 26304c26  . ..`...5&.O&0L&
 40210120 40026650 94020336 66101e0c 020c130c  @.fP...6f.......
 40210130 140c0501 add3c000 000c820c 030c840c  ................
 40210140 0501a9d3 c00000c6 dbff56c0 f60c120c  ..........V.....
 40210150 030c140c 0501a4d3 c000000c 020c830c  ................
 40210160 840c0501 a1d3c000 0046d3ff 02033666  .........F....6f
 40210170 101e0c12 0c030c14 0c05019b d3c00000  ................
 40210180 0c020c83 0c840c05 0198d3c0 000006ca  ................
 40210190 ff5650f2 0c020c13 0c140c05 0193d3c0  .VP.............
 402101a0 00000c82 0c030c84 0c05018f d3c00000  ................
 402101b0 86c1ff00 32a00012 c1f0c261 01026100  ....2......a..a.
 402101c0 cd020c12 05e3fa31 a5e021a5 e0c02000  .......1..!... .
 402101d0 02224230 0020c020 00026242 059dff26  ."B0. . ..bB...&
 402101e0 4c11661c 05c593ff 06020026 2c02668c  L.f........&,.f.
 402101f0 020597ff 3161eb0c 225173d3 c0200002  ....1a.."Qs.. ..
 40210200 25853000 10200020 c0200002 6585b1d0  %.0.. . . ..e...
 40210210 ebc02000 a22585b0 aa10c020 00a26585  .. ..%..... ..e.
 40210220 9176c6c0 20008225 85908820 c0200082  .v.. ..%... . ..
 40210230 65857112 ff617ae1 c0200042 259d7044  e.q..az.. .B%.pD
 40210240 10604420 c0200042 659d45db ff85c3ff  .`D . .Be.E.....
 40210250 45d5ff66 8c146105 f35181cf c0200042  E..f..a..Q... .B
 40210260 25866044 10c02000 426586c8 11080112  %.`D.. .Be......
 40210270 c1100df0 60360040 10110040 50150040  ....`6.@...@P..@
 40210280 30330040 4151d39c 82261220 26222826  03.@AQ...&. &"(&
 40210290 32302642 38665208 21f7ffc0 20002264  20&B8fR.!... ."d
 402102a0 f80df00c 03c02000 3264f80d f051f2fe  ...... .2d...Q..
 402102b0 c0200052 64f80df0 61f0ffc0 20006264  . .Rd...a... .bd
 402102c0 f80df071 eeffc020 007264f8 0df081ec  ...q... .rd.....
 402102d0 ffc02000 8264f80d f0000000 ff0f0080  .. ..d..........
 402102e0 30a5fe3f 0aa5fe3f 12c1f0e9 310901d9  0..?...?....1...
 402102f0 21c911dd 03cd0201 a0fd2622 02661211  !.........&".f..
 40210300 56ed0022 00045682 00320006 56230085  V.."..V..2..V#..
 40210310 a0fc7c3a 0c496152 cf8115e1 c0200072  ..|:.IaR..... .r
 40210320 28d0a077 10907720 c0200072 68d051aa  (..w..w . .rh.Q.
 40210330 eac02000 42268650 4420c020 00426686  .. .B&.PD . .Bf.
 40210340 668c11e1 eae4c020 00b22686 e0bb20c0  f...... ..&... .
 40210350 2000b266 8661e1ff e146e441 1bd3c020   ..f.a...F.A... 
 40210360 00626485 51c6fec0 20003224 9d503310  .bd.Q... .2$.P3.
 40210370 c0200032 649d0b2c 16020d72 ccfe16a7  . .2d..,...r....
 40210380 0c82ccf8 16480c22 a12c01b2 c3c00000  .....H.".,......
 40210390 b134e0c0 2000522b 42e05510 c0200052  .4.. .R+B.U.. .R
 402103a0 6b420c14 c0200032 2b584033 20c02000  kB... .2+X@3 . .
 402103b0 326b587c e0c02000 a22b5800 aa10c020  2kX|.. ..+X.... 
 402103c0 00a26b58 c0200091 00d39229 9c17693b  ..kX. .....)..i;
 402103d0 0c2201a0 c3c00000 b2a0f192 ac00c020  ."............. 
 402103e0 00711fe0 a8d790aa 10b0aa20 c02000a9  .q......... . ..
 402103f0 d782a0f0 c0200068 d7906610 806620c0  ..... .h..f..f .
 40210400 200069d7 0c220193 c3c00000 8512fdb1   .i.."..........
 40210410 b4ff226b 0085c8ff 05afff56 0d02d156  .."k.......V...V
 40210420 fd2123fe d20d05e2 0200561d 01661e0e  .!#.......V..f..
 40210430 0152fd02 00006610 05262c7f 261c7cc8  .R....f..&,.&.|.
 40210440 11d821e8 31080112 c1100df0 41ace401  ..!.1.......A...
 40210450 d0df3138 d0c02000 2223fa40 2210c020  ..18.. ."#.@".. 
 40210460 0042a003 52a00762 a0040cf7 08002263  .B..R..b......"c
 40210470 fa22a062 0220270c 13c00000 22a06201  .".b. '.....".b.
 40210480 c4df0c13 08000cb4 02202652 a080c000  ......... &R....
 40210490 00059bff 4149e151 f1df3804 0c025033  ....AI.Q..8...P3
 402104a0 20390485 b1fc22a0 c8016ac3 c0000071   9...."...j....q
 402104b0 42e16807 e0661069 07c6b4ff 912ffd82  B.h..f.i...../..
 402104c0 a000713b e1824200 72076482 49007071  ..q;..B.r.d.I.pq
 402104d0 0456a7f6 22a004c5 cdff2182 ff220200  .V..".....!.."..
 402104e0 052afc22 a0040c03 c5dfff06 d4ff0000  .*."............
 402104f0 0c0651fe c4c02000 626550c0 20002265  ..Q... .beP. ."e
 40210500 51c02000 426540c0 20003265 440df000  Q. .Be@. .2eD...
 40210510 12c1f009 01c55cff 26220c0c 020c0341  ......\.&".....A
 40210520 80fdc5fc ff460200 0c020c03 41bde005  .....F......A...
 40210530 fcff0801 12c1100d f0000000 6ac01900  ............j...
 40210540 c8400600 20203020 00005020 12c1f0c9  .@..  0 ..P ....
 40210550 1109017c f0c1e5c4 c0200002 6c4905fb  ...|..... ..lI..
 40210560 ff0c820c 034554ff 4564ff22 a3e80541  .....ET.Ed."...A
 40210570 ff3119ea c0200022 2c423022 20c02000  .1... .",B0" . .
 40210580 226c420c 224588ff 858bff01 ecff0c04  "lB."E..........
 40210590 0c75c020 00026c40 b1c3edc0 2000b26c  .u. ..l@.... ..l
 402105a0 41c02000 426c42a1 e6ffc020 00a26c43  A. .BlB.... ..lC
 402105b0 91c1f5c0 2000926c 440c48c0 2000826c  .... ..lD.H. ..l
 402105c0 46c02000 426c48c0 2000426c 50c02000  F. .BlH. .BlP. .
 402105d0 426c5171 dcffc020 00726c52 61dbffc0  BlQq... .rlRa...
 402105e0 2000626c 53c02000 426c56c0 2000526c   .blS. .BlV. .Rl
 402105f0 57c02000 526c58c0 2000426c 59c02000  W. .RlX. .BlY. .
 40210600 426c5ac0 2000426c 5dc02000 426c60c0  BlZ. .Bl]. .Bl`.
 40210610 2000426c 64c02000 426c65c0 2000426c   .Bld. .Ble. .Bl
 40210620 66c02000 426c67c0 2000426c 68c02000  f. .Blg. .Blh. .
 40210630 426c6ac0 2000426c 6bc02000 426c6cc0  Blj. .Blk. .Bll.
 40210640 2000426c 6dc81108 0112c110 0df00000   .Blm...........
 40210650 70a6fe3f 31ffffc0 22112a23 0df00000  p..?1...".*#....
 40210660 51fcffc0 62116a55 39254245 0c0df000  Q...b.jU9%BE....
 40210670 60a6fe3f 4c6b1040 12c1f059 110921c9  `..?Lk.@...Y..!.
 40210680 314901cd 0221f2ff c04c114a 220c6401  1I...!...L.J".d.
 40210690 c5cec000 002d0c38 01481145 fcff001c  .....-.8.H.E....
 402106a0 4051f3ff 0c132205 000033a1 30222020  @Q...."...3.0"  
 402106b0 20742245 0001efff c0000020 2074c831   t"E.......  t.1
 402106c0 082112c1 100df000 31eaff32 03000002  .!......1..2....
 402106d0 40302091 2020040d f0000000 12c1f002  @0 .  ..........
 402106e0 610001e3 ff42a001 02000000 02400030  a....B.......@.0
 402106f0 9107631d 00124000 34a142af ff403330  ..c...@.4.B..@30
 40210700 41dcff30 30103244 0005f902 01d9ff02  A..00.2D........
 40210710 00002d00 01d8ffc0 00002020 74080112  ..-.......  t...
 40210720 c1100df0 41cbffc0 52115a44 38240c02  ....A...R.ZD8$..
 40210730 26130772 040c0c16 70268320 20740df0  &..r....p&.  t..
 40210740 31c4ffc0 22112a23 22020d0d f0000000  1...".*#".......
 40210750 31c0ffc0 22112a23 22020e0d f0000000  1...".*#".......
 40210760 41bcffc0 52115a44 32440d0d f0000000  A...R.ZD2D......
 40210770 41b8ffc0 52115a44 32440e0d f0000000  A...R.ZD2D......
 40210780 31b4ffc0 22112a23 22020c0d f0000000  1...".*#".......
 40210790 32a00012 c1f0c261 010901cd 0205fcff  2......a........
 402107a0 2d0c0c03 85fcff2d 0c858203 3d0c0c12  -......-....=...
 402107b0 0c04c550 03c81108 0112c110 0df00000  ...P............
 402107c0 10bb2240 12c1f0c2 61010261 00cd0221  .."@....a..a...!
 402107d0 fcff3d0c 01b0cdc0 00000c02 3d0c0c04  ..=.........=...
 402107e0 c54d032d 0c45efff cc7201f4 d7c00000  .M.-.E...r......
 402107f0 85ab01c8 11080112 c1100df0 20bb2240  ............ ."@
 40210800 30bb2240 12c1e009 21591169 01c931d9  0."@....!Y.i..1.
 40210810 41cd02dd 04662316 21f9ff3d 0c019dcd  A....f#.!..=....
 40210820 c000002d 0c381148 0145e3ff c60d0066  ...-.8.H.E.....f
 40210830 133121f3 ffc03c20 0197cdc0 00002d0c  .1!...< ......-.
 40210840 3d0dc53d 033d0d2d 0c481158 0185e2ff  =..=.=.-.H.X....
 40210850 66120285 7b032d0c 45f3ff66 1c0805b1  f...{.-.E..f....
 40210860 00860000 c5f5ffc8 31d84108 2112c120  ........1.A.!.. 
 40210870 0df00000 40bb2240 740f0040 800f0040  ....@."@t..@...@
 40210880 12c1e0e2 61040261 01d931c9 21dd06cd  ....a..a..1.!...
 40210890 0216d303 3d047901 4d055d06 85ca02ed  ....=.y.M.].....
 402108a0 023d0d21 f4ff017b cdc00000 ac9e2d0c  .=.!...{......-.
 402108b0 c5ecffcd 02080102 6e1701ef ffc00000  ........n.......
 402108c0 4d0c2d0e 0c03c5b0 0201ecff c0000086  M.-.............
 402108d0 01003d04 4d05c5d4 02c5ea02 cd029632  ..=.M..........2
 402108e0 02202074 c5e3ff16 a2012161 ff220200  .  t......!a."..
 402108f0 17e2112d 0c05bc00 c821d831 e8410811  ...-.....!.1.A..
 40210900 12c1200d f085a600 06fbff00 00000000  .. .............
 40210910 50bb2240 58bb2240 48bb2240 12c1f002  P."@X."@H."@....
 40210920 61016624 11526100 1695034d 033d020c  a.f$.Ra....M.=..
 40210930 22c53803 060c0066 14173043 20203220  ".8....f..0C  2 
 40210940 22a002c5 370321f2 ff0152cd c00000c6  "...7.!...R.....
 40210950 0200c5e3 ff21efff 014fcdc0 00000811  .....!...O......
 40210960 12c1100d f085e2ff 21ecff38 010149cd  ........!..8..I.
 40210970 c00000c6 f9ff0000 12c1d009 71494159  ............qIAY
 40210980 517961e9 a1d991c9 81dd02cd 03ed06b6  Qya.............
 40210990 6605c5dc ff460400 ccb345dc ff2d0d3d  f....F....E..-.=
 402109a0 0cc5dcff 86000085 dcffe06e 20422104  ...........n B!.
 402109b0 58517861 2d0c3d0d 02013009 01454603  XQxa-.=...0..EF.
 402109c0 3d0c2d0d 055703c8 81d891e8 a1087112  =.-..W........q.
 402109d0 c1300df0 12c1f002 6100c551 03022100  .0......a..Q..!.
 402109e0 12c11080 00000000 12c1f002 610085d0  ............a...
 402109f0 02022100 5642001c f2c60200 22020322  ..!.VB......".."
 40210a00 c2a08022 01202831 12c1100d f0000000  ...". (1........
 40210a10 c0a6fe3f 0c0791fe ff2082b0 9088a022  ...?..... ....."
 40210a20 48043248 05524808 42480742 48066258  H.2H.RH.BH.BH.bX
 40210a30 0c724809 72480a72 48117978 79880df0  .rH.rH.rH.yxy...
 40210a40 c00b0000 90a6fe3f 12c1f002 61000507  .......?....a...
 40210a50 0022a002 0c330c44 0ca50c06 45fbff0c  ."...3.D....E...
 40210a60 320c730c 440ca50c 0685faff 0c120c23  2.s.D..........#
 40210a70 0c340c45 61f3ffc5 f9ff0c02 0c230c24  .4.Ea........#.$
 40210a80 0c3562a5 e0c5f8ff 0c420c23 0c440ca5  .5b......B.#.D..
 40210a90 0c0605f8 ff0c720c 230c540c a50c0645  ......r.#.T....E
 40210aa0 f7ff21e8 ff0c8332 42002212 0e0c13c5  ..!....2B.".....
 40210ab0 8a02c59f 02080112 c1100df0 2a090000  ............*...
 40210ac0 2179ec42 a15f0c95 61fdff0c b731ddff  !y.B._..a....1..
 40210ad0 82a20089 13892372 430d7243 0c625308  ......#rC.rC.bS.
 40210ae0 62530752 530a4253 0e22530f 0df00000  bS.RS.BS."S.....
 40210af0 61d5ff0c 541c4527 35015d02 502074b6  a...T.E'5.].P t.
 40210b00 52014d02 42460d42 460c0df0 e0a7fe3f  R.M.BF.BF......?
 40210b10 9c201040 22a06a0c 230c8471 fcff12c1  . .@".j.#..q....
 40210b20 f0090101 1bde0c06 08005d06 02202669  ..........].. &i
 40210b30 17c00000 21f6ff01 f6ffc000 0021f3ff  ....!........!..
 40210b40 080112c1 1028120d f0000000 31f0ff12  .....(......1...
 40210b50 c1f00261 00322301 05defe45 e2fe0801  ...a.2#....E....
 40210b60 12c1100d f0000000 12c1f009 0101e7ff  ................
 40210b70 02003007 601085e0 fe01e4ff 0c820200  ..0.`...........
 40210b80 30060100 0000000c 02176004 1c033022  0.........`...0"
 40210b90 20276004 0c444022 20003304 c5f0fe08   '`..D@" .3.....
 40210ba0 0112c110 0df00000 00000000 7880fe3f  ............x..?
 40210bb0 34a9fe3f 2ca9fe3f 54211040 12c1f002  4..?,..?T!.@....
 40210bc0 610001fa ff21d1ff 02000022 02c86610  a....!....."..f.
 40210bd0 16f6225b 22a00232 a000c570 ff41cbff  .."["..2...p.A..
 40210be0 0c233244 c8061400 66201922 a00101f2  .#2D....f ."....
 40210bf0 ffc00000 22a00832 a000c56e ff0c0201  ...."..2...n....
 40210c00 eeffc000 0041eaff 52040002 a0006615  .....A..R.....f.
 40210c10 0b22a000 22440005 d1fb02a0 0021e5ff  .".."D.......!..
 40210c20 62020066 16020242 00080112 c1100df0  b..f...B........
 40210c30 22a00232 a001056b ff0110ff c000000c  "..2...k........
 40210c40 0201ddff c0000085 940171b0 ff7207c9  ..........q..r..
 40210c50 6617b10c 1a9102cd c0200082 2985a088  f........ ..)...
 40210c60 20c02000 82698522 a0a0019c d0c00000   . ..i."........
 40210c70 46e4ff00 61a6ff22 063251d3 d0ac12c0  F...a..".2Q.....
 40210c80 20004206 3a522580 285638b6 5022c040   .B.:R%.(V8.P".@
 40210c90 33822733 0c822612 7216148a 7727b701  3.'3..&.r...w'..
 40210ca0 0df00c02 0df00000 f4a8fe3f d0bc2240  ...........?.."@
 40210cb0 c08bfe3f e0bc2240 3ffe0000 12c1e0f2  ...?.."@?.......
 40210cc0 6104e261 03026100 d921c911 c1f7ffdd  a..a..a..!......
 40210cd0 02020c00 0c1ecc40 85e3ffe2 4c00c18b  .......@....L...
 40210ce0 ff222c12 381c202d c005c5fe f1b7d0c0  .",.8. -........
 40210cf0 2000e22f 8032a12c 27330206 29000c04   ../.2.,'3..)...
 40210d00 21d8ccc0 20006222 850c1560 60046045  !... .b"...``.`E
 40210d10 93404074 424cc966 14187ce8 c0200072  .@@tBL.f..|.. .r
 40210d20 22858077 10c02000 7262855c 02016bd0  "..w.. .rb.\..k.
 40210d30 c0000085 85010c12 01a0ffc0 00000c22  ..............."
 40210d40 0547ff05 ddff381c 222c12e9 51202dc0  .G....8.",..Q -.
 40210d50 85befeed 02c02000 4851222f 80381c40  ...... .HQ"/.8.@
 40210d60 22c085bd fedd0201 c4fec000 0052a3e8  "............R..
 40210d70 02aed40a 6e5a5d67 b53ad02e c00a2285  ....nZ]g.:....".
 40210d80 deff020c 31420c30 00312426 233a0764  ....1B.0.1$&#:.d
 40210d90 3721c6ff 31c7ff42 a0f6013e ccc00000  7!..1..B...>....
 40210da0 06ffff21 c4ff013b ccc00000 01b4fec0  ...!...;........
 40210db0 00008600 0045e0ff 0c12c811 d821e831  .....E.......!.1
 40210dc0 f8410801 12c1200d f0720c30 62a00652  .A.... ..r.0b..R
 40210dd0 a0f15050 10605520 50507461 b7ff8055  ..PP.`U PPta...U
 40210de0 11705520 60551052 4c305058 41524c31  .pU `U.RL0PXARL1
 40210df0 45e0fe61 bec2c020 00822647 897cc020  E..a... ..&G.|. 
 40210e00 00722f80 798cc020 000c2268 96699c22  .r/.y.. .."h.i."
 40210e10 4cc8c5ea fe224cc8 209074cc 390c22c5  L...."L. .t.9.".
 40210e20 fefe0c02 86e4ff00 4139ff0c 13420431  ........A9...B.1
 40210e30 0c024041 2442c4fd 4023830d f0000000  ..@A$B..@#......
 40210e40 7c80fe3f f0bc2240 c88bfe3f 4ca9fe3f  |..?.."@...?L..?
 40210e50 00bd2240 d08bfe3f 10bd2240 20bd2240  .."@...?.."@ ."@
 40210e60 12c1f009 01e931c9 11d921cd 02d127ff  ......1...!...'.
 40210e70 e1bbccfc 322d0e01 cdc0c000 002d0e1c  ....2-.......-..
 40210e80 930c140c 1501c8c0 c0000021 eeff51ec  ...........!..Q.
 40210e90 ff42a640 0c03324d ca324dcc 490531ea  .B.@..2M.2M.I.1.
 40210ea0 ff01fccb c0000086 1a0021e9 ff31e9ff  ..........!..1..
 40210eb0 920dcc81 e6ff0c16 72080062 4dcc9076  ........r..bM..v
 40210ec0 83724800 01f4cbc0 0000261c 08262c05  .rH.......&..&,.
 40210ed0 c24dcb86 0f00320d ca371c2f 661c4be0  .M....2..7./f.K.
 40210ee0 2e2001b2 c0c00000 e02e2031 f6c342a0  . ........ 1..B.
 40210ef0 010c1501 adc0c000 0021f2c3 c5810101  .........!......
 40210f00 f1c33d0c a1cfffc2 4dca090a 21d3ff01  ..=.....M...!...
 40210f10 e1cbc000 0021d1ff 01dfcbc0 0000c811  .....!..........
 40210f20 d821e831 080112c1 100df0e0 2e20019f  .!.1......... ..
 40210f30 c0c00000 e02e2032 a0190c14 0c15019a  ...... 2........
 40210f40 c0c00000 22a06445 7d0102a6 4046ecff  ....".dE}...@F..
 40210f50 21effe0c 034202cc 2202ca0b 44402393  !....B.."...D@#.
 40210f60 0df00000 d4170000 94a8fe3f 28bd2240  ...........?(."@
 40210f70 30bd2240 12c1f0d2 61030261 01d1e3fe  0."@....a..a....
 40210f80 c26102d2 2d12c110 d0d0d2c0 c02000c2  .a..-........ ..
 40210f90 2c803c20 d7b07a0c 120107ff c000000c  ,.< ..z.........
 40210fa0 820521ff 0c020104 ffc00000 c0200021  ..!.......... .!
 40210fb0 06d02222 8001ebff c0c2c022 cdce0a0c  ..""......."....
 40210fc0 27b05a21 e9ff2901 0179c0c0 000032a3  '.Z!..)..y....2.
 40210fd0 e8c02dc0 22c2ce01 8ac0c000 000c043d  ..-."..........=
 40210fe0 020c1528 010170c0 c0000001 c8fe21c7  ...(..p.......!.
 40210ff0 fe020031 22023000 31242623 3007622d  ...1".0.1$&#0.b-
 40211000 21dbff31 2bff42a2 1601a2cb c0000006  !..1+.B.........
 40211010 ffff21d7 ff019fcb c0000086 0000c5b9  ..!.............
 40211020 ff0c12c8 21d83108 1112c110 0df032a0  ....!.1.......2.
 40211030 f10c6430 30104033 2041b4fe 0c023244  ..d00.@3 A....2D
 40211040 3186f7ff 40bd2240 60bd2240 44a8fe3f  1...@."@`."@D..?
 40211050 12c1e009 21c931d9 41cd02d1 acfe2622  ....!.1.A.....&"
 40211060 0b26425e 02c2f816 b00826b2 55020d31  .&B^......&.U..1
 40211070 00312426 332521f3 ff4d0c01 86cbc000  .1$&3%!..M......
 40211080 00020d31 00212426 321121ef ff3108ff  ...1.!$&2.!..1..
 40211090 42a24a01 80cbc000 0006ffff 22a0f120  B.J.........".. 
 402110a0 20105760 180ca000 0220024d 31c5b0ff   .W`..... .M1...
 402110b0 c24d3308 21c831d8 4112c120 0df00d02  .M3.!.1.A.. ....
 402110c0 86f9ff22 0d315762 a321e0ff 29110137  ...".1Wb.!..)..7
 402110d0 c0c00000 281142a0 bf320d31 0c154033  ....(.B..2.1..@3
 402110e0 104c0440 3320324d 310c040c a3012ec0  .L.@3 2M1.......
 402110f0 c0000086 ddff22cd 50290101 2cc0c000  ......".P)..,...
 40211100 00222d13 32a3e801 3ec0c000 000c043d  ."-.2...>......=
 40211110 020c1528 010124c0 c0000086 d3ff0000  ...(..$.........
 40211120 12c1f009 0101a1fe 02000066 20040c82  ...........f ...
 40211130 c5f1ff08 0112c110 0df00000 0df00000  ................
 40211140 0df00000 74192140 c00d0040 3170fe21  ....t.!@...@1p.!
 40211150 fdff12c1 f0090101 fcffc000 00216bfe  .............!k.
 40211160 02023132 a0f13000 100c4330 00200242  ..12..0...C0. .B
 40211170 31080112 c1100df0 70bd2240 30a8fe3f  1.......p."@0..?
 40211180 91b3ff12 c1e00901 f941e931 d921c911  .........A.1.!..
 40211190 c2c9ecd2 c99ce18c cfc02000 020d3232  .......... ...22
 402111a0 a0f1220d 31e22e80 3022100c 83302220  ..".1...0"...0" 
 402111b0 224d3116 3009584d 38bde0f5 c0f7b34c  "M1.0.XM8......L
 402111c0 0c0c420d 3af2a064 1bcc3064 82596d08  ..B.:..d..0d.Ym.
 402111d0 5d5a5359 4d5020c0 27b6030a 76795df7  ]ZSYMP .'...vy].
 402111e0 9c2421e5 ff6d0e01 2bcbc000 009197ff  .$!..m..+.......
 402111f0 584da150 cb38bd42 0d3a0c1b 404b8342  XM.P.8.B.:..@K.B
 40211200 4d3a303a 8339bde0 85c08733 ba2d09c1  M:0:.9.....3.-..
 40211210 dbff01e6 bfc00000 2d0c01e4 bfc00000  ........-.......
 40211220 32a3e842 2d12584d 222d13e0 55c05a22  2..B-.XM"-..U.Z"
 40211230 4022c001 f3bfc000 000c043d 020c152d  @".........=...-
 40211240 0c01d9bf c0000086 07002d09 01d8bfc0  ..........-.....
 40211250 00002d0c 01d6bfc0 00002d0c 32a0690c  ..-.......-.2.i.
 40211260 040c1501 d1bfc000 00c811d8 21e831f8  ............!.1.
 40211270 41080112 c1200df0 a0bd2240 12c1f009  A.... ...."@....
 40211280 0145baff dca20c12 05de0021 20fe0c23  .E.........! ..#
 40211290 02023142 a0f14000 10300020 02423106  ..1B..@..0. .B1.
 402112a0 020021f5 ff01fbca c0000008 0112c110  ..!.............
 402112b0 0df00000 c0bd2240 12c1f009 0185b6ff  ......"@........
 402112c0 dca20c02 45da0021 11fe0cc3 02023142  ....E..!......1B
 402112d0 a0f14000 10300020 02423106 020021f5  ..@..0. .B1...!.
 402112e0 ff01ecca c0000008 0112c110 0df00000  ................
 402112f0 c4361040 0c020c03 12c1f0c9 11090101  .6.@............
 40211300 92ffc000 00c101fe 32a0bf02 0c3122cc  ........2....1".
 40211310 50300010 024c3101 a5bfc000 00214bff  P0...L1......!K.
 40211320 01a3bfc0 0000320c 31420c37 47e332ec  ......2.1B.7G.2.
 40211330 f402a0f1 0c02224c 39000310 5763100c  ......"L9...Wc..
 40211340 e3303020 324c3101 eaffc000 00060200  .00 2L1.........
 40211350 024c3101 e7ffc000 00c81108 0112c110  .L1.............
 40211360 0df045f5 ff06fcff e0bd2240 28230000  ..E......."@(#..
 40211370 12c1f0c9 11c1e5fd 0901020c 31000504  ............1...
 40211380 16600d22 cc500189 bfc00000 2130ff01  .`.".P......!0..
 40211390 87bfc000 003105fe 42a0ef02 0c310c05  .....1..B....1..
 402113a0 524c3652 4c374000 10320300 024c3166  RL6RL7@..2...L1f
 402113b0 231545a7 ff8cc221 ecfe017c bfc00000  #.E....!...|....
 402113c0 0c22c5c8 ff020c31 00312426 730a8c73  .".....1.1$&s..s
 402113d0 05f2ff32 0c313031 2461fbce 21e3ff78  ...2.101$a..!..x
 402113e0 2c583c42 0c36c020 00622680 7066c001  ,X<B.6. .b&.pf..
 402113f0 a9cac000 000c7722 a0df020c 3141b1c2  ......w"....1A..
 40211400 31dbff0c 05524c32 59bc524c 3a596c59  1....RL2Y.RL:YlY
 40211410 4c595c59 8c326c13 426c1232 0c302000  LY\Y.2l.Bl.2.0 .
 40211420 10000074 2125fe80 00113000 2032a0fe  ...t!%....0. 2..
 40211430 20001000 20740048 41424c31 30221022   ... t.HABL10"."
 40211440 4c300008 74008141 87070e62 a0f16060  L0..t..A...b..``
 40211450 10624c31 01a7ffc0 0000c811 080112c1  .bL1............
 40211460 100df000 80a8fe3f 12c1f021 a8fd0261  .......?...!...a
 40211470 0102a000 02423421 fbff2261 00014bbf  .....B4!.."a..K.
 40211480 c0000031 a2fd3203 3157e313 051802cc  ...1..2.1W......
 40211490 d2280132 a1f40c04 0c150143 bfc00000  .(.2.......C....
 402114a0 081112c1 100df000 0df00000 00be2240  .............."@
 402114b0 1da8fe3f 20be2240 12c1f0d2 6103c261  ...? ."@....a..a
 402114c0 02c192fd 02610102 0c31dd02 00050456  .....a...1.....V
 402114d0 8009451e 02290116 020942a0 df320c31  ..E..)....B..2.1
 402114e0 21e1ff40 33102c04 40332032 4c31012f  !..@3.,.@3 2L1./
 402114f0 bfc00000 21eeff32 0cca420c 31520c36  ....!..2..B.1R.6
 40211500 40412401 64cac000 00420c31 40012456  @A$.d....B.1@.$V
 40211510 30060ce6 52a0f150 54106055 20524c31  0...R..PT.`U RL1
 40211520 22a00032 a0000108 ffc00000 380121e0  "..2........8.!.
 40211530 ff421310 d24c3c42 5c2232c3 1a0c6401  .B...L<B\"2...d.
 40211540 19cbc000 00720c30 82a0fe80 77100c18  .....r.0....w...
 40211550 80772072 4c30619c cec02000 0c056226  .w rL0a... ...b&
 40211560 80692c59 3cc51e01 c52001c8 21d83108  .i,Y<.... ..!.1.
 40211570 1112c110 0df02660 a6920c30 0769a021  ......&`...0.i.!
 40211580 cdff31cb fd42a339 0143cac0 000006ff  ..1..B.9.C......
 40211590 ff000000 30be2240 40be2240 f5a8fe3f  ....0."@@."@...?
 402115a0 8880fe3f f6a8fe3f 5c6f1040 12c1d0d9  ...?...?\o.@....
 402115b0 61f981c9 51e97109 41ed0330 04c0a6a0  a...Q.q.A..0....
 402115c0 40cb0e32 1304c151 fd603311 39bc0034  @..2...Q.`3.9..4
 402115d0 c0a6231e 0c0d5200 01720000 2b656723  ..#...R..r..+eg#
 402115e0 20665701 dd000a05 2b000034 c0e623e5   fW.....+..4..#.
 402115f0 4600000c 0d2931dc 6d21e6ff 0126cac0  F....)1.m!...&..
 40211600 0000c851 d861e871 f8810841 12c1300d  ...Q.a.q...A..0.
 40211610 f021dafe 01e6bec0 000048bc 381e280e  .!........H.8.(.
 40211620 621c680c 0f1b66f2 5c67625c 68e20d03  b.h...f.\gb\h...
 40211630 520d0249 11505e83 40558259 215d0f01  R..I.P^.@U.Y!]..
 40211640 daffc000 00983172 0c329889 a8119819  ......1r.2......
 40211650 88212099 c0996c9a 88895caa 99994c9c  .! ...l...\...L.
 40211660 27320c3a 371e104d 0e21cbff 010acac0  '2.:7..M.!......
 40211670 00008600 00e24c3a 32a0fe02 1c220c19  ......L:2...."..
 40211680 2d09924c 3200a0d4 420d0482 0d013034  -..L2...B.....04
 40211690 103a8840 4004424c 2a82c8fc 8080749c  .:.@@.BL*.....t.
 402116a0 da0053a4 37351657 38130070 24306dc0  ..S.75.W8..p$0m.
 402116b0 6a656206 05000740 6060b107 e6010c02  jeb....@``......
 402116c0 0c1051b6 ff208074 20307432 4c2bcc34  ..Q.. .t 0t2L+.4
 402116d0 0c073007 830c03e2 0d030901 42050000  ..0.........B...
 402116e0 f0741b44 4040748c d8020c31 000124a6  .t.D@@t....1..$.
 402116f0 2005e660 02924ce0 f64e1a49 919c5e3d   ..`..L..N.I..^=
 40211700 0e0cf201 a3c0c000 000c0348 9151a3ff  ...........H.Q..
 40211710 20007446 00000cf0 07342532 4500e1a0   .tF.....4%2E...
 40211720 ff420ce0 01a0ff16 c40d2200 001b2220  .B........"..." 
 40211730 2074b622 68324000 42a51442 5e00c617   t."h2@.B..B^...
 40211740 00424500 5801220c 31505074 56950462  .BE.X.".1PPtV..b
 40211750 0d03020c 3b6060c1 a6b6060c 1f0c0002  ....;``.........
 40211760 4c3b1b50 524c3b20 012416a0 06261039  L;.PRL; .$...&.9
 40211770 26204826 30612640 6926506f 72c0fa16  & H&0a&@i&Por...
 40211780 f7e782c0 f95698e7 566fe745 be001602  .....V..Vo.E....
 40211790 e7c50001 869aff00 005d0346 f1ff2240  .........].F.."@
 402117a0 00324ce0 324ce146 e6ff164f e547e205  .2L.2L.F...O.G..
 402117b0 920c3716 b9e405b0 ff4691ff 162fe40c  ..7......F.../..
 402117c0 020c0301 61fec000 00a20c31 a0a40416  ....a......1....
 402117d0 fae245ae ff468aff 166fe20c 1205c300  ..E..F...o......
 402117e0 8687ff16 5f0405ad ff4685ff 165f0421  ...._....F..._.!
 402117f0 17fe016e bec00000 b20c31b0 b404160b  ...n......1.....
 40211800 e045abff 867eff42 0ce13240 0016f403  .E...~.B..2@....
 40211810 22000122 c2012020 7416d202 0c033240  ".."..  t.....2@
 40211820 0105cf00 0c03225e 0006ddff 47e214c5  ......"^....G...
 40211830 a4ff0673 ff520c33 52c5f856 35dcc590  ...s.R.3R..V5...
 40211840 ff466fff 4590ffc6 6dff2240 0106d4ff  .Fo.E...m."@....
 40211850 32400186 d2ff0000 d4b2fe3f a1ffff41  2@.........?...A
 40211860 abfc980a 88347844 68543824 58642033  .....4xDhT8$Xd 3
 40211870 c02055c0 2066c020 77c02a88 2a99990a  . U. f. w.*.*...
 40211880 89347944 69545964 39240df0 60be2240  .4yDiTYd9$..`."@
 40211890 12c1e009 21c931d9 41cd02d1 9cfc2622  ....!.1.A.....&"
 402118a0 13264208 66820206 210066b2 3f022d35  .&B.f...!.f.?.-5
 402118b0 1b00026d 35322d36 220d311b 33326d36  ...m52-6".1.32m6
 402118c0 57622921 e2fd2911 0139bec0 00002811  Wb)!..)..9....(.
 402118d0 52a0bf42 0d310ca3 5044104c 05504420  R..B.1..PD.L.PD 
 402118e0 424d310c 150c0401 30bec000 00c52cff  BM1.....0.....,.
 402118f0 020d31c2 4d330061 24263611 21e4ff31  ..1.M3.a$&6.!..1
 40211900 ecfc42a4 9f0163c9 c0000006 ffffc831  ..B...c........1
 40211910 22a0f120 20105760 100ca000 0220024d  "..  .W`..... .M
 40211920 31d84108 2112c120 0df00d02 86fbff22  1.A.!.. ......."
 40211930 cd502901 011ebec0 0000222d 1332a3e8  .P)......."-.2..
 40211940 0130bec0 00000c04 3d020c15 28010116  .0......=...(...
 40211950 bec00000 46e5ff00 70be2240 80be2240  ....F...p."@.."@
 40211960 40420f00 00daff3f a0be2240 90be2240  @B.....?.."@.."@
 40211970 30371040 12c1e0c9 31d94109 2101bffb  07.@....1.A.!...
 40211980 c00000d1 62fc020d 31003124 66230747  ....b...1.1$f#.G
 40211990 6004420d 369c6457 601421ef ff420d36  `.B.6.dW`.!..B.6
 402119a0 00540401 3cc9c000 00020d31 00312466  .T..<......1.1$f
 402119b0 23074760 04520d36 9c355760 1121e7ff  #.G`.R.6.5W`.!..
 402119c0 31bcfc42 a4af0133 c9c00000 06ffffc1  1..B...3........
 402119d0 c7bf67e0 79006741 5636070c 1201e4ff  ..g.y.gAV6......
 402119e0 c0000026 126821de ff820d30 0c099911  ...&.h!....0....
 402119f0 80a004a0 29930768 058527ff 1622040c  ....)..h..'.."..
 40211a00 2031d8ff b20dca32 23ec661b 69295116   1.....2#.f.i)Q.
 40211a10 13110c20 2072a0f0 77117075 41c02000  ...  r..w.puA. .
 40211a20 689c5813 7a666735 010c1000 3074015f  h.X.zfg5....0t._
 40211a30 fc0b8332 40001648 0e662330 4553ff06  ...2@..H.f#0ES..
 40211a40 0b00c573 ff0c020c 0301bffd c0000001  ...s............
 40211a50 8afbc000 00c02000 989c92c9 32c02000  ...... .....2. .
 40211a60 99ccd841 c8310821 12c1200d f00c028c  ...A.1.!.. .....
 40211a70 92c570ff 46f3ff3d 0046ecff a14cfca2  ..p.F..=.F...L..
 40211a80 0a00661a bf320dc8 56d30342 2d07c020  ..f..2..V..B-.. 
 40211a90 00222c47 322d0140 22c045ed fd314acd  .",G2-.@".E..1J.
 40211aa0 c0200048 8d322380 4a223022 c02901c5  . .H.2#.J"0".)..
 40211ab0 daff5801 489d5055 a0f05511 5055415a  ..X.H.PU..U.PUAZ
 40211ac0 44c02000 498c320d c8c02000 022c4a00  D. .I.2... ..,J.
 40211ad0 6014dc06 21a5ff31 76fc42a5 1901edc8  `...!..1v.B.....
 40211ae0 c0000006 ffff0760 0bc02000 222c4620  .......`.. .",F 
 40211af0 28544602 00005104 28110c24 5024930b  (TF...Q.(..$P$..
 40211b00 730c261c 0820b204 0c4ab02a 930b9290  s.&.. ...J.*....
 40211b10 92109028 93702683 45d7ff86 c9ffc519  ...(.p&.E.......
 40211b20 ff86d2ff 2192ff01 dbc8c000 0028510c  ....!........(Q.
 40211b30 1346beff a8be2240 51f5fb12 c1f04205  .F...."@Q.....B.
 40211b40 31090140 31246663 1902a0f1 00041057  1..@1$fc.......W
 40211b50 64200ce2 20202022 453101e5 fdc00000  d ..   "E1......
 40211b60 06020021 f4ff01cb c8c00000 080112c1  ...!............
 40211b70 100df002 453101de fdc00000 06fbff00  ....E1..........
 40211b80 b0be2240 b8be2240 c0be2240 12c1f009  .."@.."@.."@....
 40211b90 0101defb 02003100 31246613 1457e02c  ......1.1$f..W.,
 40211ba0 21f8ff31 43fc42a5 6201bac8 c0000006  !..1C.B.b.......
 40211bb0 ffff21f4 ff01b7c8 c0000021 f3ff313c  ..!........!..1<
 40211bc0 fc42a56b 01b4c8c0 000006ff ff450aff  .B.k.........E..
 40211bd0 8c428557 ff060300 0c020c03 015bfdc0  .B.W.........[..
 40211be0 0000c559 ff080112 c1100df0 58a8fe3f  ...Y........X..?
 40211bf0 f8a8fe3f af360000 4d0212c1 f0c921d9  ...?.6..M.....!.
 40211c00 3121faff 09114901 0169bdc0 0000d1bf  1!....I..i......
 40211c10 fb380142 0d310c0c 400124bc 90c24d37  .8.B.1..@.$...M7
 40211c20 c24d3638 8301f2ff 32030f62 0d392613  .M68....2..b.9&.
 40211c30 3101b8d2 c0000042 0d390c10 662408c2  1......B.9..f$..
 40211c40 4d394567 ffc60300 420d3157 64064057  M9Eg....B.1Wd.@W
 40211c50 41bc45cd 00c24d39 c821d831 081112c1  A.E...M9.!.1....
 40211c60 100df0c2 40001c08 72a0ef70 74108077  ....@...r..pt..w
 40211c70 20724d31 662608c2 4d39c563 ffc6f5ff   rM1f&..M9.c....
 40211c80 c24d3985 f0ff86f3 ff85fefe 81daff01  .M9.............
 40211c90 d8ff2738 08c24d39 454eff46 eeff9200  ..'8..M9EN.F....
 40211ca0 0052a00e 22c90197 350b2240 0022a001  .R.."...5."@."..
 40211cb0 853b0046 e8ff0c12 52400005 3b0086e5  .;.F....R@..;...
 40211cc0 ff000000 f9a8fe3f 4d0212c1 f0c92121  .......?M.....!!
 40211cd0 c7ff0911 49010135 bdc00000 c18cfb0c  ....I..5........
 40211ce0 12020c31 58010001 24168004 41f6ff0c  ...1X...$...A...
 40211cf0 00024c38 024c3632 04005885 b6b30522  ..L8.L62..X...."
 40211d00 450f8600 0022050f 26123201 82d2c000  E...."..&.2.....
 40211d10 00620c39 820c3166 16070c07 724c3986  .b.9..1f....rL9.
 40211d20 04008087 41bc080c 20024c39 46010002  ....A... .L9F...
 40211d30 4c3945e0 ffc82108 1112c110 0df00244  L9E...!........D
 40211d40 00920c39 220c3132 a0ef3022 10224c31  ...9".12..0"."L1
 40211d50 6619db57 e2d246f5 ff220c3c 31d5fd85  f..W..F..".<1...
 40211d60 9901ccc2 0c04424c 39c5dcff 46f1ff00  ......BL9...F...
 40211d70 000061d4 ff520600 0c021b55 524600c5  ..a..R.....URF..
 40211d80 2e00c6eb ff000000 3c0f0000 b42d0000  ........<....-..
 40211d90 1b0c0000 cb100000 3d0212c1 f0c911d9  ........=.......
 40211da0 21c15afb 0901d21c 6729311b ddd0d0f4  !.Z.....g)1.....
 40211db0 d25c6716 9d05221c 683d0d01 11bdc000  .\g...".h=......
 40211dc0 00383120 20f40ca0 27301f02 2c1241ee  .81  ...'0..,.A.
 40211dd0 ff61eeff 07340552 c064526c 12022c13  .a...4.R.dRl..,.
 40211de0 72a12c07 36047a70 726c131c d827b81f  r.,.6.zprl...'..
 40211df0 022c1291 e7ffb1e7 ff07b905 a2c09ca2  .,..............
 40211e00 6c12022c 1322aed4 07bb042a 20226c13  l..,.".....* "l.
 40211e10 0c04425c 68b62d07 8c73854d ff860000  ..B\h.-..s.M....
 40211e20 c535ffc8 11d82108 0112c110 0df00000  .5....!.........
 40211e30 c8be2240 12c1f031 35fb0901 02033122  .."@...15.....1"
 40211e40 03330001 24665002 26820266 40226650  .3..$fP.&..f@"fP
 40211e50 05420333 26841426 401121f5 ff3194fb  .B.3&..&@.!..1..
 40211e60 42a63901 0cc8c000 0006ffff 0c1285f2  B.9.............
 40211e70 ff080112 c1100df0 d0be2240 d8be2240  .........."@.."@
 40211e80 42a0bf21 22fb12c1 f0090132 02310147  B..!"......2.1.G
 40211e90 fb403310 02000032 42316620 0b8541ff  .@3....2B1f ..A.
 40211ea0 0143fb02 00002119 fb66102a 02023100  .C....!..f.*..1.
 40211eb0 31242653 1121f0ff 317efb42 a64801f5  1$&S.!..1~.B.H..
 40211ec0 c7c00000 06ffff47 600c4202 36ccd445  .......G`.B.6..E
 40211ed0 dafe9ca2 4527ff08 0112c110 0df021e7  ....E'........!.
 40211ee0 ff3173fb 42a65e01 ebc7c000 0006ffff  .1s.B.^.........
 40211ef0 0c020c03 0195fcc0 00004528 ff86f5ff  ..........E(....
 40211f00 213bff12 c1f00911 290101a8 bcc00000  !;......).......
 40211f10 28013c73 0c040c15 01a4bcc0 00000811  (.<s............
 40211f20 12c1100d f0000000 31f9fa22 033042a0  ........1..".0B.
 40211f30 df402210 2c044022 20224330 0df00000  .@".,.@" "C0....
 40211f40 20112140 c4090000 f81b2140 c81c2140   .!@......!@..!@
 40211f50 341e2140 801e2140 001f2140 a8142140  4.!@..!@..!@..!@
 40211f60 60242140 d0a8fe3f 31f6ff42 a00062a0  `$!@...?1..B..b.
 40211f70 0872a0f7 82a0fd92 a0fe0c4a b2a0fb21  .r.........J...!
 40211f80 1bff0c25 12c1f009 01524250 52c28802  ...%.....RBPR...
 40211f90 053022c2 3cb00010 a0002090 00108000  .0".<..... .....
 40211fa0 10700010 60002002 4530017e bcc00000  .p..`. .E0.~....
 40211fb0 22a0df81 eefca1c3 bfb1e2ff 0c160c04  "...............
 40211fc0 710bff0c 25524752 42475142 47536247  q...%RGRBGQBGSbG
 40211fd0 5492c788 424932b2 5914a269 12826913  T...BI2.Y..i..i.
 40211fe0 32093002 09312033 10200010 02493132  2.0..1 3. ...I12
 40211ff0 493021d5 ff0c5305 be0021d4 ff0c6385  I0!...S...!...c.
 40212000 bd00215e fc31d2ff 0c040166 bcc00000  ..!^.1.....f....
 40212010 210ffc31 d0ff0c04 0163bcc0 000021f3  !..1.....c....!.
 40212020 fe31cdff 0c04015f bcc00000 210efd31  .1....._....!..1
 40212030 cbff0c04 015cbcc0 000021c9 ff1c4341  .....\....!...CA
 40212040 c9ff0c35 01ebd2c0 000071b0 fa0c1662  ...5......q....b
 40212050 47354541 ff080112 c1100df0 e0be2240  G5EA.........."@
 40212060 ff0f00ff 00800100 f7ffff03 0c2512c1  .............%..
 40212070 d031a6fa 09a10c00 42033709 41dc7462  .1......B.7.A.tb
 40212080 03388c56 5d020c10 06030072 03310c16  .8.V]......r.1..
 40212090 70774116 87040d06 20509352 4339860d  pwA..... P.RC9..
 402120a0 00b22106 922108a2 0b0102a0 1000aa20  ..!..!......... 
 402120b0 a24b0198 892c0882 490e21cc fe295101  .K...,..I.!..)Q.
 402120c0 3bbcc000 0028513c 730c040c 150136bc  ;....(Q<s.....6.
 402120d0 c0000028 81c59d00 08a112c1 300df029  ...(........0..)
 402120e0 91624336 0971cc42 62433886 00006243  .bC6.q.BbC8...bC
 402120f0 3722c110 32a01842 a000c567 02226108  7"..2..B...g."a.
 40212100 dc0221d6 ff31eafa 42a6e001 62c7c000  ..!..1..B...b...
 40212110 0006ffff 22220132 a0182812 29610189  ...."".2..(.)a..
 40212120 c7c00000 1c854881 68716254 0b52540a  ......H.hqbT.RT.
 40212130 4c0902a0 804814c0 2000b204 03b0b064  L....H.. ......d
 40212140 00bb20c0 2000b244 03a2a0bf c0200082  .. . ..D..... ..
 40212150 0403a088 10908820 c0200082 440372a0  ....... . ..D.r.
 40212160 dfc02000 52040370 55106055 20c02000  .. .R..pU.`U . .
 40212170 52440361 bbff51bb ffc02000 32140100  RD.a..Q... .2...
 40212180 3311c020 00721400 70332060 33105033  3.. .r..p3 `3.P3
 40212190 20c02000 32540030 30f5c020 00325401   . .2T.00.. .2T.
 402121a0 0c02054b fe38814c 840c056d 0281c0fc  ...K.8.L...m....
 402121b0 2137c77d 08284289 0105b704 58816182  !7.}.(B.....X.a.
 402121c0 cb7885c0 20000c63 42a0f092 a08f8207  .x.. ..cB.......
 402121d0 06622680 90881092 a0fd8247 06288569  .b&........G.(.i
 402121e0 47020204 814afa40 00104871 30002002  G....J.@..Hq0. .
 402121f0 42047885 3891b807 019cffb0 a054b0b6  B.x.8........T..
 40212200 4100bb10 a0bb11b0 aa20a907 62070082  A........ ..b...
 40212210 083c9066 10808004 f0881180 66206247  .<.f........f bG
 40212220 00496556 a3e78881 88884c07 72480ec6  .IeV......L.rH..
 40212230 a1ff0000 4136fa42 04310c02 40312466  ....A6.B.1..@1$f
 40212240 73045764 010c1220 20740df0 4130fa0c  s.Wd...  t..A0..
 40212250 13420431 0c024045 040b4440 23830df0  .B.1..@E..D@#...
 40212260 e8be2240 21ffff12 c1f00261 000109c7  .."@!......a....
 40212270 c0000021 26fa0202 3132a080 00006430  ...!&...12....d0
 40212280 00200242 31c54c00 02210012 c1108000  . .B1.L..!......
 40212290 00000000 0c0212c1 f00901c5 03000801  ................
 402122a0 12c1100d f0000000 f0be2240 21ffff12  .........."@!...
 402122b0 c1f00261 0001f7c6 c0000022 a0008501  ...a......."....
 402122c0 00022100 12c1100d f0000000 00bf2240  ..!..........."@
 402122d0 10bf2240 18bf2240 12c1f021 fcffc911  .."@.."@...!....
 402122e0 c10bfa09 01320c31 420c3930 312401e9  .....2.1B.901$..
 402122f0 c6c00000 020c3152 0c360040 64424c31  ......1R.6.@dBL1
 40212300 576432ec f5420c39 0c026614 34224c39  Wd2..B.9..f.4"L9
 40212310 00612426 164f21ee ff3165fa 42a74301  .a$&.O!..1e.B.C.
 40212320 ddc6c000 0006ffff 85f0ff8c 72454200  ............rEB.
 40212330 10112045 4400c811 080112c1 100df000  .. ED...........
 40212340 00006624 e2224c39 00712426 671121e1  ..f$."L9.q$&g.!.
 40212350 ff3157fa 42a74a01 cfc6c000 0006ffff  .1W.B.J.........
 40212360 85d0ffc6 f3ff0c12 05d0ffc6 f1ff0000  ................
 40212370 41e7f90c 13420431 0c024047 41402383  A....B.1..@GA@#.
 40212380 0df00000 61e2f942 06310c15 40412426  ....a..B.1..@A$&
 40212390 74098c64 72063c27 97010c05 5020740d  t..dr.<'....P t.
 402123a0 f0000000 3212018c 237cf20d f0421202  ....2...#|...B..
 402123b0 51d7f90c 02425522 0df00000 12c1f009  Q....BU"........
 402123c0 0101d2f9 0c642240 3c22c03d 0176c7c0  .....d"@<".=.v..
 402123d0 00000801 12c1100d f0000000 12c1f009  ................
 402123e0 0101caf9 32003157 63110c64 32c03d01  ....2.1Wc..d2.=.
 402123f0 8cccc000 00cc320c 10460000 0c000020  ......2..F..... 
 40212400 74080112 c1100df0 f0a8fe3f 240e0040  t..........?$..@
 40212410 12c1f009 0101bdf9 c9110200 35cd02bc  ............5...
 40212420 000115f9 c0000021 f8ff2a2c 0202008c  .......!..*,....
 40212430 900112f9 c000000c 02860500 1b303242  .............02B
 40212440 00010ef9 c000003d 0c1c420c 0401efff  .......=..B.....
 40212450 c00000c8 11080112 c1100df0 8ea8fe3f  ...............?
 40212460 12c1f009 11080251 e8ff1640 07261031  .......Q...@.&.1
 40212470 29016620 250100f9 c0000038 0141e2ff  ).f %......8.A..
 40212480 38034a33 2203000b 22224300 01fcf8c0  8.J3"...""C.....
 40212490 000045fd fe860000 85e5fe08 1112c110  ..E.............
 402124a0 0df05a60 42060001 99f90b44 02003142  ..Z`B......D..1B
 402124b0 46005760 e5000124 2670df26 60dc21bb  F.W`...$&p.&`.!.
 402124c0 f9220200 6622d02d 0522c2a4 0138bbc0  ."..f".-."...8..
 402124d0 00004595 fe8c320c 2245b7fe 45e1fe06  ..E...2."E..E...
 402124e0 eeff4d05 4a403204 000c120b 33324400  ..M.J@2.....32D.
 402124f0 0120fdc0 00005612 fa85d3ff 16b2f901  . ....V.........
 40212500 d7ff6200 1e661692 0c177240 33c5d6fe  ..b..f....r@3...
 40212510 c6e1ff00 217ef912 c1f00261 0022023c  ....!~.....a.".<
 40212520 45190116 82022202 0132a01a 80020100  E....."..2......
 40212530 083107a3 045c0246 03001c03 07a30f42  .1...\.F.......B
 40212540 a07f4712 0922a0a0 080112c1 100df022  ..G.."........."
 40212550 a0f086fc ff000000 48361040 04a9fe3f  ........H6.@...?
 40212560 31feff21 feff0c04 12c1f009 01010dbb  1..!............
 40212570 c0000021 faff0c04 3132fa0c 15380301  ...!....12...8..
 40212580 0abbc000 00080112 c1100df0 0df00000  ................
 40212590 0df00000 30b1fe3f 21ffff32 02055822  ....0..?!..2..X"
 402125a0 8c230c52 0df00c02 8cd51b22 68252020  .#.R......."h%  
 402125b0 74671504 5d0686fb ff0df000 21f6ff32  tg..].......!..2
 402125c0 020548a2 cc330c02 8602000c 520df048  ..H..3......R..H
 402125d0 241b2220 20745654 ff0df000 18a9fe3f  $."  tVT.......?
 402125e0 21ffff12 c1f00901 01f1bac0 00000801  !...............
 402125f0 12c1100d f0000000 00a9fe3f 20bf2240  ...........? ."@
 40212600 30bf2240 21f6ff12 c1e0c261 01d26102  0."@!......a..a.
 40212610 e2610309 0101e5ba c00000c5 80fe0c1e  .a..............
 40212620 c1f6ff8c 42e24c2c 060200e0 2e2032a0  ....B.L,..... 2.
 40212630 01459cf8 d1d8ff02 1d01d21d 0000dd80  .E..............
 40212640 d0d07485 f7ffed02 0c03b62d 72204074  ..t........-r @t
 40212650 b6246c32 4c2d8600 00024c2d c596f8e2  .$l2L-....L-....
 40212660 c202d22c 0c21f6f9 e0e2211b dde24206  ...,.!....!...B.
 40212670 e2120228 223d0e01 e2bac000 00273d13  ...("=.......'=.
 40212680 d1f0f90c 0229cc05 7afeac42 0c13324c  .....)..z..B..2L
 40212690 34860800 d9cc3d0e 21d1ff0c 040c1501  4.....=.!.......
 402126a0 c2bac000 00c811d8 21e83108 0112c120  ........!.1.... 
 402126b0 0df00c02 0527fae2 1d0206f6 ff000000  .....'..........
 402126c0 22a3e831 dff9420c 2d321302 1b444040  "..1..B.-2...D@@
 402126d0 74494101 afbcc000 0008410c 0527a002  tIA.......A..'..
 402126e0 46ddff52 4c2df62d 0a3d0d21 c4ff01e9  F..RL-.-.=.!....
 402126f0 c5c00000 e03074b6 230286d7 ff21c0ff  .....0t.#....!..
 40212700 01e5c5c0 000086d4 ff000000 12c1f009  ................
 40212710 0105efff 080112c1 100df000 12c1f029  ...............)
 40212720 01091121 aeff0c00 09620242 15019fba  ...!.....b.B....
 40212730 c0000021 aaff41c2 f938010c 15325402  ...!..A..8...2T.
 40212740 0c040199 bac00000 081112c1 100df000  ................
 40212750 38a9fe3f 12c1f009 0101a7ff 22003566  8..?........".5f
 40212760 12040c03 32403521 faff0190 bac00000  ....2@5!........
 40212770 080112c1 100df000 0c0431b1 f9219eff  ..........1..!..
 40212780 0c1512c1 f0090152 42353213 0622c238  .......RB52..".8
 40212790 0186bac0 00000801 12c1100d f0000000  ................
 402127a0 12c1f009 010194ff 22003532 004c8c12  ........".52.L..
 402127b0 66131821 e7ff31a2 f90c150c 0442404c  f..!..1......B@L
 402127c0 52403532 13060178 bac00000 080112c1  R@52...x........
 402127d0 100df000 c890fe3f 12c1f0c9 11cd0221  .......?.......!
 402127e0 fdff0901 08021690 04320c01 020c0430  .........2.....0
 402127f0 36419c03 00474126 14490050 64e68543  6A...GA&.I.Pd..C
 40212800 620c0767 e63d720c 0c32a080 707034cc  b..g.=r..2..pp4.
 40212810 17860300 321c1830 33a0f033 1132c332  ....2..03..3.2.2
 40212820 3030f442 0c0042c4 a0424c00 08022d0c  00.B..B..BL...-.
 40212830 c000002d 0c0163bf c00000c8 11080112  ...-..c.........
 40212840 c1100df0 0cc346f6 ff000000 b0aafe3f  ......F........?
 40212850 40bf2240 d88bfe3f e8391040 2c381040  @."@...?.9.@,8.@
 40212860 08411040 12c1f0c9 110901cd 02080221  .A.@...........!
 40212870 f7fff640 1d3d023a 30420300 0020740b  ...@.=.:0B... t.
 40212880 04024300 01f5ffc0 0000c811 080112c1  ..C.............
 40212890 100df026 407c6650 02062700 2670ea42  ...&@|fP..'.&p.B
 402128a0 c0f81674 0b0c9557 106062c0 f616160c  ...t...W.`b.....
 402128b0 72c0f516 f70d26a0 1121e5ff 31e6ff42  r.....&..!..1..B
 402128c0 a1a90174 c5c00000 06ffff01 ebf7c000  ...t............
 402128d0 000c0241 deffa148 ff080c82 0a4e320a  ...A...H.....N2.
 402128e0 4d920a00 4a00b200 00309283 924a000b  M...J....0...J..
 402128f0 bbb24000 cca852a0 7361fcbb c0200052  ..@...R.sa... .R
 40212900 66c501de f7c00000 86dfff28 1c85ecff  f..........(....
 40212910 86ddff01 d9f7c000 0091ccff 880c9a88  ................
 40212920 7208000b 77724800 01d5f7c0 00000c12  r...wrH.........
 40212930 01cbffc0 000006d4 ff01cff7 c0000001  ................
 40212940 c3ffb22c 0000bb80 a20b00a2 caffa24b  ...,...........K
 40212950 0001caf7 c0000005 2d0006cb ff3d023a  ........-....=.:
 40212960 30220300 0b222243 0001bdff c00000c6  0"...""C........
 40212970 c5ff01c1 f7c00000 61b5ff52 2c006055  ........a..R,.`U
 40212980 80420500 42c4ff42 450001bc f7c00000  .B..B..BE.......
 40212990 4559ffc6 bcff01b8 f7c00000 91acff88  EY..............
 402129a0 0c9a8872 08000b77 72480001 b4f7c000  ...r...wrH......
 402129b0 0046b5ff 48bf2240 0c240cc9 12c1f009  .F..H."@.$......
 402129c0 01784258 82320704 08050763 10003641  .xBX.2.....c..6A
 402129d0 00005440 3320a033 11300020 09058207  ..T@3 .3.0. ....
 402129e0 0062a0f0 90481060 68106684 49008054  .b...H.`h.f.I..T
 402129f0 0c830006 41300020 a0001100 08200905  ....A0. ..... ..
 40212a00 26d60542 a0c04796 13006054 3197fd00  &..B..G...`T1...
 40212a10 06413000 10a00011 00062009 05004641  .A0....... ...FA
 40212a20 08012774 0c581242 170b5815 40444142  ..'t.X.B..X.@DAB
 40212a30 450312c1 100df097 88e20046 4166e63b  E..........FAf.;
 40212a40 79110090 5481fef8 a176d788 48a0a420  y...T....v..H.. 
 40212a50 a0aa11a0 99209905 62285729 211b6662  ..... ..b(W)!.fb
 40212a60 6857b666 0e21d3ff 010bc5c0 00002821  hW.f.!........(!
 40212a70 58827811 08050046 41c6e8ff 66d6a077  X.x....FA...f..w
 40212a80 e09d31ce e8000054 303420a0 33113000  ..1....T04 .3.0.
 40212a90 200905c6 f7ff0000 50bf2240 60bf2240   .......P."@`."@
 40212aa0 e0471040 f8431040 68411040 0c431040  .G.@.C.@hA.@.C.@
 40212ab0 e8421040 12c1f009 01c91158 82cd0232  .B.@.......X...2
 40212ac0 05060205 04303424 0000349c 30263011  .....04$..4.0&0.
 40212ad0 a630090c 12a6600b 0c028601 000c3246  .0....`.......2F
 40212ae0 00000c22 37121121 ecff315a ff42a208  ..."7..!..1Z.B..
 40212af0 01e9c4c0 000006ff ffc02c20 85ebffc0  .........., ....
 40212b00 2c20854b 0042c2ff 16b40a01 5bf7c000  , .K.B......[...
 40212b10 00286c38 8c01e2ff c0000001 58f7c000  .(l8........X...
 40212b20 002d0c01 e0ffc000 002d0c01 dfffc000  .-.......-......
 40212b30 000c0541 c3f85662 04014ff7 c0000061  ...A..Vb..O....a
 40212b40 c0f8788c 0c08897c 82070068 46808234  ..x....|...hF..4
 40212b50 b088118a 868878c9 08720700 52cc1c70  ......x..r..R..p
 40212b60 7234b077 117a6659 760144f7 c0000028  r4.w.zfYv.D....(
 40212b70 8c220206 20242401 cdffc000 00061300  .".. $$.........
 40212b80 66122768 8c597c82 06007844 80810470  f.'h.Y|...xD...p
 40212b90 88b08228 47c90862 060032cc 1c606104  ...(G..b..2..`a.
 40212ba0 7066b032 66470c02 46080066 22f721bb  pf.2fG..F..f".!.
 40212bb0 ff01b8c4 c0000001 30f7c000 002d0c01  ........0....-..
 40212bc0 bcffc000 00012df7 c000000c 12c81108  ......-.........
 40212bd0 0112c110 0df00000 719af80c 18784762  ........q....xGb
 40212be0 a0b86a67 52068000 03405040 b1076403  ..jgR....@P@..d.
 40212bf0 2d080df0 00134070 93a000a8 a1a0a520  -.....@p....... 
 40212c00 a2468022 694f0c02 0df00000 22a00012  .F."iO......"...
 40212c10 c1f00261 00857fff 02210012 c1100df0  ...a.....!......
 40212c20 3417ff3f f83b1040 12c1f0c9 11d921e9  4..?.;.@......!.
 40212c30 310901e2 a0f54601 00013ac7 c0000001  1.....F...:.....
 40212c40 f9ffc000 0020c220 163209d2 22046222  ..... . .2..".b"
 40212c50 01cb5d59 16020d08 8c10e790 db2d0c3d  ..]Y.........-.=
 40212c60 0d050900 5672fd02 0d039148 c547e002  ....Vr.....H.G..
 40212c70 67600400 8741ac08 92096426 191b57e0  g`...A....d&..W.
 40212c80 0400a741 acfab1e6 ffb20b00 661b322d  ...A........f.2-
 40212c90 0c0124c7 c0000006 e9ffc03c 2052a000  ..$........< R..
 40212ca0 422c0421 7ac44204 00284280 44014048  B,.!z.B..(B.D.@H
 40212cb0 31c59e06 c6e1ff2d 0c011ac7 c0000006  1......-........
 40212cc0 dfffc03c 2052a000 422c0421 70c44204  ...< R..B,.!p.B.
 40212cd0 00285280 44014048 3105f901 c6d7ffc8  .(R.D.@H1.......
 40212ce0 11d821e8 31080112 c1100df0 14361040  ..!.1........6.@
 40212cf0 68471040 52a0f012 c1d0c261 04226109  hG.@R......a."a.
 40212d00 026103e9 61f971d9 510ccfdd 03e81201  .a..a.q.Q.......
 40212d10 4cf8e81e 32000642 0e008033 01f0f410  L...2..B...3....
 40212d20 30383150 44104981 a6130d05 2af80144  081PD.I.....*..D
 40212d30 f82b3230 32213240 06324d0b 320d0347  .+202!2@.2M.2..G
 40212d40 e3053046 0416f413 57e30930 6741cc36  ..0F....W..0gA.6
 40212d50 0c0c8600 00c2a002 668f2d85 9fff454d  ........f.-...EM
 40212d60 ff16b207 8560ff16 520752a0 013134f8  .....`..R.R..14.
 40212d70 2122fe0c 14424235 32130622 c2380c04  !"...BB52..".8..
 40212d80 010ab9c0 00008615 00563f05 488166e4  .........V?.H.f.
 40212d90 4e2d0e01 d6ffc000 00520d01 29115056  N-.......R..).PV
 40212da0 41cc9562 1d016060 b4690106 0400721d  A..b..``.i....r.
 40212db0 03821d02 00771180 77207078 f47901ab  .....w..w px.y..
 40212dc0 2e8561ff 9c822891 58114801 32ce1850  ..a...(.X.H.2..P
 40212dd0 44c042c4 fc4040f4 4a4e42c4 18c57cfe  D.B..@@.JNB...|.
 40212de0 f62c452d 0cab3e39 21c59000 68913d0d  .,E-..>9!...h.=.
 40212df0 296601bf ffc00000 720d002d 0c3b7772  )f......r..-.;wr
 40212e00 4d000592 fd16b206 568f062d 0e01b7ff  M.......V..-....
 40212e10 c0000082 0d018086 41ec0802 1d010000  ........A.......
 40212e20 b4c60900 2d0c8591 fd0c02c8 41d851e8  ....-.......A.Q.
 40212e30 61f87108 3112c130 0df00000 00021d03  a.q.1..0........
 40212e40 321d0200 00113000 200008f4 32210826  2.....0. ...2!.&
 40212e50 b3043c05 57931c20 30c022ce 1832c3fc  ..<.W.. 0."..2..
 40212e60 3030f43a 3e32c318 8553ff8c 522d0c38  00.:>2...S..R-.8
 40212e70 218554ff 420e0152 0e046764 ab0765a3  !.T.B..R..gd..e.
 40212e80 2d0cc58c fd06e8ff 57e30430 67418c36  -.......W..0gA.6
 40212e90 0c1c86b0 ff0c2c46 afff0000 05080000  ......,F........
 40212ea0 64282140 c0aafe3f 0c2c2140 0c272140  d(!@...?.,!@.'!@
 40212eb0 10270000 c0270900 0c040c16 12c1f031  .'...'.........1
 40212ec0 e0f70901 0c003843 b020111b 002a2349  ......8C. ...*#I
 40212ed0 62424227 00007452 c2185972 6680e80c  bBB'..tR..Yrf...
 40212ee0 000c75b0 20111b00 2a236242 27524224  ..u. ...*#bB'RB$
 40212ef0 00007466 20ec4903 0c000060 903050a0  ..tf .I....`.0P.
 40212f00 4915f066 113a503b 266026b3 1b000000  I..f.:P;&`&.....
 40212f10 74202221 2b222245 146640dd 0c0062a1  t "!+""E.f@...b.
 40212f20 183020b0 42624602 c0016052 80526247  .0 .BbF...`R.RbG
 40212f30 00007466 20ea4263 4c42634a 92a13082  ..tf .BcLBcJ..0.
 40212f40 a1288083 809a9392 634d8263 4b61d3ff  .(......cM.cKa..
 40212f50 7186c4c0 20006267 fe052f01 21d1ff2c  q... .bg../.!..,
 40212f60 0341d0ff 2c250122 cfc00000 21f9fd31  .A..,%."....!..1
 40212f70 ceff0c04 018cb8c0 00002198 fd31cbff  ..........!..1..
 40212f80 0c04b1af f7518ad6 01caff52 056aa1c9  .....Q.....R.j..
 40212f90 ff0005c1 50a093a9 2b0182b8 c0000045  ....P...+......E
 40212fa0 66ff0801 12c1100d f0000000 78bf2240  f...........x."@
 40212fb0 2b0a0000 00f00000 0ff80000 12c1f009  +...............
 40212fc0 01088258 6202000d a2120b00 00348cd0  ...Xb........4..
 40212fd0 26101032 c0fe1683 0c42c0fd 1684120c  &..2.....B......
 40212fe0 40460000 0c800aaa a2520bb1 5bc48822  @F.......R..[.."
 40212ff0 c0200092 18010099 11c02000 321800a1  . ........ .2...
 40213000 18fc3099 20b09910 909c410a 999090b4  ..0. .....A.....
 40213010 409911c0 20007218 01007711 c02000b2  @... .r...w.. ..
 40213020 1800b077 20a07710 907720c0 20007258  ...w .w..w . .rX
 40213030 007070f5 c0200068 824c0368 06725801  .pp.. .h.L.h.rX.
 40213040 877606ec 350c1206 060042a0 bf0822c0  .v..5.....B...".
 40213050 2000b200 0340bb10 30bb20c0 2000b240   ....@..0. . ..@
 40213060 030c0208 0112c110 0df02c06 72a0df48  ..........,.r..H
 40213070 12c02000 32040370 33106033 20c02000  .. .2..p3.`3 . .
 40213080 32440308 8202000d 00003426 30189c50  2D........4&0..P
 40213090 21c7ff31 f0fd41c6 ff017ec3 c0000006  !..1..A...~.....
 402130a0 ffff1c00 86cfff41 d4c43212 0b28124a  .......A..2..(.J
 402130b0 33281241 c0ff0212 003030b4 40001030  3(.A.....00.@..0
 402130c0 00203202 02025200 52057462 02010000  . 2...R.R.tb....
 402130d0 b44b8080 33116033 20872508 0005c000  .K..3.`3 .%.....
 402130e0 02214600 000c0051 b4ff0040 64c04411  .!F....Q...@d.D.
 402130f0 50331040 33203242 0142a0cf 30387440  P3.@3 2B.B..08t@
 40213100 33103242 0206d6ff 0cc006b6 ff000000  3.2B............
 40213110 e0abfe3f 2eba0000 175d0000 c00f0000  ...?.....]......
 40213120 aaaa0000 c7710000 55550000 e3380000  .....q..UU...8..
 40213130 aa2a0000 711c0000 55150000 f6120000  .*..q...U.......
 40213140 899d0000 c44e0000 83340000 62270000  .....N...4..b'..
 40213150 411a0000 b1130000 81110000 c88d0000  A...............
 40213160 e4460000 422f0000 72230000 a1170000  .F..B/..r#......
 40213170 b9110000 2d0e0000 91e7ff41 5cbcb15a  ....-......A\..Z
 40213180 bc71e5ff 0c750c36 0c020c1a 31e1ff0c  .q...u.6....1...
 40213190 28824336 82431482 43158243 16a2432e  (.C6.C..C..C..C.
 402131a0 a2430ca2 430da243 0e224304 22430522  .C..C..C."C."C."
 402131b0 43062243 2662433e 62431c62 431d6243  C."C&bC>bC.bC.bC
 402131c0 1e52433c 52433d52 43465243 6679e379  .RC<RC=RCFRCfy.y
 402131d0 63b9a3b9 23490399 c3994349 8391cfff  c...#I....CI....
 402131e0 0cb40cab 0c677243 34724335 72434e72  .....grC4rC5rCNr
 402131f0 436e7243 9e7243a6 7243ae72 43b67243  CnrC.rC.rC.rC.rC
 40213200 be7243de 7243e672 43ee7243 f67243fe  .rC.rC.rC.rC.rC.
 40213210 b24354b2 4355b243 74b24375 b2438cb2  .CT.CU.Ct.Cu.C..
 40213220 438db243 94b24395 b243ccb2 43cdb243  C..C..C..C..C..C
 40213230 d4b243d5 42435c42 435d4243 7c42437d  ..C.BC\BC]BC|BC}
 40213240 42438442 43854243 c44243c5 92632e92  BC.BC.BC.BC..c..
 40213250 633c51b4 ff61b2ff 0c420c5a 0c988243  c<Q..a...B.Z...C
 40213260 4c82434d 82436c82 436d8243 44824345  L.CM.Cl.Cm.CD.CE
 40213270 82436482 43658243 9c82439d 8243a482  .Cd.Ce.C..C..C..
 40213280 43a58243 ac8243ad 8243b482 43b58243  C..C..C..C..C..C
 40213290 bc8243bd 8243dc82 43dd8243 e48243e5  ..C..C..C..C..C.
 402132a0 8243ec82 43ed8243 f48243f5 8243fc82  .C..C..C..C..C..
 402132b0 43fda243 2ca2432d a24356a2 4376a243  C..C,.C-.CV.Cv.C
 402132c0 8ea24396 a243cea2 43d62243 24224325  ..C..C..C."C$"C%
 402132d0 22435e22 437e2243 862243c6 62631652  "C^"C~"C."C.bc.R
 402132e0 631e9195 ff926310 5198ff61 96ff6263  c.....c.Q..a..bc
 402132f0 22526324 919aff92 6330519c ff619aff  "Rc$....c0Q..a..
 40213300 62633652 63382189 ff4187ff 42631422  bc6Rc8!..A..Bc."
 40213310 631c418e ff218eff a187ffa2 631a2263  c.A..!......c."c
 40213320 28426326 2194ffb1 82ff4191 ffa18aff  (Bc&!.....A.....
 40213330 a2632c42 633ab263 1222633e b186ff71  .c,Bc:.c."c>...q
 40213340 80ff7263 20b2632a 7187ff72 6334817b  ..rc .c*q..rc4.{
 40213350 ff826318 8183ff82 63320df0 12c1f009  ..c.....c2......
 40213360 0102a15f 07c20505 e1ffc60b 004168ff  ..._.........Ah.
 40213370 0c580c75 0c320b93 0c170c06 90678360  .X.u.2.......g.`
 40213380 25936078 9372445c 72447c72 44542244  %.`x.rD\rD|rDT"D
 40213390 7422444c 22446c22 44442244 640c0208  t"DL"Dl"DD"Dd...
 402133a0 0112c110 0df00000 8cd30c06 62420acb  ............bB..
 402133b0 221b6660 60746793 f20df000 e4451040  ".f``tg......E.@
 402133c0 0482fe3f 5081fe3f 74451040 a481fe3f  ...?P..?tE.@...?
 402133d0 10461040 0c380c07 12c1f091 f8ff3242  .F.@.8........2B
 402133e0 150901c9 1101f6ff cd022222 1762c0dc  .........."".b..
 402133f0 16420726 1231626c 1a724c04 824c0592  .B.&.1bl.rL..L..
 40213400 6c1b026c 182d0c02 6c1901f1 ffc00000  l..l.-..l.......
 40213410 02a07f02 4c00024c 01024c02 024c03c8  ....L..L..L..L..
 40213420 11080112 c1100df0 724c04b1 e8ff0c79  ........rL.....y
 40213430 0ca651e4 ffa1e4ff a26c1b22 c5a04069  ..Q......l."..@i
 40213440 93624c05 40258322 6c1ae6a3 2c0ca08c  .bL.@%."l...,...
 40213450 34b68001 0c700000 902000a0 026c1802  4....p... ...l..
 40213460 cba0400b 8306e7ff 626c1a72 4c04824c  ..@.....bl.rL..L
 40213470 05926c1b 026c1886 e2ff1c05 3725040c  ..l..l......7%..
 40213480 5086f2ff 1c563726 040d0806 f0ff0c20  P....V7&....... 
 40213490 1ce88723 b90d0706 edff0000 e0acfe3f  ...#...........?
 402134a0 1082fe3f a082fe3f f080fe3f e081fe3f  ...?...?...?...?
 402134b0 41fbff0c 0512c1f0 09015244 046b048b  A.........RD.k..
 402134c0 44524000 1b004790 f721f5ff 0cc385ed  DR@...G..!......
 402134d0 ff21f4ff 0c9305ed ff21baff 0cb385ec  .!.......!......
 402134e0 ff21f1ff 0c8305ec ff21f0ff 0c4385eb  .!.......!...C..
 402134f0 ff080112 c1100df0 f0acfe3f 21ffff0d  ...........?!...
 40213500 f0000000 0df00000 9ca23202 1442a0fe  ..........2..B..
 40213510 4033100c 14403320 42a0fb40 33100c44  @3...@3 B..@3..D
 40213520 40332032 42140df0 9c023202 1442a0fe  @3 2B.....2..B..
 40213530 40331042 a0fb4033 10324214 0df00000  @3.B..@3.2B.....
 40213540 b0bf2240 a0bf2240 0c1981eb ff12c1e0  .."@.."@........
 40213550 d9413901 f9610921 e951c931 72c8f0cd  .A9..a.!.Q.1r...
 40213560 04e2c8f6 eae2000c 404d0502 07044911  ........@M....I.
 40213570 00509107 652bf20e 00f0f091 076f7f0c  .P..e+.......o..
 40213580 64d2a078 c0ddc1da d8f2cd1a 2d0f0124  d..x........-..$
 40213590 c8c00000 56720671 c1ff0c19 02070406  ....Vr.q........
 402135a0 030022c8 1af2a078 c0ffc18a df2aff00  .."....x.....*..
 402135b0 1c400029 a1003220 32470402 0e0032a0  .@.)..2 2G....2.
 402135c0 78200020 2d0d024e 00015ec2 c000002d  x . -..N..^....-
 402135d0 0fc24d76 48113801 425d100c 6401f1c2  ..MvH.8.B]..d...
 402135e0 c000003d 0c21d6ff 012bc2c0 00000821  ...=.!...+.....!
 402135f0 c831e851 2d0df861 d84112c1 200df021  .1.Q-..a.A.. ..!
 40213600 d1ff0124 c2c00000 0c0d06f8 ff000000  ...$............
 40213610 21a3ff22 02040df0 e6acfe3f c0bf2240  !..".......?.."@
 40213620 d0bf2240 12c1f009 11c92101 fbffcd04  .."@......!.....
 40213630 0a424901 42040000 0c404040 91076446  .BI.B....@@@..dF
 40213640 ab2042a0 78c044d1 4a2222c2 1a0c6401  . B.x.D.J""...d.
 40213650 f4c7c000 00ece221 f1ff9801 7cf8618f  .......!....|.a.
 40213660 ff001c40 0c170077 a1520604 80773082  ...@...w.R...w0.
 40213670 09007055 10524604 70881082 49000105  ..pU.RF.p...I...
 40213680 c2c00000 06020021 e6ff0102 c2c00000  .......!........
 40213690 c8210811 12c1100d f0000000 6180ff0c  .!..........a...
 402136a0 03720604 6b464a42 52040032 44007055  .r..kFJBR..2D.pU
 402136b0 30524604 0df00000 12c1f009 1101d6ff  0RF.............
 402136c0 0a022200 00290101 ebf3c000 0052a078  .."..).......R.x
 402136d0 48010811 40306012 c1104033 100b4230  H...@0`...@3..B0
 402136e0 f3403030 602184ff 32c31f50 33823a22  .@00`!..2..P3.:"
 402136f0 0c034023 930df000 12c1e0d9 21f94109  ..@#........!.A.
 40213700 01c911c1 c5ffe931 cac2c20c 00ed03c0  .......1........
 40213710 d060c0dd 10d0fd40 d0d060d2 cd1f96fd  .`.....@..`.....
 40213720 023d0e0c 64f174ff 02a07800 0d820aff  .=..d.t...x.....
 40213730 22cf1a01 bbc7c000 00ac527c f0001d40  ".........R|...@
 40213740 0c1f00ff a100ff30 f0cc10c0 c07446ef  .......0.....tF.
 40213750 ff0c02c8 11d821e8 31f84108 0112c120  ......!.1.A.... 
 40213760 0df02d0f c6faff00 414dff00 02403204  ..-.....AM...@2.
 40213770 0452c410 30309107 630932a0 782023c1  .R..00..c.2.x #.
 40213780 2a250df0 0c020df0 2145ff12 c1f00901  *%......!E......
 40213790 22020401 b8f3c000 00080166 120f413f  "..........f..A?
 402137a0 ff0c1342 04060c02 40238346 00007cf2  ...B....@#.F..|.
 402137b0 12c1100d f0000000 00a08000 f7bfdf7f  ................
 402137c0 91feff81 69e73100 c6c02000 7223a290  ....i.1... .r#..
 402137d0 7720c020 007263a2 61f9ffc0 20005223  w . .rc.a... .R#
 402137e0 a2605510 c0200052 63a20c84 c0200022  .`U.. .Rc.... ."
 402137f0 23a44022 20c02000 2263a40c 3bc02000  #.@" . ."c..;. .
 40213800 a223a5b0 aa20c020 00a263a5 92af0fc0  .#... . ..c.....
 40213810 20007828 907710c0 20007928 62af000c   .x(.w.. .y(b...
 40213820 45c02000 42239b60 44105044 20c02000  E. .B#.`D.PD . .
 40213830 42639b21 2fe2b2a4 00c02000 a2239b20  Bc.!/..... ..#. 
 40213840 aa10b0aa 20c02000 a2639b91 cbdd82a0  .... . ..c......
 40213850 f0c02000 72238590 77108077 20c02000  .. .r#..w..w . .
 40213860 72638561 e5b8c020 00522385 605520c0  rc.a... .R#.`U .
 40213870 20005263 8541fbd2 c0200022 23854022   .Rc.A... ."#.@"
 40213880 20c02000 2263850d f0000000 000000c4   . ."c..........
 40213890 41ffff31 35e7c020 00222396 402220c0  A..15.. ."#.@" .
 402138a0 20002263 960df000 ffffff3b 41ffff31   ."c.......;A..1
 402138b0 2ee7c020 00222396 402210c0 20002263  ... ."#.@".. ."c
 402138c0 960df000 0c83fe3f 31ffff29 130df000  .......?1..)....
 402138d0 12c1f009 0145fdff 312ffb0c 00026368  .....E..1/....ch
 402138e0 2122e7c0 20000262 97c02000 02629805  !".. ..b.. ..b..
 402138f0 faff0801 12c1100d f0000000 511be771  ............Q..q
 40213900 25fb61f0 ff12c1f0 09016816 0227686a  %.a.......h..'hj
 40213910 00c02000 22259220 20c02736 f132a3e8  .. ."%.  .'6.2..
 40213920 02676801 37b6c000 00080112 c1100df0  .gh.7...........
 40213930 98250000 e0b2fe3f d0d8fe3f 401f0000  .%.....?...?@...
 40213940 50f8fe3f c8d8fe3f b0fffe3f ffffffdf  P..?...?...?....
 40213950 404f0040 b8581040 4c8351f5 ff62a644  @O.@.X.@L.Q..b.D
 40213960 0c1741f4 ff12c1d0 c951d961 e971f981  ..A......Q.a.q..
 40213970 0941f1d4 ff2d0488 0f42c450 cb080911  .A...-...B.P....
 40213980 8b888901 01f3ffc0 0000c18a fd080f0c  ................
 40213990 65d82052 5000165d 06e1b1f9 c0200092  e. RP..]..... ..
 402139a0 1d009090 b492c9fc 9090b4c0 2000821d  ............ ...
 402139b0 00c08810 908820c0 2000825d 00c02000  ...... . ..].. .
 402139c0 721d0070 70b44077 11c02000 621d0100  r..pp.@w.. .b...
 402139d0 6611c020 00821d00 806620e0 66107066  f.. .....f .f.pf
 402139e0 20c02000 625d0060 60f5c020 00625d01   . .b].``.. .b].
 402139f0 2d0d01d8 ffc00000 d82d56ed f9080f3c  -........-V....<
 40213a00 c351ceff 62a6400c 0721cbff a2c02cb2  .Q..b.@..!....,.
 40213a10 c028b901 a91142c2 4001cdff c0000008  .(....B.@.......
 40213a20 0f0c0ee9 8092c024 e2500199 70d1c4ff  .......$.P..p...
 40213a30 0c49c020 0082100c c0881090 8820c020  .I. ......... . 
 40213a40 0082500c 82a080c0 20007200 1b707064  ..P..... .r..ppd
 40213a50 807720c0 20007240 1b62a0bf c0200052  .w . .r@.b... .R
 40213a60 001b6055 10c02000 52401b42 a0dfc020  ..`U.. .R@.B... 
 40213a70 0032001b 403310c0 200042cd 6052a700  .2..@3.. .B.`R..
 40213a80 62a1000c 1732401b 22c0305c 43290102  b....2@.".0\C)..
 40213a90 c0342d0d 091101ae ffc00000 f80f0c78  .4-............x
 40213aa0 824f04b1 2ecbc020 0071a2ff 726ba061  .O..... .q..rk.a
 40213ab0 a5ffc020 00626b9f c02000d2 6ba251a2  ... .bk.. ..k.Q.
 40213ac0 ffc02000 526ba142 af00c020 00322b80  .. .Rk.B... .2+.
 40213ad0 403310c0 2000326b 80282fc0 2000226b  @3.. .2k.(/. ."k
 40213ae0 8208cfc0 2000026b 83e24f05 c02000e2  .... ..k..O.. ..
 40213af0 6b84c196 ffc02000 a22b80c0 aa10c020  k..... ..+..... 
 40213b00 00a26b80 c851d861 e871f881 084112c1  ..k..Q.a.q...A..
 40213b10 300df000 10325076 bbbbbbbb 41feff21  0....2Pv....A..!
 40213b20 feff3120 f1c02000 426380c0 20002263  ..1 .. .Bc.. ."c
 40213b30 81c02000 2263820d f0000000 ffefffff  .. ."c..........
 40213b40 12c1f009 0172a707 2105cbc0 20006222  .....r..!... .b"
 40213b50 9b706620 c0200062 629b6cf5 c0200042  .pf . .bb.l.. .B
 40213b60 229b5044 10c02000 42629b31 f4ffc020  ".PD.. .Bb.1... 
 40213b70 0002229b 300010c0 20000c03 02629b0c  ..".0... ....b..
 40213b80 040c02c5 13000c02 0c130c04 05130008  ................
 40213b90 0112c110 0df00000 00039f00 12c1f009  ................
 40213ba0 010c0321 09c5c020 00326286 7cf0c020  ...!... .2b.|.. 
 40213bb0 00026289 85c0ff85 3c00c5d9 ffc5f5ff  ..b.....<.......
 40213bc0 c5f7ff91 f5ff51e5 cac02000 a1ffc492  ......Q... .....
 40213bd0 6a860c28 c0200072 25de8077 20c02000  j..(. .r%..w . .
 40213be0 7265de61 fdb7c020 00422581 604410c0  re.a... .B%.`D..
 40213bf0 20004265 81080112 c1100df0 000b0700   .Be............
 40213c00 070c0700 41e8f08c 9231fcff c0200032  ....A....1... .2
 40213c10 64830df0 21fbffc0 20002264 830df000  d...!... ."d....
 40213c20 7cf98153 c7720303 52030162 03008055  |..S.r..R..b...U
 40213c30 11605520 62030280 77010066 11706620  .`U b...w..f.pf 
 40213c40 71aed660 552061e0 c4bc32c0 20005266  q..`U a...2. .Rf
 40213c50 94b20305 a2030480 bb11b0aa 20c02000  ............ . .
 40213c60 a26695c0 20009266 98c02000 726699c0  .f.. ..f.. .rf..
 40213c70 20004226 99804420 c0200042 66990df0   .B&..D . .Bf...
 40213c80 c0200052 66922203 05b20304 80221120  . .Rf."......". 
 40213c90 bb20c020 00b26693 c0200092 6696c020  . . ..f.. ..f.. 
 40213ca0 00726697 c02000a2 269780aa 20c02000  .rf.. ..&... . .
 40213cb0 a266970d f0000000 fffffeff c084fe3f  .f.............?
 40213cc0 12c1f009 01dc8201 fcff21bf c4fc13c0  ..........!.....
 40213cd0 20003222 8f003310 c0200032 628f4606   .2"..3.. .2b.F.
 40213ce0 0066120a 2d0331f5 ff850200 c6020066  .f..-.1........f
 40213cf0 22088c54 2d033d04 85010008 0112c110  "..T-.=.........
 40213d00 0df0c020 00422291 004410c0 20004262  ... .B"..D.. .Bb
 40213d10 9186f9ff 7cfa8116 c77177d6 51e7ff61  ....|....qw.Q..a
 40213d20 aac41612 06c02000 b2269150 bb10c020  ...... ..&.P... 
 40213d30 00b26691 b2030392 03014203 00809911  ..f.......B.....
 40213d40 90442092 030280bb 01009911 b0992090  .D ........... .
 40213d50 4420c020 0042668c 220305b2 03048022  D . .Bf."......"
 40213d60 1120bb20 c02000b2 668dc020 00a26690  . . . ..f.. ..f.
 40213d70 c0200072 6691c020 00922691 809920c0  . .rf.. ..&... .
 40213d80 20009266 910df0c0 20004226 8f504410   ..f.... .B&.PD.
 40213d90 c0200042 668f4203 03220301 b2030080  . .Bf.B.."......
 40213da0 221120bb 20220302 80440100 22114022  ". . "...D..".@"
 40213db0 2020bb20 c02000b2 668a9203 05420304    . . ..f....B..
 40213dc0 80991190 4420c020 0042668b c02000a2  ....D . .Bf.. ..
 40213dd0 668ec020 0072668f c0200022 268f8022  f.. .rf.. ."&.."
 40213de0 20c02000 22668f0d f0000000 41b3ff51   . ."f......A..Q
 40213df0 76c48cf2 c0200032 25914033 10c02000  v.... .2%.@3.. .
 40213e00 3265910d f0c02000 22258f40 2210c020  2e.... ."%.@".. 
 40213e10 0022658f 0df00000 0012f23f 0006f23f  ."e........?...?
 40213e20 0814f23f 12c1f009 01b20505 a2050480  ...?............
 40213e30 bb11baaa 6652060c 190c1246 00000c09  ....fR.....F....
 40213e40 792181f5 ff720501 b2050080 77117abb  y!...r......w.z.
 40213e50 72050352 05028077 01005511 7a555abb  r..R...w..U.zUZ.
 40213e60 6056a0d0 55118a85 2612090c 60a66606  `V..U...&...`.f.
 40213e70 0c204600 000c70c0 20002074 01000024  . F...p. . t...$
 40213e80 b2688090 9014a0b0 f4009911 ba99b000  .h..............
 40213e90 0120b024 e0bb010a bbba9930 b00480bb  . .$.......0....
 40213ea0 01ba779a 77c02000 72688100 16400c10  ..w.w. .rh...@..
 40213eb0 0000a1c0 200081d9 ff722883 007720c0  .... ....r(..w .
 40213ec0 20007268 83981178 21f62311 a6260e91   .rh...x!.#..&..
 40213ed0 7dfe9809 9093a088 e9808020 89e93d07  }.......... ..=.
 40213ee0 21d0ff48 412a2501 afc0c000 00080112  !..HA*%.........
 40213ef0 c1100df0 ffff1fff 71c9ff00 12400c18  ........q....@..
 40213f00 7cf90088 a1908830 c0200062 27838066  |......0. .b'..f
 40213f10 10c02000 62678351 c0ff2042 a05044b0  .. .bg.Q.. B.PD.
 40213f20 51f5ffc0 20003224 81503310 c0200032  Q... .2$.P3.. .2
 40213f30 64810df0 03030300 61ffff71 53d551b7  d.......a..qS.Q.
 40213f40 ffdcb2c0 20006265 80261302 66532bc0  .... .be.&..fS+.
 40213f50 20002225 80702220 c0200022 65800df0   ."%.p" . ."e...
 40213f60 c0200062 65812613 0266530e c0200032  . .be.&..fS.. .2
 40213f70 25817033 20c02000 3265810d f0000000  %.p3 . .2e......
 40213f80 12c1e009 41714dff 21bdd831 a4ffc020  ....AqM.!..1... 
 40213f90 00226380 c020000c 045d070c 06226381  ."c.. ...]..."c.
 40213fa0 0c600c32 0c030901 85e7ff0c 320c130c  .`.2........2...
 40213fb0 167142ff 0c644901 5d070c04 45e6ff0c  .qB..dI.]...E...
 40213fc0 05c02000 6196ff08 4112c120 5266820d  .. .a...A.. Rf..
 40213fd0 f0000000 613cfe41 91ff6806 51a8d860  ....a<.A..h.Q..`
 40213fe0 62a068e6 cc72c020 00526480 460100c0  b.h..r. .Rd.F...
 40213ff0 20005264 817cf880 8630c020 00722483   .Rd.|...0. .r$.
 40214000 807710c0 20007264 830df000 41fbb631  .w.. .rd....A..1
 40214010 d3c9c020 00222381 402220c0 20002263  ... ."#.@" . ."c
 40214020 810df000 00000003 ffffffdb 983a0000  .............:..
 40214030 61cbc90c 08210ad1 31fbff71 4dc6a177  a....!..1..qM..w
 40214040 ff0c1541 20fe12c1 f0480409 01524405  ...A ....H...RD.
 40214050 b11aff51 ddc348c4 c0200042 668301a3  ...Q..H.. .Bf...
 40214060 b8c02000 9225a200 9920c020 009265a2  .. ..%... . ..e.
 40214070 c0200062 2a803066 20c02000 626a80c0  . .b*.0f . .bj..
 40214080 2000422a 80b04410 c0200042 6a80c020   .B*..D.. .Bj.. 
 40214090 00022a81 300020c0 2000026a 81c02000  ..*.0. . ..j.. .
 402140a0 922a81b0 9910c020 00926a81 c0200082  .*..... ..j.. ..
 402140b0 6596c020 00726597 c0200082 658ec020  e.. .re.. ..e.. 
 402140c0 0072658f 0cc6c020 00422586 604420c0  .re.... .B%.`D .
 402140d0 20004265 8631d4ff c0200002 22d13000   .Be.1... ..".0.
 402140e0 10c02000 0262d121 d1ff015a b4c00000  .. ..b.!...Z....
 402140f0 7ce7c020 0061b4c3 5226a570 5510c020  |.. .a..R&.pU.. 
 40214100 005266a5 080112c1 100df000 12c1f009  .Rf.............
 40214110 013d020c 182191c9 c0200072 229b8077  .=...!... .r"..w
 40214120 20c02000 72629b0c 26c02000 52229b60   . .rb..&. .R".`
 40214130 5520c020 0052629b 0c44c020 0002229b  U . .Rb..D. ..".
 40214140 400020c0 20000262 9b0c0245 adff0801  @. . ..b...E....
 40214150 12c1100d f0000000 00000024 ffff0100  ...........$....
 40214160 fffffbff 31d8fd7c fa38030c 19220305  ....1..|.8..."..
 40214170 41bcd016 a20bb129 ff21fdc5 5141ef81  A......).!..QA..
 40214180 92c3c020 007228a5 907720c0 20007268  ... .r(..w . .rh
 40214190 a561f1ff c0200092 24d16099 20c02000  .a... ..$.`. . .
 402141a0 9264d17c 37c02000 62288670 6610c020  .d.|7. .b(.pf.. 
 402141b0 00626886 c02000a2 689641e8 ffc02000  .bh.. ..h.A... .
 402141c0 426897c0 2000a268 8e914bd5 c0200092  Bh.. ..h..K.. ..
 402141d0 688fc020 00722b80 507710c0 2000726b  h.. .r+.Pw.. .rk
 402141e0 80c02000 622b8020 6620c020 00626b80  .. .b+. f . .bk.
 402141f0 c0200042 2b815044 10c02000 426b81c0  . .B+.PD.. .Bk..
 40214200 2000a22b 8120aa20 c02000a2 6b8191d4   ..+. . . ..k...
 40214210 ffc02000 7228a290 7710c020 007268a2  .. .r(..w.. .rh.
 40214220 52c31861 4ec9c020 00526683 0c044243  R..aN.. .Rf...BC
 40214230 050df000 100fff3f d0fffe3f 5004ff3f  .......?...?P..?
 40214240 b00cff3f 7011ff3f cc5e1040 12c1e009  ...?p..?.^.@....
 40214250 01e931c9 11f941d9 213ccfd1 f6ffc1f6  ..1...A.!<......
 40214260 ff0c1e41 ccf82d0c 48a40c13 4a5f591c  ...A..-.H...J_Y.
 40214270 592c4814 494ce25c 06d98c01 f3ffc000  Y,H.IL.\........
 40214280 00c2cc24 d2cd18f2 cff4e61f d50c8ef1  ...$............
 40214290 49fb71ea ff7951c0 20008851 a21800b2  I.q..yQ. ..Q....
 402142a0 a100f0aa 10b0aa20 c02000d9 8c2d0c0c  ....... . ...-..
 402142b0 43a25800 891c892c 0c19925c 06cb8889  C.X....,...\....
 402142c0 4c01e1ff c00000c2 cc24d2cd 180beeb8  L........$......
 402142d0 5102a10c 0abbb951 e61ebb0c 8e31d8ff  Q......Q.....1..
 402142e0 3961c020 00486162 14004c07 f0661070  9a. .Hab..L..f.p
 402142f0 6620c020 00d98c2d 0c0c5362 5400491c  f . ...-..SbT.I.
 40214300 492c0c15 525c06cb 44494c01 cfffc000  I,..R\..DIL.....
 40214310 00c2cc24 d2cd1878 610bee72 c74c7961  ...$...xa..r.Lya
 40214320 e61ebe0c 4ed98c2d 0c0c6301 c7ffc000  ....N..-..c.....
 40214330 00c2cc24 d2cd180b eee61ee8 0c7ed1c1  ...$.........~..
 40214340 ffd98c2d 0c0c7301 c0ffc000 00c2cc24  ...-..s........$
 40214350 cbdd0bee e61ee9c8 11d821e8 31f84108  ..........!.1.A.
 40214360 0112c120 0df00000 52a08361 add212c1  ... ....R..a....
 40214370 e02961f9 410901c9 11d921e9 31d1abd2  .)a.A.....!.1...
 40214380 0c0ecd02 02a09cfd 020a0f0c e2226f20  ............."o 
 40214390 526c2132 0c8a0951 c73008d2 5c44079c  Rl!2...Q.0..\D..
 402143a0 02625c44 dc23221c 4432a083 85090008  .b\D.#".D2......
 402143b0 5152a083 619bd222 4c8ad2cd 05420c8b  QR..a.."L....B..
 402143c0 e2ce0156 e400720c 8d807701 707831f0  ...V..r...w.px1.
 402143d0 7711724c 8b822f20 cbcc872e b222a084  w.rL../ ....."..
 402143e0 2a2f45e1 030801c8 11d82122 6f54e831  */E.......!"oT.1
 402143f0 f84112c1 200df000 12c1f0c2 61010261  .A.. .......a..a
 40214400 0020c220 05f6ff2d 0c02a064 025c1485  . . ...-...d.\..
 40214410 29002d0c 050e040c 0342dc05 28b43974  ).-......B..(.9t
 40214420 6632042d 0cc53201 2199bec5 b7052d0c  f2.-..2.!.....-.
 40214430 c52204c8 11080112 c1100df0 b3090000  ."..............
 40214440 99f6ffff 30f6ffff 61fdff71 fdff12c1  ....0...a..q....
 40214450 f0090101 73d27763 1207123d 2736287a  ....s.wc...='6(z
 40214460 220c5301 4bb5c000 00060500 07122a27  ".S.K.........*'
 40214470 360c7a22 0c530146 b5c00000 4600007c  6.z".S.F....F..|
 40214480 f2080112 c1100df0 01efff1c 430a2201  ............C.".
 40214490 5cb3c000 00fb2286 f9ff0ce2 46f8ff00  \.....".....F...
 402144a0 cc220c02 0df05194 d4571204 2202060d  ."....Q..W.."...
 402144b0 f02d050d f0000000 67090000 a4080000  .-......g.......
 402144c0 0ce70cd8 61fdff91 fdff7763 0d77121f  ....a.....wc.w..
 402144d0 27b81520 22a09022 a00df077 121127b8  '.. ".."...w..'.
 402144e0 071ca327 b3ec6125 ed2022a0 6a220df0  ...'..a%. ".j"..
 402144f0 214cd20d f0000000 622220a6 161d6076  !L......b" ...`v
 40214500 902077a0 82124492 22218793 09470906  . w...D."!...G..
 40214510 a2a084aa 220df0cb 227792e7 0c020df0  ...."..."w......
 40214520 622220a6 161d6076 902077a0 82028a92  b" ...`v. w.....
 40214530 22218793 09470906 a2a084aa 220df0cb  "!...G......"...
 40214540 227792e7 0c020df0 60c02240 68c02240  "w......`."@h."@
 40214550 70c02240 f888fe3f c0c02240 c8c02240  p."@...?.."@.."@
 40214560 90c02240 98c02240 a0c02240 12c1e0d9  .."@.."@.."@....
 40214570 61c95109 41cd0221 f4ff0146 bec00000  a.Q.A..!...F....
 40214580 165c08d1 42be261c 0832ccfe 16130a66  .\..B.&..2.....f
 40214590 3c7f21ee ff013fbe c0000081 c4c821ec  <.!...?.......!.
 402145a0 ff720822 62082152 08204208 1f32081e  .r."b.!R. B..2..
 402145b0 82082389 010137be c0000098 4dec9922  ..#...7.....M.."
 402145c0 a28801f9 bec00000 294d0c0a a2622ca9  ........)M...b,.
 402145d0 b222a110 01f5bec0 000031de ffb84d0c  ."........1...M.
 402145e0 64226b1f 01f0bec0 0000661c 3a085d9c  d"k.......f.:.].
 402145f0 f0222020 01f4b7c0 0000285d 01f2b7c0  ."  ......(]....
 40214600 00000c0c c95d0602 0021d3ff 0122bec0  .....]...!..."..
 40214610 000021d2 ff011fbe c000000c 12c851d8  ..!...........Q.
 40214620 61084112 c1200df0 21ceff01 1abec000  a.A.. ..!.......
 40214630 0021ccff 0118bec0 0000019c c821caff  .!...........!..
 40214640 72001c62 001b5200 1a420019 32001802  r..b..R..B..2...
 40214650 001d0901 0110bec0 0000285d ec7222a2  ..........(].r".
 40214660 8801d1be c0000029 5d0c1332 622c22a1  .......)]..2b,".
 40214670 1001cdbe c0000048 5d31b6ff 2264200c  .......H]1.."d .
 40214680 6401c8be c0000066 2c87084d 1620f822  d......f,..M. ."
 40214690 201f01cc b7c00000 284d01ca b7c00000   .......(M......
 402146a0 0c05594d 86daff00 0df00000 0c020df0  ..YM............
 402146b0 0c020df0 12c1f009 11488302 221e4804  .........H..".H.
 402146c0 21f3bd77 64340200 e9b62004 0b604600  !..wd4.... ..`F.
 402146d0 006d0020 20a02222 64a04611 02222640  .m.  .""d.F.."&@
 402146e0 40740840 2901c000 00480138 110c0012  @t.@)....H.8....
 402146f0 c1102004 932d000d 030df00c 060200e8  .. ..-..........
 40214700 c6f3ff00 12c1f052 130b0911 02130a71  .......R.......q
 40214710 dfbd5a00 b6c03268 13681602 221e8206  ..Z...2h.h.."...
 40214720 046a2407 68422202 03576210 2056145a  .j$.hB"..Wb. V.Z
 40214730 000200ea 52a0ff57 90050603 000200e9  ....R..W........
 40214740 7060a062 26646901 cc360c02 86040002  p`.b&di..6......
 40214750 26260850 2d06c000 004d0238 010c0240  &&.P-....M.8...@
 40214760 23930811 12c1100d f00200e8 06f4ff00  #...............
 40214770 b4310040 a85d1040 12c1f009 11c92129  .1.@.].@......!)
 40214780 01cd034a 230c4301 faffc000 004d0202  ...J#.C......M..
 40214790 a10027b0 040c0206 07000c43 4c1227b4  ..'........CL.'.
 402147a0 010c530c 0201f3ff c000008c 82381238  ..S..........8.8
 402147b0 1348013a 3c3904c8 21081112 c1100df0  .H.:<9..!.......
 402147c0 a613ff3f c414ff3f 1c17ff3f 2017ff3f  ...?...?...? ..?
 402147d0 12c1e0d2 6104e261 05f26106 c9310921  ....a..a..a..1.!
 402147e0 cd0216f2 0df1a9bd d85fd22d 20d901d2  ........._.- ...
 402147f0 1d4ee842 0bdd85e3 f10164be 1c761cb5  .N.B......d..v..
 40214800 0b723801 422fa6c0 8d11825e 0b22134e  .r8.B/.....^.".N
 40214810 7056835a ded9111b 22dad422 534e0200  pV.Z....".."SN..
 40214820 71d2cd18 6610390c 142158be 0c035202  q...f.9..!X...R.
 40214830 72220273 00154020 60040c05 0022a160  r".s..@ `....".`
 40214840 34830033 a10044a1 01e8c1c0 0000414f  4..3..D.......AO
 40214850 be0c1562 04730c03 60600460 35833244  ...b.s..``.`5.2D
 40214860 735b2d31 d7ff0c14 014fbec0 0000020d  s[-1.....O......
 40214870 02cc1002 0d030b70 724d0222 2f5305c2  .......prM."/S..
 40214880 ff981182 2fa69a88 22481722 2f5305c1  ..../..."H."/S..
 40214890 ffd1ccff 224d1db1 ccc1c020 000c0ad8  ...."M..... ....
 402148a0 8cb22b80 b94db96e a97e058b 059c42f1  ..+..M.n.~....B.
 402148b0 c6ff2d0c e20f000c 1000ee20 e24f0045  ..-........ .O.E
 402148c0 1ffe8607 00c1c1ff c02c2001 38b2c000  ........., .8...
 402148d0 008502ff 42a00020 32200c15 2d0c0132  ....B.. 2 ..-..2
 402148e0 b2c00000 c831d841 e851f861 082112c1  .....1.A.Q.a.!..
 402148f0 200df000 42a0fe12 c1f021b3 ff026100   ...B.....!...a.
 40214900 02020032 02184000 10560302 02420022  ...2..@..V...B."
 40214910 c2040126 b2c00000 05fefe0c 043d020c  ...&.........=..
 40214920 1521aaff 0121b2c0 00000607 000c1552  .!...!.........R
 40214930 42191760 1162a0fd 60601062 4200c5c0  B..`.b..``.bB...
 40214940 00460100 00000002 42000801 12c1100d  .F......B.......
 40214950 f0000000 6214ff3f 1cc212c1 f0d921e9  ....b..?......!.
 40214960 31c911c1 4abd0901 c85c010f bec00000  1...J....\......
 40214970 226c2d22 a0cc010c bec00000 d22c2d29  "l-".........,-)
 40214980 1d4cc201 09bec000 00e1f2ff 020e80dd  .L..............
 40214990 02662006 0c133902 020e800c 22663004  .f ...9....."f0.
 402149a0 290d020e 80664003 0c35590d 3188c552  )....f@..5Y.1..R
 402149b0 cefa226d 0a226d01 293d0ca6 692d222c  .."m."m.)=..i-",
 402149c0 2d698d28 12421501 22c21052 15000044  -i.(.B.."..R...D
 402149d0 11504420 01f4bdc0 00004c02 72cefa82  .PD ......L.r...
 402149e0 2c2d9217 00721701 88180077 11907720  ,-...r.....w..w 
 402149f0 79c801ed bdc00000 822c2d88 18e14ebd  y........,-...N.
 40214a00 29f82d0e 01ddc3c0 0000922c 2d4d0298  ).-........,-M..
 40214a10 193d0e28 f901e3bd c000001c 030c3422  .=.(..........4"
 40214a20 2c2db22c 20281252 a12c5262 2d08ec42  ,-., (.R.,Rb-..B
 40214a30 4c3c3000 2009eca8 2b0c1ee0 aa20a92b  L<0. ...+.... .+
 40214a40 c5e3103d 0d280c0c 0422c22b c5571132  ...=.(...".+.W.2
 40214a50 2c2d2963 2d0d01db b6c00000 c811d821  ,-)c-..........!
 40214a60 e8310801 12c1100d f0000000 12c1f06c  .1.............l
 40214a70 f5c911c1 06bd0901 c85c0c00 222c2d02  .........\..",-.
 40214a80 4c3c48ec 322c2050 441049ec 092316f2  L<H.2, PD.I..#..
 40214a90 06486252 24148cb5 2d0501ca b6c00000  .HbR$...-.......
 40214aa0 222c2d48 6208048c b02d0001 c6b6c000  ",-Hb....-......
 40214ab0 00222c2d 48628c94 2d0401c2 b6c00000  .",-Hb..-.......
 40214ac0 222c2d08 1248e08c b42d0401 beb6c000  ",-..H...-......
 40214ad0 00222c2d 081248f0 8cb42d04 01bab6c0  .",-..H...-.....
 40214ae0 0000222c 2d08128c 902d0001 b6b6c000  ..",-....-......
 40214af0 00222c2d 8c9201b3 b6c00000 0c00026c  .",-...........l
 40214b00 2dc81108 0112c110 0df00000 f4482140  -............H!@
 40214b10 d0472140 12c1c0d9 e1c9d109 c1cd0202  .G!@............
 40214b20 d2030200 1ed852e6 5005a620 0285e2ff  ......R.P.. ....
 40214b30 22a00142 a002322d 0052a064 32c32bc5  "..B..2-.R.d2.+.
 40214b40 ddfb21f2 ff0c430c 540c0552 5cf049bd  ..!...C.T..R\.I.
 40214b50 4508fe2d 0d3d0145 5403c11c ff296cd2  E..-.=.ET....)l.
 40214b60 ccfc2d0c 0192b1c0 0000487d 2d0c31e8  ..-.......H}-.1.
 40214b70 ff018cb1 c0000085 d5fe05d8 fe0c043d  ...............=
 40214b80 020c152d 0c0188b1 c00000c8 d1d8e108  ...-............
 40214b90 c112c140 0df00000 12c1f0c2 61010261  ...@........a..a
 40214ba0 0030c320 9ce30c32 32130b0c 24c50e0b  .0. ...22...$...
 40214bb0 0c03081c 4d020810 0912290c c9421cd2  ....M.....)..B..
 40214bc0 0113f6c0 0000c811 080112c1 100df000  ................
 40214bd0 df930400 00a00f00 12c1f009 11c921cd  ..............!.
 40214be0 022142b3 c0200002 2c412892 07320e32  .!B.. ..,A(..2.2
 40214bf0 a1380022 c00182b1 c0000086 040032af  .8."..........2.
 40214c00 ff303030 3a221b22 32a13801 7db1c000  .000:"."2.8.}...
 40214c10 0041efff 27b43532 a0a0219c bc0c4458  .A..'.52..!...DX
 40214c20 52285262 251e6901 c2651e05 a60232a0  R(Rb%.i..e....2.
 40214c30 c02196bc 0c242852 05a50221 94bc2852  .!...$(R...!..(R
 40214c40 38013262 1e3d0c85 77060602 00c02c20  8.2b.=..w....., 
 40214c50 31e1ff05 7b03c221 02022101 12c1100d  1...{..!..!.....
 40214c60 f0000000 888e0000 ac731040 bd0412c1  .........s.@....
 40214c70 c0f9b1e9 a10971d9 91c981dd 02cd0308  ......q.........
 40214c80 4c280242 00013d05 404641cc 74021001  L(.B..=.@FA.t...
 40214c90 0000b486 03005210 03421002 00051140  ......R..B.....@
 40214ca0 00200008 410000f4 b6b03ae8 1ce81e42  . ..A.....:....B
 40214cb0 0e00f2a0 ff406014 5686041c 79b94139  .....@`.V...y.A9
 40214cc0 31292152 0e0162a0 f00ccff0 f4106064  1)!R..b.......`d
 40214cd0 1069d150 50145961 cc15664f 2909114b  .i.PP.Ya..fO)..K
 40214ce0 2e29e106 0b00f2a0 ff8c6c2d 0c010dbf  .)........l-....
 40214cf0 c000002d 0fc881d8 91e8a1f8 b1087112  ...-..........q.
 40214d00 c1400df0 46f8ff07 b9de0261 0132ce10  .@..F......a.2..
 40214d10 32610e22 ce0a2951 c5630681 e8fbece2  2a."..)Q.c......
 40214d20 28e13d08 0c64013e c2c00000 9c0228e1  (.=..d.>......(.
 40214d30 38210c64 32c32b01 3ac2c000 005682fa  8!.d2.+.:....V..
 40214d40 21dffb45 610629c1 dc12c6e6 ff000000  !..Ea.).........
 40214d50 29c141e6 b2c02000 48944262 4158c152  ).A... .H.BbAX.R
 40214d60 6d1ecc3f 68d126d6 2028e138 210c6432  m..?h.&. (.8!.d2
 40214d70 c32b012b c2c00000 8ce228e1 31d0fb0c  .+.+......(.1...
 40214d80 640127c2 c0000056 e2f54831 424da827  d.'....V..H1BM.'
 40214d90 ef4058d1 26d53b02 0e01620e 0072a08c  .@X.&.;...b..r..
 40214da0 70661072 a0887796 0b008014 66387782  pf.r..w.....f8w.
 40214db0 0e1e061d 0082a010 92210c90 8890921e  .........!......
 40214dc0 0b37600b a2184fa0 a9c0e61a 0206c6ff  .7`...O.........
 40214dd0 92584f32 210522cd 300c6401 f2bcc000  .XO2!.".0.d.....
 40214de0 0016af05 264f48b2 cff856bb ef2d0e01  ....&OH...V..-..
 40214df0 9effc000 005d0208 11225c0a 2020c022  .....]..."\.  ."
 40214e00 c2fc225c 0b57a002 46b7ff38 610b3356  .."\.W..F..8a.3V
 40214e10 63ed48c1 42140d56 d4092d0d 32a0a00c  c.H.B..V..-.2...
 40214e20 74858602 46b0ff82 0e188080 34c6e1ff  t...F.......4...
 40214e30 d02d20c0 3c204221 0d856200 46aaffe0  .- .< B!..b.F...
 40214e40 2e200189 ffc00000 20422022 5c0a0221  . ...... B "\..!
 40214e50 01586120 60c062c6 fc625c0b 5695e81c  .Xa `.b..b\.V...
 40214e60 77073702 46a0ff82 0e0a8080 045688e7  w.7.F........V..
 40214e70 920e0167 692ea8d1 b2a0b0b0 aac0567a  ...gi.........Vz
 40214e80 e6e8ed1c 00078e02 4697ff2d 0d3d0c45  ........F..-.=.E
 40214e90 87ff1632 e5381c38 13220301 42a0bf40  ...2.8.8."..B..@
 40214ea0 22102243 01d02d20 c03c2042 210d5841  "."C..- .< B!.XA
 40214eb0 6831c51d 00068cff 52610042 210c1c03  h1......Ra.B!...
 40214ec0 4824020e 01304410 30301047 130728c1  H$...0D.00.G..(.
 40214ed0 855e0302 0e016760 2458ed1c 06678502  .^....g`$X...g..
 40214ee0 4681ff2d 0d3d0c48 018581ff 1692df72  F..-.=.H.......r
 40214ef0 0e0182a0 bf807710 724e0106 0300a22c  ......w.rN.....,
 40214f00 01921c0a b22a01ba 99991a3d 0e2d0c48  .....*.....=.-.H
 40214f10 11580105 31013d02 cd0216b2 dc4151ff  .X..1.=......AQ.
 40214f20 e8c10812 e82e0810 07ee3228 c1220218  ..........2(."..
 40214f30 66125752 000d6200 0c805511 60552040  f.WR..b...U.`U @
 40214f40 55c05635 daeb4052 130b222d 2d322d1e  U.V5..@R.."--2-.
 40214f50 286252c5 f2322339 852c1186 62ff5200  (bR..2#9.,..b.R.
 40214f60 0d62000c 80551160 55204795 1d222d2d  .b...U.`U G.."--
 40214f70 16720122 220642c0 0e52130b 622d1e52  .r."".B..R..b-.R
 40214f80 c5f23226 39c52911 4657ff2d 0d85c0ff  ..2&9.).FW.-....
 40214f90 0c82c657 ff000000 d84b2140 12c1e0c9  ...W.....K!@....
 40214fa0 51093102 023ccd02 66201822 22118c92  Q.1..<..f .""...
 40214fb0 0185b5c0 00000c02 226c11c8 51083112  ........"l..Q.1.
 40214fc0 c1200df0 39216616 f11b4632 a0b0c56b  . ..9!f...F2...k
 40214fd0 022821ab 22291105 38062941 cc822811  .(!.")..8.)A..(.
 40214fe0 c5290629 411622fd 38112841 0c64016d  .).)A.".8.(A.d.m
 40214ff0 bcc00000 284132a0 c03a220c 03053303  ....(A2..:"...3.
 40215000 284132a0 f03a2229 010168b0 c0000028  (A2..:")..h....(
 40215010 0131e1ff 48410163 b0c00000 280132a7  .1..HA.c....(.2.
 40215020 d00c140c 150160b0 c0000098 416cfb7c  ......`.....Al.|
 40215030 ea0c1328 4171acb4 68222c08 80662070  ...(Aq..h",..f p
 40215040 66203036 20a0a610 6922020c 3cb0aa10  f 06 ...i"..<...
 40215050 02c0fd00 3a833929 c6d7ff00 1886fe3f  ....:.9).......?
 40215060 ec43ac22 32020161 fdffa613 1668061c  .C."2..a.....h..
 40215070 682a7332 02023030 6437280b 3756081b  h*s2..00d7(.7V..
 40215080 227792ee 0c120df0 0c020df0 0050f201  "w...........P..
 40215090 a17fbb3c 2b12c180 02611878 02f2611c  ...<+....a.x..a.
 402150a0 d2611ac2 6119e261 1bcd02e2 221edd04  .a..a..a...."...
 402150b0 f8134d05 3c05f81f 22130b02 cf18fa22  ..M.<..."......"
 402150c0 22c21816 7d0426bd 2e26cd41 571d2866  "...}.&..&.AW.(f
 402150d0 dd020625 005c0582 cdb01658 0d92cd80  ...%.\.....X....
 402150e0 16490db2 a0a0b71d 4d32a0b0 303dc016  .I......M2..0=..
 402150f0 f30d42a0 c0471d3e c22119d2 211ae221  ..B..G.>.!..!..!
 40215100 1bf2211c 22a08002 21182a11 0df058bc  ..!."...!.*...X.
 40215110 22611366 55e132c7 2b22cf10 0c640140  "a.fU.2.+"...d.@
 40215120 c1c00000 5602fd62 cde056a6 140c103c  ....V..b..V....<
 40215130 07726115 c6510022 6113822c 0b02611f  .ra..Q."a..,..a.
 40215140 6658b422 cf0432c7 2b42a006 dd000134  fX."..2.+B.....4
 40215150 c1c00000 5602fa92 2113d099 c0a62997  ....V...!.....).
 40215160 3d0e2d0c 85250646 e3ffd8bc f0e2c066  =.-..%.F.......f
 40215170 5d85e2ce e8e62e02 c62e000c 0d0c0300  ]...............
 40215180 62c00c0e 5200012b 4547a602 06daff42  b...R..+EG.....B
 40215190 00008ce4 261407b7 940bed00 860100dd  ....&...........
 402151a0 00460000 3d000a05 2b000062 c0e626d3  .F..=...+..b..&.
 402151b0 4622000c 14860000 42a00022 2a07506d  F"......B.."*.Pm
 402151c0 c077e202 1606f330 23203d01 c51f0146  .w.....0# =....F
 402151d0 c9ff4261 17626116 22611388 bc02611f  ..Ba.ba."a....a.
 402151e0 82c8fb56 18f132c7 2b22cf10 0c64dd00  ...V..2.+"...d..
 402151f0 010cc1c0 000056e2 ef922113 d099c0e6  ......V...!.....
 40215200 690286bc ff021d00 a121bb62 1d01a87a  i........!.b...z
 40215210 721d02a0 aa0556ea ed0bb0d2 2c20d26c  r.....V....., .l
 40215220 1e163bed 5600ed3d 0f2d0c42 21175221  ..;.V..=.-.B!.R!
 40215230 1685d6ff 06b0ff0c 030c0d0c 0e167deb  ..............}.
 40215240 220d01b6 b20286ab ff8cce42 0e010cf0  "..........B....
 40215250 2000c047 a00286a7 ff16b3e9 4203012c   ..G........B..,
 40215260 0247b202 06a4ff51 7fc15205 9f0b5556  .G.....Q..R...UV
 40215270 95115694 11c69fff 0c001c06 6261150c  ..V.........ba..
 40215280 a90c4872 21130089 93f077c0 72c7e887  ..Hr!.....w.r...
 40215290 a7028698 ffb2a0dd 62211372 cf22d2cf  ........b!.r."..
 402152a0 1c00d793 d066c0e6 2602064b 000c000c  .....f..&..K....
 402152b0 07f2ce27 0c0aa261 12f26114 0c0f520d  ...'...a..a...R.
 402152c0 01320d00 2ba5a7a6 02c68aff 16630a66  .2..+........c.f
 402152d0 1302c626 002cd227 93028623 0072611d  ...&.,.'...#.ra.
 402152e0 02611e3c 04471363 3c266713 59b71302  .a.<.G.c<&g.Y...
 402152f0 4621000c 03b64525 220d0592 0d03820d  F!....E%".......
 40215300 02809911 90882092 0d048022 01009911  ...... ...."....
 40215310 20992090 8820915d ff979801 0c137261   . .. .]......ra
 40215320 1d02611e 16130522 21143d0d a0407442  ..a...."!.=..@tB
 40215330 4e26019c bbc00000 02211e72 211db2a0  N&.......!.r!...
 40215340 dd520d01 460c00fd 0d060b00 2221143d  .R..F......."!.=
 40215350 0da04074 424e2601 93bbc000 0002211e  ..@tBN&.......!.
 40215360 72211db2 a0dd520d 01060300 7d0dc601  r!....R.....}...
 40215370 000d0d86 0000d261 12622113 dad52bdd  .......a.b!...+.
 40215380 d066c0a6 260206cd ff861600 16040202  .f..&...........
 40215390 2aa63261 124000c0 56c0d522 c302310b  *.2a.@..V.."..1.
 402153a0 c3019fc0 c0000032 2112a1b8 ba5672d4  .......2!....Vr.
 402153b0 422a07b7 74055203 0116b5d3 3d0e2d0d  B*..t.R.....=.-.
 402153c0 622c2062 6c1e85c9 ffab3f4d 020c172d  b, bl.....?M...-
 402153d0 0c404793 c59b0246 47ff02a0 00f2a000  .@G....FG.......
 402153e0 0c070c08 82611216 d0d02200 01b6b202  .....a....".....
 402153f0 0641ff8c cfa20f01 0cf92099 c0a7a902  .A........ .....
 40215400 063dffa2 211216ea ce220a01 2c0d27bd  .=..!...."..,.'.
 40215410 02c638ff 9c473207 011ce562 07001ca4  ..8..G2....b....
 40215420 b066c060 458347b3 02c632ff 4d0f2d0e  .f.`E.G...2.M.-.
 40215430 0cf53d00 45ef0020 00742077 045677cb  ..=.E.. .t w.Vw.
 40215440 8193ba88 78576807 2cf90739 02c629ff  ....xWh.,..9..).
 40215450 3d0e2d0c 422115a2 2c20a26c 1e850406  =.-.B!.., .l....
 40215460 0625ff00 12c1f009 0126e408 02a0a007  .%.......&......
 40215470 9402c500 00080112 c1100df0 ff3fffff  .............?..
 40215480 12c1f062 221e0261 01c26102 0813cd03  ...b"..a..a.....
 40215490 08101656 0a51f9ff 42160d50 34105784  ...V.Q..B..P4.W.
 402154a0 02862500 72100170 70d47713 02462000  ..%.r..pp.w..F .
 402154b0 02263369 31ccd0cd 06c5a901 2d0c0c03  .&3i1.......-...
 402154c0 45e902c6 1a000c03 09016931 82263552  E.........i1.&5R
 402154d0 26300b88 0b555266 30cc7532 66343266  &0...URf0.u2f42f
 402154e0 33860100 09017870 72663382 66359c95  3.....xprf3.f5..
 402154f0 a88cb80a 011fc1b0 9054b0b6 4100bb20  .........T..A.. 
 40215500 a0bb11b0 9920990a c6010022 21030c03  ..... ....."!...
 40215510 45e40285 c4048c62 28018559 fd460400  E......b(..Y.F..
 40215520 02cc1c21 5aba0c04 32227549 7cc90302  ...!Z...2"uI|...
 40215530 6275c821 081112c1 100df032 a0c00c74  bu.!.......2...t
 40215540 851402c6 faff0000 00000000 12c1e009  ................
 40215550 31014eba c941c850 0c16cc3c 0c020621  1.N..A.P...<...!
 40215560 00220cbb 0199fc07 e20d3200 000c2407  ."........2...$.
 40215570 637c4043 20424000 2d06061a 0032a001  c|@C B@.-....2..
 40215580 66133a51 b8c05205 9d52c5ff 50507452  f.:Q..R..R..PPtR
 40215590 610001b9 ecc00000 82a08468 01713bba  a..........h.q;.
 402155a0 60669070 66a072d7 018a6669 11626713  `f.pf.r...fi.bg.
 402155b0 01b3ecc0 00002811 85b40401 34ba0020  ......(.....4.. 
 402155c0 200555ff 82a0fea1 80fc92a0 00924a18   .U...........J.
 402155d0 720cbb22 2c008077 100c1880 7720724c  r..",..w....w rL
 402155e0 bb055f0a 0c12c841 083112c1 200df031  .._....A.1.. ..1
 402155f0 d7bab80c 3921cceb 4d032d0c 3d0442c4  ....9!..M.-.=.B.
 40215600 e8c5d0f1 3821290c 0c120c15 4d030c06  ....8!).....M...
 40215610 0c13051f fb280c45 5c0a45de ef011bba  .....(.E\.E.....
 40215620 52c2fd56 65f53840 8c8368b3 0c03b626  R..Ve.8@..h....&
 40215630 02c6d2ff 0c1386d1 ff000000 12c1e0d9  ................
 40215640 210901e9 31e111ba c911c85e f941cc3c  !...1......^.A.<
 40215650 0c024637 00020cbb 0c1f07e0 042d0f06  ..F7.........-..
 40215660 34005180 c0595152 05a0dd0f 2b55a625  4.Q..YQR....+U.%
 40215670 3cc0eda0 022e2016 b0022d0c 32a0a00c  <..... ...-.2...
 40215680 44f22c1e 026c1e45 00022d0c 32a0c00c  D.,..l.E..-.2...
 40215690 2485ff01 2d0cf26c 1e322e20 05d20558  $...-..l.2. ...X
 402156a0 515205a0 2b551bdd d0d07457 2dc2e1f7  QR..+U....tW-...
 402156b0 b90c1f28 0c05560a 2d0cc5de f1d142fc  ...(..V.-.....B.
 402156c0 f24d184b 2d01b9ae c000000c 12319fba  .M.K-........1..
 402156d0 0c240c05 4524fb0c 12858ffe 222e660c  .$..E$......".f.
 402156e0 0f8c7201 b8b3c000 00f26e66 222e678c  ..r.......nf".g.
 402156f0 7201b4b3 c00000f2 6e6722a0 0132a000  r.......ng"..2..
 40215700 0c040c15 0c06c50f fb0c020c 130c0405  ................
 40215710 5bfe8535 ffe20d00 07ee0928 7d0c4301  [..5.......(}.C.
 40215720 cafac000 000c12f2 0cbb02a0 fe00ff10  ................
 40215730 f24cbbc8 11d821e8 31f84108 0112c120  .L....!.1.A.... 
 40215740 0df00000 00000804 0c110000 d85f2140  ............._!@
 40215750 4c602140 32a00072 a01c61fa ff52a2bc  L`!@2..r..a..R..
 40215760 12c1f042 a4a64a42 09015a52 0c106265  ...B..JB..ZR..be
 40215770 980c3261 f5ff52d5 02725533 32553462  ..2a..R..rU32U4b
 40215780 55320244 80024481 41f1ffc5 f8050c32  U2.D..D.A......2
 40215790 0c1341ef ff45ed05 080112c1 100df000  ..A..E..........
 402157a0 400c0000 12c1f0c9 11090108 e2cd0267  @..............g
 402157b0 60020503 000c00c0 40f522a0 ce2a2cc2  `.......@."..*,.
 402157c0 523d4252 3e024280 22c2501b 006640ee  R=BR>.B.".P..f@.
 402157d0 41f4ff38 ec080140 332039ec c81112c1  A..8...@3 9.....
 402157e0 100df000 52afbf48 e20c0332 52605044  ....R..H...2R`PD
 402157f0 1049e20d f0000000 fffff8ff 12c1f051  .I.............Q
 40215800 feff0261 00022300 32130250 00100044  ...a..#.2..P...D
 40215810 2045cefe 02210012 c1100df0 68e24203   E...!......h.B.
 40215820 0052a0dd 57940c4b 3372a080 70762079  .R..W..K3r..pv y
 40215830 e2860100 4c088086 2089e2b2 0303a203  ....L... .......
 40215840 0280bb11 b0aa20a2 52609203 049242c2  ...... .R`....B.
 40215850 0df00000 72030272 42c36203 03606014  ....r..rB.b..``.
 40215860 6242c452 03045050 145242c5 42030640  bB.R..PP.RB.B..@
 40215870 40644242 c60df000 00000600 41dfff12  @dBB........A...
 40215880 c1f0e261 03c26101 d2610209 01dd0302  ...a..a..a......
 40215890 222fcd02 2800e1f8 ff404210 40432027  "/..(....@B.@C '
 402158a0 1428217a b9321002 c5c4fecc d2d70e0b  .(!z.2..........
 402158b0 2177b932 2c2f412e c005f4ff 022c2f8c  !w.2,/A......,/.
 402158c0 62271004 0d02226c 2f280008 01d8212c  b'...."l/(....!,
 402158d0 861c45e0 72107056 93e83152 4cc7c811  ..E.r.pV..1RL...
 402158e0 12c1100d f0000000 fc13ff3f ffdfffff  ...........?....
 402158f0 ff7ffeff ffbfffff 12c1e0e9 31f94109  ............1.A.
 40215900 01d921c9 11dd04cd 0205f1ff 08ece1f6  ..!.............
 40215910 ff221c60 32de0232 13740cc8 37082141  .".`2..2.t..7.!A
 40215920 5cbc31f2 ff807210 878202c6 2f0052c7  \.1...r...../.R.
 40215930 fc16250c 4182f840 001009ec 30001009  ..%.A..@....0...
 40215940 ecf10bc0 51ebff31 50b95000 1009ec57  ....Q..1P.P....W
 40215950 620d6223 c77103d1 a7760470 002009ec  b.b#.q...v.p. ..
 40215960 67620a82 23c7f090 20b77801 99eca20d  gb..#... .x.....
 40215970 00b2a0dd b79a014b dd2d0c3d 0d45edff  .......K.-.=.E..
 40215980 220d0302 2eb90c03 00430540 3f932762  "........C.@?.'b
 40215990 17877014 020cc451 55b26610 053152b2  ..p....QU.f..1R.
 402159a0 46010062 c0fd6035 83822c2f 9193ff78  F..b..`5..,/...x
 402159b0 082d0c90 77107073 20790805 ecfff841  .-..w.ps y.....A
 402159c0 a20d03d8 21376a1a b22eb921 21e6d77b  ....!7j....!!..{
 402159d0 1108ec20 002009ec e831c811 080112c1  ... . ...1......
 402159e0 200df021 c4ff08ec 200010c6 f9ff4000   ..!.... .....@.
 402159f0 20300010 c6d1ff31 b3b24000 20300020   0.....1..@. 0. 
 40215a00 c6ceff00 2013ff3f 8c101040 12c1d0c9  .... ..?...@....
 40215a10 21d93109 112991e9 41f951ed 03fd027c  !.1..)..A.Q....|
 40215a20 f321f8ff 29610202 8222221f 3030b039  .!..)a..."".00.9
 40215a30 8177721b 2c632801 f620013d 023c42f6  .wr.,c(.. .=.<B.
 40215a40 30012d03 4cc33971 f6400829 71c60000  0.-.L.9q.@.)q...
 40215a50 0c055971 0c0342a0 8022a0c8 2a2f01ea  ..Yq..B.."..*/..
 40215a60 ffc00000 164e060c 0c320e00 42a0dd47  .....N...2..B..G
 40215a70 93014bee d2a07f2d 0c0c8301 93d1c000  ..K....-........
 40215a80 007b6cc0 6cb36063 216a6e62 06050002  .{l.l.`c!jnb....
 40215a90 406060b1 07662f02 0fc8d710 2ee6cc04  @``..f/.........
 40215aa0 7881c727 2166cc0a 886191ce e182281f  x..'!f...a....(.
 40215ab0 9708132c 09c7a904 a871c72a 09fab01b  ...,.....q.*....
 40215ac0 20224fc8 c24bc91b ccd79caa 0c02c821   "O..K.........!
 40215ad0 d831e841 f8510811 12c1300d f0000000  .1.A.Q....0.....
 40215ae0 12c1e0c9 11e931f9 413951d9 210901dd  ......1.A9Q.!...
 40215af0 02020300 22a0dd27 90034b23 2951c20d  ...."..'..K#)Q..
 40215b00 c816cc04 0c0ef2a0 802d0e0c 83016ed1  .........-....n.
 40215b10 c0000002 a07f4851 7b5ee05e b3505321  ......HQ{^.^.PS!
 40215b20 5a444204 08000240 4040b107 641da61c  ZDB....@@@..d...
 40215b30 1a0c02da 726207c9 1b226080 64879e08  ....rb..."`.d...
 40215b40 f0962092 47c9c20d c8c722e6 1bee079e  .. .G.....".....
 40215b50 b7c811d8 21e831f8 41080112 c1200df0  ....!.1.A.... ..
 40215b60 72a4a652 a15c12c1 e0d921c9 11f941e9  r..R.\....!...A.
 40215b70 3109015a 5259510c 10ed03f2 a180faf2  1..ZRYQ.........
 40215b80 7a226202 80624582 42028142 4581320f  z"b..bE.B..BE.2.
 40215b90 5d2961d0 3311a613 330c0c2d 0c0c837b  ])a.3...3..-...{
 40215ba0 dcc0dcb3 d0d321da de0147d1 c0000032  ......!...G....2
 40215bb0 0d000012 400c1000 40a14033 20324d00  ....@...@.@3 2M.
 40215bc0 220f5d1b ccd02211 272ccf28 6152123c  ".]...".',.(aR.<
 40215bd0 62123b00 55112851 60552022 221f8775  b.;.U.(Q`U ""..u
 40215be0 1067720d 320e0428 51003320 324e0422  .gr.2..(Q.3 2N."
 40215bf0 221f2045 0516940a 28512c1c 2202812c  ". E....(Q,."..,
 40215c00 7fb6222e 2d0c0c83 7bdcc0dc b3d0d321  ..".-...{......!
 40215c10 dade012d d1c00000 1bcc0012 400c1022  ...-........@.."
 40215c20 0d000030 a1302220 224d00f7 9cd52851  ...0.0" "M....(Q
 40215c30 220281b6 322d3c5f 2c7c2d0c 0c837bdc  "...2-<_,|-...{.
 40215c40 c0dcb3d0 d321dade 0120d1c0 00001bcc  .....!... ......
 40215c50 0012400c 10220d00 0030a130 2220224d  ..@.."...0.0" "M
 40215c60 00f79cd5 28512202 82b6423a 3c5c4cdf  ....(Q"...B:<\L.
 40215c70 2d0c0c83 7bdcc0dc b3d0d321 dade0112  -...{......!....
 40215c80 d1c00000 1bcc0012 40020d00 0c120022  ........@......"
 40215c90 a1200020 024d00f7 9cd52851 22028206  . . .M....(Q"...
 40215ca0 01002851 220282c8 110851d8 21320081  ..(Q".....Q.!2..
 40215cb0 f8412713 1742201f 0c330b02 e0001130  .A'..B ..3.....0
 40215cc0 00207774 091c0220 00204600 000c1002  . wt... . F.....
 40215cd0 4e0ce831 080112c1 200df000 fdff0000  N..1.... .......
 40215ce0 dfff0000 bfff0000 12c1d009 41e971c9  ............A.q.
 40215cf0 51d961c1 66b8dd02 e14dc22d 03522eb8  Q.a.f....M.-.R..
 40215d00 02de0202 10725064 1537750b 4178b132  .....rPd.7u.Ax.2
 40215d10 2c764033 20326c76 5096158c a68114bf  ,v@3 2lvP.......
 40215d20 722c7680 7720726c 7671ecff 32222f8c  r,v.w rlvq..2"/.
 40215d30 a9b16db1 a22c76b0 aa20a26c 7642222c  ..m..,v.. .lvB",
 40215d40 0c2adc04 50680582 de028218 73160609  .*..Ph......s...
 40215d50 a0002046 23000c06 0c027080 10b803a0  .. F#.....p.....
 40215d60 0020b0b1 15b00883 1cc3a7f5 0841dcff  . ...........A..
 40215d70 40001006 01002c07 700020b7 75571760  @.....,.p. .uW.`
 40215d80 544c0880 00200901 1c742090 14e0a611  TL... ...t .....
 40215d90 b801b24d 0030aa10 3b2d0c03 2931a099  ...M.0..;-..)1..
 40215da0 20b0b841 b24d0192 4d020117 ffc00000   ..A.M..M.......
 40215db0 2d0c3831 85daff08 4122cd1a c2de02c2  -.81....A"......
 40215dc0 1c74c24d 13e871c0 c841c24d 14c851d8  .t.M..q..A.M..Q.
 40215dd0 6112c130 0df041c3 ff400010 090186e9  a..0..A..@......
 40215de0 ff700010 80b24162 02c28090 14604241  .p....Ab.....`BA
 40215df0 60501459 2157a901 99210901 29111cc5  `P.Y!W...!..)...
 40215e00 50441050 bb10472b 016d0860 8224513a  PD.P..G+.m.`.$Q:
 40215e10 ce898157 13232d0c 4134b105 9eff0801  ...W.#-.A4......
 40215e20 dc622d0c 38114131 b132232f c59cff41  .b-.8.A1.2#/...A
 40215e30 abff0801 40401020 04832821 6881522e  ....@@. ..(!h.R.
 40215e40 b8c6c8ff 12c1f02c d409011c a0424200  .......,.....BB.
 40215e50 0242012b 2205e9ff 080112c1 100df000  .B.+"...........
 40215e60 4cc452af 900c061c e782afdd 12c1f009  L.R.............
 40215e70 01824200 72420162 42025242 033c3042  ..B.rB.bB.RB.<0B
 40215e80 42040242 056b2205 e6ff0801 12c1100d  B..B.k".........
 40215e90 f0000000 12c1e0f9 510911d9 31c921dd  ........Q...1.!.
 40215ea0 03320300 e941a613 41e2a07e 0c0c2901  .2...A..A..~..).
 40215eb0 da4c4204 01402064 77642a27 2e270c83  .LB..@ dwd*'.'..
 40215ec0 f8017b02 2002b300 03210aff 017fd0c0  ..{. ....!......
 40215ed0 00000c10 00124022 0f000030 a1302220  ......@"...0.0" 
 40215ee0 224f0032 0d001bcc 372cc4c8 21d831e8  "O.2....7,..!.1.
 40215ef0 41f85108 1112c120 0df00000 f013ff3f  A.Q.... .......?
 40215f00 42a01612 c1f00261 00d26102 c911dd03  B......a..a.....
 40215f10 cd020c03 01bdfec0 0000222d 2f0558fe  .........."-/.X.
 40215f20 01f7ff22 4c000220 bc0c82d7 70440c80  ..."L.. ....pD..
 40215f30 224c0122 2d2f2802 17723e0c 12200020  "L."-/(..r>.. . 
 40215f40 024c0132 2d2f0c44 38034040 20303115  .L.2-/.D8.@@ 01.
 40215f50 8c13424c 016b2c32 a0c8420d c5424c02  ..BL.k,2..B..BL.
 40215f60 3a3d05f3 ff080122 cc16d821 c81112c1  :=....."...!....
 40215f70 100df00c 000c0246 edff2772 c20c3286  .......F..'r..2.
 40215f80 eeff0000 12c1f03c d409011c 60424200  .......<....`BB.
 40215f90 0242012b 2285f6ff 080112c1 100df000  .B.+"...........
 40215fa0 4cc452af 900c061c a782afdd 12c1f009  L.R.............
 40215fb0 01824200 72420162 42025242 033c4042  ..B.rB.bB.RB.<@B
 40215fc0 42040242 056b2285 f3ff0801 12c1100d  B..B.k".........
 40215fd0 f0000000 c0ff0000 12c1e052 04020941  ...........R...A
 40215fe0 32040402 04038033 110c0430 002038e2  2......3...0. 8.
 40215ff0 525100a7 630e51c1 ff5225bc 57750542  RQ..c.Q..R%.Wu.B
 40216000 51014601 0062a025 62510132 a0031051  Q.F..b.%bQ.2...Q
 40216010 20425103 42510491 efff0086 94007234   BQ.BQ........r4
 40216020 e07711a0 88119088 100c143c c9907710  .w.........<..w.
 40216030 8077200c 28807720 72510285 67050c02  .w .(.w rQ..g...
 40216040 084112c1 200df000 d0c02240 20722030  .A.. ....."@ r 0
 40216050 832012c1 e0c26104 1c830931 d951e961  . ....a....1.Q.a
 40216060 dd052d01 8921ed04 79110c94 8570fecd  ..-..!..y....p..
 40216070 0216f213 78016821 62470048 011b5459  ....x.h!bG.H..TY
 40216080 01e24401 2801021d 001b3239 01024201  ..D.(.....29..B.
 40216090 38011b03 0901661e 16421d01 42430122  8.....f..B..BC."
 402160a0 1d014801 20284122 44010801 2b000901  ..H. (A"D...+...
 402160b0 b2a001a2 1d02a240 00921d02 a2210090  .......@.....!..
 402160c0 9841924a 01a1c0bb 92a01878 01621d03  .A.J.......x.b..
 402160d0 2b878901 62470252 1d036801 50584152  +...bG.R..h.PXAR
 402160e0 46010c75 38011c06 2b030901 dc5e421d  F..u8...+....^B.
 402160f0 04424302 221d0448 01202841 22440108  .BC."..H. (A"D..
 40216100 012b0009 01e2a08f 381cd160 b7888c28  .+......8..`...(
 40216110 4d480838 13407054 3030c092 5c0a32c3  MH.8.@pT00..\.2.
 40216120 e8404641 60042032 5c0b9208 06a00011  .@FA`. 2\.......
 40216130 007720e0 99109248 06488c79 08320404  .w ....H.H.y.2..
 40216140 62a0f060 33105033 20581132 44045022  b..`3.P3 X.2D.P"
 40216150 c0202b93 b88cc020 0092a0fd 208004a2  . +.... .... ...
 40216160 2a80e20b 0002a0fe 00ee10e2 4b00788c  *...........K.x.
 40216170 a94b6207 00f08811 90661080 66206247  .Kb......f..f bG
 40216180 0052251e 52150d08 8c8cd548 0077e409  .R%.R......H.w..
 40216190 455dfd29 6c088c46 010052a0 00526c06  E].)l..F..R..Rl.
 402161a0 c03c2028 1142a0d0 620d7d62 400805cb  .< (.B..b.}b@...
 402161b0 00860200 21a5ff01 37b7c000 000c12c8  ....!...7.......
 402161c0 41d851e8 61083112 c1200df0 12c1f009  A.Q.a.1.. ......
 402161d0 11080202 00313901 47e00e39 01ace32d  .....19.G..9...-
 402161e0 0301d0b9 c0000006 090022a0 0332130b  .........."..2..
 402161f0 42a00285 aa095221 000c0368 154d0268  B.....R!...h.M.h
 40216200 16691229 0559421c c20180f0 c0000008  .i.).YB.........
 40216210 1112c110 0df00000 80f30000 81370000  .............7..
 40216220 f8ff0000 12c1d0c9 a10991cd 02eb0507  ................
 40216230 b40a01bc b9c00000 0c0c0631 004d052d  ...........1.M.-
 40216240 0101d8b7 c0000038 1c081322 a0aa4200  .......8..."..B.
 40216250 00520001 27942f27 952c6200 02663626  .R..'./'.,b..f6&
 40216260 720003ec 07820004 dcb89200 05dc69a1  r.............i.
 40216270 eaff4200 07520006 80441150 4420a714  ..B..R...D.PD ..
 40216280 0551e6ff 57941362 1c0b7813 7981eb66  .Q..W..b..x.y..f
 40216290 72c7f279 13625c0b 06080040 8841a1e0  r..y.b\....@.A..
 402162a0 ff921c0b 8b20b2c0 fab98129 13b913aa  ..... .....)....
 402162b0 99eb9992 5c0b4240 06824007 02010100  ....\.B@..@.....
 402162c0 0014ac20 26104566 20372881 4b310c64  ... &.Ef 7(.K1.d
 402162d0 01b5b7c0 000032c1 1028810c 646b2201  ......2..(..dk".
 402162e0 b1b7c000 00460600 28814b31 0c6401ad  .....F..(.K1.d..
 402162f0 b7c00000 ab312881 0c646b22 01aab7c0  .....1(..dk"....
 40216300 00002d0c 0891c8a1 12c1300d f0288132  ..-.......0..(.2
 40216310 c1100c64 01a4b7c0 0000ab31 28810c64  ...d.......1(..d
 40216320 6b2201a0 b7c00000 86f5ff00 12c1f009  k"..............
 40216330 01e931d9 21c911dd 04cd02ed 0322c247  ..1.!........".G
 40216340 0c031c04 019bb7c0 00002b3e 22cc4842  ..........+>".HB
 40216350 0e01424c 470193b7 c00000ac 8d020c47  ..BLG..........G
 40216360 e20d010a 2ea6b207 0cfe00ee c0e0e074  ...............t
 40216370 2b3d4d0e ca2022c2 48018ab7 c0000032  +=M.. ".H......2
 40216380 0c47ea33 324c470c 02c811d8 21e83108  .G.32LG.....!.1.
 40216390 0112c110 0df00000 12c1f029 01222211  ...........)."".
 402163a0 0911ccc2 22a08001 49b0c000 00080122  ...."...I......"
 402163b0 60110811 0c132023 9312c110 0df00000  `..... #........
 402163c0 0050f202 00904c33 00904c34 12c1e002  .P....L3..L4....
 402163d0 6101c261 02f26105 e941d931 ed02d812  a..a..a..A.1....
 402163e0 f2120bd8 1dcd03da fff2cf18 d05fc002  ............._..
 402163f0 c5e8e6a0 02468c00 2d035901 4c8301d1  .....F..-.Y.L...
 40216400 b6c00000 52cd1842 1d10425c 03321d11  ....R..B..B\.2..
 40216410 596cd2cd 24288e32 5c012822 0508fed9  Yl..$(.2\.("....
 40216420 3c62a0dd 224c0178 01203074 324c0072  <b.."L.x. 0t2L.r
 40216430 c7dc794c e6270206 7d0081e1 ff3c2a2c  ..yL.'..}....<*,
 40216440 db9161b9 d02fc002 0d017d0d 2b4047a2  ..a../....}.+@G.
 40216450 02467500 220d002c 05e6c202 065e0027  .Fu."..,.....^.'
 40216460 a50da7a2 02c64f00 272a11d9 ac020701  ......O.'*......
 40216470 7ad02bdd d02fc0e6 22cc466c 0067a202  z.+../..".Fl.g..
 40216480 06460027 26e90c02 b6402552 0d03420d  .F.'&....@%R..B.
 40216490 02805511 d20d0550 44205207 0480dd01  ..U....PD R.....
 402164a0 005511d0 55205044 2051f8fa 5794010c  .U..U PD Q..W...
 402164b0 128c6279 cc020701 06edff0c 02b66028  ..by..........`(
 402164c0 52070542 0703d207 02804411 40dd2042  R..B......D.@. B
 402164d0 07048055 01004411 50442040 dd20879d  ...U..D.PD @. ..
 402164e0 07520706 6615010c 12ece20c 02b66028  .R..f.........`(
 402164f0 52070542 0703d207 02804411 40dd2042  R..B......D.@. B
 40216500 07048055 01004411 50442040 dd20879d  ...U..D.PD @. ..
 40216510 07d20706 0c15d025 838c3279 ec06e5ff  .......%..2y....
 40216520 2229cd20 2c051662 f40c02b6 4025d207  "). ,..b....@%..
 40216530 05520703 42070280 55115044 20520704  .R..B...U.PD R..
 40216540 80dd0100 5511d055 20504420 519eff57  ....U..U PD Q..W
 40216550 94010c12 8cb2d8fc 564df179 fc020701  ........VM.y....
 40216560 06c3ff0c 02b64025 d2070552 07034207  ......@%...R..B.
 40216570 02805511 50442052 070480dd 01005511  ..U.PD R......U.
 40216580 d0552050 44205190 ff579401 0c1216e2  .U PD Q..W......
 40216590 edd22c10 568ded79 fc06c6ff 42c2c356  ..,.V..y....B..V
 402165a0 d4ecd26c 1006b1ff b7221227 2b04d9fc  ...l.....".'+...
 402165b0 46aeff52 c2d05665 ebd9dc86 abffd2c2  F..R..Ve........
 402165c0 d656bdea 0b205662 ea420702 52a10050  .V... Vb.B..R..P
 402165d0 4420425c 0206a5ff a6422ce6 520286a3  D B\.....B,.R...
 402165e0 ffa66210 e6720246 a1ffd2c2 f956fde7  ..b..r.F.....V..
 402165f0 797cc69d ff42c2fb 5644e7d9 5c584e50  y|...B..VD..\XNP
 40216600 5dc0524c 080699ff a61216e6 2204d99c  ].RL........"...
 40216610 4696ffd2 c2fd566d e5320702 324c0086  F.....Vm.2..2L..
 40216620 92ff56a2 e4d98c86 90ff0c12 86210008  ..V..........!..
 40216630 9c78ac16 e008e200 01b6be02 4621000c  .x..........F!..
 40216640 029c309c 17420701 5200010c ff50ffc0  ..0..B..R....P..
 40216650 47af040c 47702220 0c87088c a20c018c  G...Gp" ........
 40216660 60920001 2c0897b8 02702220 087c371a  `...,....p" .|7.
 40216670 042c0bb0 22200c03 8c60d200 01f63d01  .,.." ...`....=.
 40216680 397c08fc 1ca89c30 e200011c e4520000  9|.....0.....R..
 40216690 fd086055 c050f483 f7be0139 fc022c10  ..`U.P.....9..,.
 402166a0 1c699c00 a2000072 000160aa c0a09883  .i.....r..`.....
 402166b0 97b70232 6c10c821 d831e841 f8510811  ...2l..!.1.A.Q..
 402166c0 12c1200d f00c2286 ddff0000 0050f200  .. ..."......P..
 402166d0 0050f204 0050f205 41fdff72 02036202  .P...P..A..r..b.
 402166e0 01520200 80661160 55206202 02807701  .R...f.`U b...w.
 402166f0 00661170 66206025 20471231 7164fa81  .f.pf `% G.1qd..
 40216700 30ff7712 1d871229 91f2ffa1 f2ff9712  0.w....)........
 40216710 24a71203 2c020df0 8c330cdb b243000c  $...,....3...C..
 40216720 620df016 83ff0c52 22430006 fcff0c02  b......R"C......
 40216730 0df00c12 0df00c32 0df00000 31e4ff62  .......2....1..b
 40216740 02035202 01420200 80551150 44205202  ..R..B...U.PD R.
 40216750 02806601 00551160 55205024 2037120b  ..f..U.`U P$ 7..
 40216760 614bfa71 17ff6712 0a771203 0c020df0  aK.q..g..w......
 40216770 0c220df0 0c120df0 000fac00 000fac01  ."..............
 40216780 000fac02 000fac03 000fac04 000fac05  ................
 40216790 41faff72 02036202 01520200 80661160  A..r..b..R...f.`
 402167a0 55206202 02807701 00661170 66206025  U b...w..f.pf `%
 402167b0 20471237 71f2ff81 f2ff7712 2387122f   G.7q.....w.#../
 402167c0 91f1ffa1 f1ff9712 2aa7122b b1f0ffb7  ........*..+....
 402167d0 12032c02 0df08c33 0cd22243 000c620d  ..,....3.."C..b.
 402167e0 f01683ff 0c544243 0006fcff 0c020df0  .....TBC........
 402167f0 0c120df0 0c220df0 0c320df0 31dfff62  ....."...2..1..b
 40216800 02035202 01420200 80551150 44205202  ..R..B...U.PD R.
 40216810 02806601 00551160 55205024 2037120b  ..f..U.`U P$ 7..
 40216820 61d7ff71 d7ff6712 0a771203 0c020df0  a..q..g..w......
 40216830 0c220df0 0c120df0 5c13ff3f 0c0512c1  ."......\..?....
 40216840 e0096152 410008c2 9c500941 32000722  ..aRA....P.A2.."
 40216850 00068033 11302220 00221120 20312612  ...3.0" .".  1&.
 40216860 102d0506 01009630 0e0c1208 6112c120  .-.....0....a.. 
 40216870 0df03d01 8b200c34 62000151 efff5951  ..=.. .4b..Q..YQ
 40216880 62c6fa69 11424580 c5e4ff0c 05684108  b..i.BE......hA.
 40216890 11785102 c0fa2247 8472060d 62060c80  .xQ..."G.r..b...
 402168a0 77117066 206060f4 bc805931 69710911  w.pf ``...Y1iq..
 402168b0 5080f467 b82d3841 28313022 a0eb223d  P..g.-8A(10".."=
 402168c0 0145e1ff 08516871 02008258 318c1066  .E...Qhq...X1..f
 402168d0 10043851 22438208 111b4540 507402c0  ..8Q"C....E@Pt..
 402168e0 fcc6f0ff a610650c 05784102 c0fe7066  ......e..xA...pf
 402168f0 a022c610 72060f62 060e8077 11706620  ."..r..b...w.pf 
 40216900 6060f416 f0f56971 59312921 09115090  ``....iqY1)!..P.
 40216910 f4673902 86d3ff28 2105e2ff 661209b8  .g9....(!...f...
 40216920 510c2aa2 4b818603 00282105 e1ff6622  Q.*.K....(!...f"
 40216930 0628510c 30024281 68715831 28210811  .(Q.0.B.hqX1(!..
 40216940 4b2202c0 fc1b3530 507446ed ff0c0206  K"....50PtF.....
 40216950 c6ff0000 0c0412c1 e0d941e9 51f961c9  ..........A.Q.a.
 40216960 31424100 c8d20921 9c9c520c 01220c03  1BA....!..R.."..
 40216970 a6951102 0c028022 11200020 00001100  .......". . ....
 40216980 00312610 1b2d04c6 0100e62d 02862e00  .1&..-.....-....
 40216990 0c12c831 d841e851 f8610821 12c1200d  ...1.A.Q.a.!.. .
 402169a0 f04b2cf1 a5ff0c33 5971324f 803d0105  .K,....3Yq2O.=..
 402169b0 deff0c0e d871224f 84420c08 520c09d2  .....q"O.B..R...
 402169c0 cdf8abcc 80551150 44204040 f4491128  .....U.PD @@.I.(
 402169d0 11e000f4 27b0209c dd2d0c3d 0105dbff  ....'. ..-.=....
 402169e0 d2cdfc02 0f824bcc 8c106610 02224f82  ......K...f.."O.
 402169f0 1beee0e0 7486f5ff a61d4f0c 0ed2cdfe  ....t.....O.....
 40216a00 020c0022 0c012bcc 80221120 00200000  ..."..+..". . ..
 40216a10 f4091116 3df76811 e050f467 350206da  ....=.h..P.g5...
 40216a20 ff2d0c85 ddff6612 070c4772 4f810603  .-....f...GrO...
 40216a30 002d0c85 dcff6622 040c5882 4f814bcc  .-....f"..X.O.K.
 40216a40 d2cdfc1b eee0e074 c6f1ff0c 0246d0ff  .......t.....F..
 40216a50 48132213 0b38143a 2222c218 3022c022  H."..8.:""..0"."
 40216a60 c2e8b622 1c520318 26351a66 750a3203  ...".R..&5.fu.2.
 40216a70 19ac3366 1302b632 080c020d f00c8527  ..3f...2.......'
 40216a80 35f67cf2 0df03203 191603ff 26130e66  5.|...2.....&..f
 40216a90 23e6b662 ec06f8ff b632e686 f6ff0c86  #..b.....2......
 40216aa0 27b6de86 f4ff0000 0c020df0 8e880000  '...............
 40216ab0 12c1e0c9 51e971d9 61d87209 4108bded  ....Q.q.a.r.A...
 40216ac0 0302c0fb 56600a16 330a281e 322d2c29  ....V`..3.(.2-,)
 40216ad0 21cc43c2 2d1e8601 002921c5 8704cd02  !.C.-....)!.....
 40216ae0 16ac0842 1c0dcc64 582c1775 02461f00  ...B...dX,.u.F..
 40216af0 2d0c0c16 98210c03 82090d92 090c8088  -....!..........
 40216b00 11908820 80787480 80748088 11807720  ... .xt..t....w 
 40216b10 81e7ff70 70f48077 c0703683 3911c50b  ...pp..w.p6.9...
 40216b20 01169204 c26d1e2d 0c3d0ec5 81000c13  .....m.-.=......
 40216b30 29010c04 2d0e010f f7c00000 3d02acc2  )...-.......=...
 40216b40 0c45a811 0c809cba 28824802 40664140  .E......(.H.@fA@
 40216b50 40545066 20a06611 60442049 02b22d2c  @TPf .f.`D I..-,
 40216b60 cc1b0242 0e2d0dc5 53005801 ccd20c12  ...B.-..S.X.....
 40216b70 c851d861 e8710841 12c1200d f029310c  .Q.a.q.A.. ..)1.
 40216b80 8b0c1378 8281c1b4 a8076848 a09054d0  ...x......hH..T.
 40216b90 66c06063 93a0a641 b0aa2032 a08fb207  f.`c...A.. 2....
 40216ba0 06a0aa11 a0992030 bb109907 503024c0  ...... 0....P0$.
 40216bb0 331130bb 20cc360c 00860000 021c0d32  3.0. .6........2
 40216bc0 a0f0a831 b2470698 8a9c3566 15040c55  ...1.G....5f...U
 40216bd0 c6030072 c5fd0c14 0c057054 83860000  ...r......pT....
 40216be0 52a00682 090450b0 34308810 b0882082  R.....P.40.... .
 40216bf0 490471f5 b852a000 388ac020 0042a0fe  I.q..R..8.. .B..
 40216c00 b2030072 27807943 40bb10b2 430032a0  ...r'.yC@...C.2.
 40216c10 fda88a60 b004920a 00f0bb11 309910b0  ...`........0...
 40216c20 9920924a 00821c0d 16880e48 31488448  . .J.......H1H.H
 40216c30 04404704 56c40d00 2074c5b2 fc0c0568  .@G.V... t.....h
 40216c40 31a2160b 92160a29 66aa9988 16a2a080  1......)f.......
 40216c50 c0200072 08037070 64a07720 c0200072  . .r..ppd.w . .r
 40216c60 480342a0 bf4c03c0 20000208 03400010  H.B..L.. ....@..
 40216c70 300020c0 20000248 03b2a0df c02000a2  0. . ..H..... ..
 40216c80 0803b0aa 1050aa20 c02000a2 48039090  .....P. . ..H...
 40216c90 b4409911 a1f3ecc0 20007218 01007711  .@...... .r...w.
 40216ca0 c02000b2 1800b077 20a07710 907720c0  . .....w .w..w .
 40216cb0 20007258 007070f5 c0200068 86680672   .rX.pp.. .h.h.r
 40216cc0 580187e6 042d0e85 2609b22c 02476b13  X....-..&..,.Gk.
 40216cd0 e22d2c66 1e0dc02c 20322103 856b010c  .-,f..., 2!..k..
 40216ce0 02c6a2ff 45470316 82002221 0345dcfb  ....EG...."!.E..
 40216cf0 4605000c 020c0648 313164b4 02c41c52  F......H11d....R
 40216d00 23756974 49050263 758cc280 22012028  #uitI..cu...". (
 40216d10 31c696ff 2d0546c9 ff31f4aa c0200041  1...-.F..1... .A
 40216d20 5bb43893 32645906 edff0000 0c1912c1  [.8.2dY.........
 40216d30 d05911c9 31f96109 213981e9 51d941ed  .Y..1.a.!9..Q.A.
 40216d40 07dd020c c3303410 020db0f8 812d0682  .....04......-..
 40216d50 2d1e8971 2901c84f 80700142 4c007048  -..q)..O.p.BL.pH
 40216d60 31668332 16300c66 145d4b2c 0c243d0e  1f.2.0.f.]K,.$=.
 40216d70 424c010c 64010bb5 c00000ab 2c0c6438  BL..d.......,.d8
 40216d80 c10108b5 c0000038 0122cc10 0c640105  .......8."...d..
 40216d90 b5c00000 060c00cc 30422d1f 49714b2c  ........0B-.IqK,
 40216da0 3d0e0c64 0c05524c 0101feb4 c0000038  =..d..RL.......8
 40216db0 01ab2c0c 6401fbb4 c0000022 cc100c64  ..,.d......"...d
 40216dc0 38c101f8 b4c00000 0c04425c 019c3d88  8.........B\..=.
 40216dd0 71781180 77905217 3e1b6562 573ec055  qx..w.R.>.ebW>.U
 40216de0 11525c0b 088f920e 00f86107 6926c2a4  .R\.......a.i&..
 40216df0 00d8000c 2ed0b054 d0d641e0 dd20a0dd  .......T..A.. ..
 40216e00 11d0bb20 b0a054b0 b641c0bb 20a0bb11  ... ..T..A.. ...
 40216e10 b0aa20a9 00c831e1 1db4d841 e20e7de2  .. ...1....A..}.
 40216e20 4008e851 082112c1 300df008 71cc3022  @..Q.!..0...q.0"
 40216e30 2d1f2971 924c0138 c14b2c0c 6401d9b4  -.)q.L.8.K,.d...
 40216e40 c0000038 01ab2c0c 6401d6b4 c0000022  ...8..,.d......"
 40216e50 cc103d0e 0c6401d3 b4c00000 06daff00  ..=..d..........
 40216e60 4c0912c1 e082a080 68027222 1ec96109  L.......h.r"..a.
 40216e70 51cd0332 130b021c 0ab81c3a 00c02000  Q..2.......:.. .
 40216e80 520b0350 50648055 20c02000 524b0332  R..PPd.U . .RK.2
 40216e90 a0bfc020 00820b03 30881090 8820c020  ... ....0.... . 
 40216ea0 00824b03 52a0dfc0 2000320b 03503310  ..K.R... .2..P3.
 40216eb0 c0200032 4b030000 b43169ec 400011c0  . .2K....1i.@...
 40216ec0 2000821b 01008811 c0200052 1b005088   ........ .R..P.
 40216ed0 20308810 008820c0 2000825b 008080f5   0.... . ..[....
 40216ee0 c0200062 c62b0222 2c384c39 41825b01  . .b.+.",8L9A.[.
 40216ef0 cca07901 3d0c1c05 05e3ff86 0500815f  ..y.=.........._
 40216f00 f952170d 87850272 c2306261 00c03c20  .R.....r.0ba..< 
 40216f10 1c0585e1 ff988cb8 4198094c 00676908  ........A..L.gi.
 40216f20 a20b0100 aa20a24b 01052303 8c622d0c  ..... .K..#..b-.
 40216f30 05b8fbc6 04000c02 32cc1c41 d4b30c06  ........2..A....
 40216f40 52247569 7cc90532 6475c861 085112c1  R$ui|..2du.a.Q..
 40216f50 200df000 0df00000 32a01852 a04212c1   .......2..R.B..
 40216f60 d0c26108 f9b10971 d991e9a1 d2221eed  ..a....q....."..
 40216f70 02080e09 51482d1c a2504410 40329339  ....QH-..PD.@2.9
 40216f80 6122c110 0c044941 c57efdcd 02cc320c  a"....IA.~....2.
 40216f90 12063d00 f8426851 882d7861 72520a62  ..=..BhQ.-xarR.b
 40216fa0 c62b72ce 30176822 d9012d0e 3d0c42a0  .+r.0.h"..-.=.B.
 40216fb0 c80c0585 d7ff0c02 224f1882 0d692c00  ........"O...i,.
 40216fc0 8c18024f 18224f19 860300d9 012d0e3d  ...O."O......-.=
 40216fd0 0c4c841c 0545d5ff 2c001c03 982d41ab  .L...E..,....-A.
 40216fe0 b3476908 a20f0130 aa20a24f 010c0f0c  .Gi....0. .O....
 40216ff0 1b788c28 44620706 e022c020 2b93cc32  .x.(Db...". +..2
 40217000 0c038600 00321d0d 82a08f80 66100066  .....2......f..f
 40217010 20624706 422c08e2 040452a0 f050ee10   bG.B,....R..P..
 40217020 e24404b1 e9b7988c c02000b2 2b80a2a0  .D....... ..+...
 40217030 fe207004 820900f0 7711a088 10824900  . p.....w.....I.
 40217040 688cb949 52060082 a0fd8055 10705520  h..IR......U.pU 
 40217050 52460042 1d0d2d0f 16c40398 8c980977  RF.B..-........w
 40217060 e9353020 740570fc 296c050f 038c622d  .50 t.p.)l....b-
 40217070 0c05a4fb 4604000c 02b184b3 a2cc1cd2  ....F...........
 40217080 2b75f97c c90da26b 75c881d8 91e8a1f8  +u.|...ku.......
 40217090 b1087112 c1300df0 06f3ff00 f2ff0000  ..q..0..........
 402170a0 e8ff0000 0ce412c1 c029d109 51c991e9  .........)..Q...
 402170b0 b1f9c1d9 a1fd02d2 221ee202 b0cd0308  ........".......
 402170c0 02094138 1380ee01 3813e0e8 312d0101  ..A8....8...1-..
 402170d0 35b4c000 000c2761 f1ff381c 421c0b58  5.....'a..8.B..X
 402170e0 136a44eb 55591342 5c0b0c04 661e1a92  .jD.UY.B\...f...
 402170f0 01000769 14b88c08 0b00a054 00064170  ...i.......T..Ap
 40217100 0020a000 1100aa20 a90b0c00 b2afaa1c  . ..... ........
 40217110 a91c8849 81282d42 a0aa1762 0a588c58  ...I.(-B...b.X.X
 40217120 050c1687 e5016981 0c35a881 621c0ba0  ......i..5..b...
 40217130 89938b66 a813825c 0a22caf8 2913a2ca  ...f...\."..)...
 40217140 fe625c0b 0c86b242 01424200 52420202  .b\....B.BB.RB..
 40217150 42030242 04024205 882d9211 06924a00  B..B..B..-....J.
 40217160 90984192 4a010768 1fb8ef47 6b1a288c  ..A.J..h...Gk.(.
 40217170 28028762 5e381c48 13c02000 42040e0c  (..b^8.H.. .B...
 40217180 0537644f 5971c600 00097138 1c21c4ff  .7dOYq....q8.!..
 40217190 a21c0bb8 13a2ca18 2aaab2cb e8b913b9  ........*.......
 402171a0 4c981399 61a25c0b 62490002 5901bc9e  L...a.\.bI..Y...
 402171b0 0b2e16c2 138c8c2d 0c0c1301 23f4c000  .......-....#...
 402171c0 000c0c08 51d8a1e8 b12d0cf8 c1c89112  ....Q....-......
 402171d0 c1400df0 f02f20c0 3c20854d fd02a000  .@.../ .< .M....
 402171e0 0c860c27 2971381c 46e8ff0c 0e28610c  ...')q8.F....(a.
 402171f0 130c6432 42014b22 3d0d01ea b3c00000  ..d2B.K"=.......
 40217200 6b312861 0c64ab22 01e7b3c0 00003d01  k1(a.d."......=.
 40217210 28610c64 22c21001 e3b3c000 00388c2c  (a.d"........8.,
 40217220 06380382 a0806773 0a586142 05016044  .8....gs.XaB..`D
 40217230 20424501 588116e5 0f088c02 00060004   BE.X...........
 40217240 249c3066 10040c53 86030042 c0fd0c12  $.0f...S...B....
 40217250 0c034032 83460000 0c630050 90d05590  ..@2.F...c.P..U.
 40217260 30003402 4e005205 5d8c4560 7020724e  0.4.N.R.].E`p rN
 40217270 000861e2 4e01b200 00d0a390 80bb20b2  ..a.N......... .
 40217280 4000321a 3e1b9392 5a3e92a0 f0d871c0  @.2.>...Z>....q.
 40217290 e3110861 31feb2e2 500b16fd 080c16b8  ...a1...P.......
 402172a0 617871a2 0b014c0d d0aa20a2 4b01088c  axq...L... .K...
 402172b0 28535800 72170050 40545056 41605520  (SX.r..P@TPVA`U 
 402172c0 a0551150 44204900 f7925c80 57204871  .U.PD I...\.W Hq
 402172d0 52400c42 24262200 0d480490 22104040  R@.B$&"..H..".@@
 402172e0 34402220 22400d68 8c52037c 52460806  4@" "@.h.R.|RF..
 402172f0 b4ffe841 3d012861 0c647242 014b2201  ...A=.(a.drB.K".
 40217300 a9b3c000 0032ce2b 28610c64 ab2201a5  .....2.+(a.d."..
 40217310 b3c00000 0c0e6b31 28610c64 22c21001  ......k1(a.d"...
 40217320 a1b3c000 0006bdff 5d0706e8 ff088c22  ........]......"
 40217330 000d9022 10c6eaff 321d4e1b 43425d4e  ..."....2.N.CB]N
 40217340 86d1ff00 1c86fe3f 68134146 f652060d  .......?h.AF.R..
 40217350 72060c80 55117035 20479304 0c038601  r...U.p5 G......
 40217360 00782217 e7050c23 2d030df0 66831752  .x"....#-...f..R
 40217370 060e5055 41acf526 352db635 250c13b6  ..PUA..&5-.5%...
 40217380 65060c03 4600000c 2351eeff 2633d830  e...F...#Q..&3.0
 40217390 63902066 90620658 16c6fc5a 33320300  c. f.b.X...Z32..
 402173a0 06faff0c 3306f8ff 0c23c6f6 ff000000  ....3....#......
 402173b0 12c1f0d9 21c91109 01cd020c 10024200  ....!.........B.
 402173c0 0203000c 8d072d01 dd00d24c 011b332b  ......-....L..3+
 402173d0 2c4d0d01 74b3c000 00ca2d08 01c811d8  ,M..t.....-.....
 402173e0 212b2212 c1100df0 12c1f0c9 210911cd  !+".........!...
 402173f0 02020300 0c8207b2 1c9b332b 2c3c2542  ..........3+,<%B
 40217400 c0f84901 524c0042 4c010166 b3c00000  ..I.RL.BL..f....
 40217410 0801cac0 2bcc2d0c 0811c821 12c1100d  ....+.-....!....
 40217420 f0000000 12c1f042 42010901 d921c911  .......BB....!..
 40217430 dd02cd04 0c000242 008c642b 220159b3  .......B..d+".Y.
 40217440 c00000ca 2d0801c8 11d8212b 2212c110  ....-.....!+"...
 40217450 0df00000 0c152ca4 42420052 42015873  ......,.BB.RB.Xs
 40217460 0c234775 02460000 0c035775 040c4660  .#Gu.F....Wu..F`
 40217470 33203242 023b220d f0000000 f0c02240  3 2B.;"......."@
 40217480 f011ff3f 12c1c0c9 d1399159 71696179  ...?.....9.Yqiay
 40217490 5109c101 7eb24981 22205a98 40cc323c  Q...~.I." Z.@.2<
 402174a0 54460100 42120042 c43522c1 1032a018  TF..B..B.5"..2..
 402174b0 92610b45 2cfd20c2 20dcc221 74b22222  .a.E,. . ..!t.""
 402174c0 5a0c03cc 12860000 32120021 ecff0171  Z.......2..!...q
 402174d0 b2c00000 0c12464f 0032a018 42210532  ......FO.2..B!.2
 402174e0 520a2221 043861c5 f3ff2941 31e5ff39  R."!.8a...)A1..9
 402174f0 a1c5ebff 294138a1 c5eeff82 1c0a2941  ....)A8.......)A
 40217500 781c0c04 981749e1 9a989092 c0925c0b  x.....I.......\.
 40217510 32a0809a 88c02000 22070320 20643022  2..... ."..  d0"
 40217520 20c02000 22470302 a0bf4c04 c02000b2   . ."G....L.. ..
 40217530 070300bb 1040bb20 c02000b2 4703a2a0  .....@. . ..G...
 40217540 dfc02000 920703a0 9910c020 00924703  .. ........ ..G.
 40217550 8080b440 881191c2 eac02000 62170100  ...@...... .b...
 40217560 6611c020 00a21700 a0662090 66108066  f.. .....f .f..f
 40217570 20c02000 62570060 60f5c020 0028b13d   . .bW.``.. .(.=
 40217580 0c625701 58716891 78815901 1c05c579  .bW.Xqh.x.Y....y
 40217590 ff0c771c 03a88c42 a08fb80a 220a06b0  ..w....B...."...
 402175a0 90544022 10b0b641 224a0668 8c30bb20  .T@"...A"J.h.0. 
 402175b0 a0bb11b0 9920990a 52060482 a0f08055  ..... ..R......U
 402175c0 10705520 52460408 e1417fb6 588cc020  .pU RF...A..X.. 
 402175d0 00422480 62050072 a0fe7066 10624500  .B$.b..r..pf.bE.
 402175e0 288c4945 b2020032 a0fd30bb 10b24200  (.IE...2..0...B.
 402175f0 288ca802 776a280c 15620140 7124b209  (...wj(..b.@q$..
 40217600 6c72077d 00164000 55a17242 0852420e  lr.}..@.U.rB.RB.
 40217610 2d0c054a fb0c02c8 d108c112 c1400df0  -..J.........@..
 40217620 22a00045 14fc2002 20222c08 c6f1ff00  "..E.. . ",.....
 40217630 1c072802 5116b20c 1358550c 0462252c  ..(.Q....XU..b%,
 40217640 58e50b66 60438347 65057044 204040f4  X..f`C.Ge.pD @@.
 40217650 27750a77 62072c06 60442040 40f462a4  'u.wb.,.`D @@.b.
 40217660 00a76505 60442040 40f462a1 00876208  ..e.`D @@.b...b.
 40217670 e7750560 44204040 f42d040d f0000000  .u.`D @@.-......
 40217680 5e13ff3f 10800000 10c12240 82a0c0a1  ^..?......"@....
 40217690 fcff92a0 18617aff 40742012 c1a0d261  .....az.@t ....a
 402176a0 0e09c10c 24f26110 e9f1c9d1 ed02cd03  ....$.a.........
 402176b0 f2c6d432 221e3261 12164c0c 52ccf016  ...2".2a..L.R...
 402176c0 950eb2cc e0168b0b d2ccd016 dd0d02a0  ................
 402176d0 a0000cc0 16e04c22 a0b0202c c016c23a  ......L".. ,...:
 402176e0 879c553d 092d0179 21c508fd dd021672  ..U=.-.y!......r
 402176f0 06c26115 0c256821 42211232 2e207801  ..a..%h!B!.2. x.
 40217700 1c888252 0a4033c0 62570052 520b16e3  ...R.@3.bW.RR...
 40217710 17a22112 c2611598 2a7cebb0 9910992a  ..!..a..*|.....*
 40217720 065b0002 10004042 8032a018 1021204a  .[....@B.2...! J
 40217730 404504fd dd025642 1d9ccd08 8d0c4308  @E....VB......C.
 40217740 000c5247 7002c601 00381100 45054032  ..RGp....8..E.@2
 40217750 932d0d01 bdf2c000 000c1286 04000c05  .-..............
 40217760 596d4d0c 3d0d2d0e 620f7d62 4008056f  YmM.=.-.b.}b@..o
 40217770 ffc8d1d8 e1e8f1f2 211008c1 12c1600d  ........!.....`.
 40217780 f0022f5d cc4022a0 a4c60100 22100032  ../].@"....."..2
 40217790 a0a43a22 022f5ecc 300c0486 00004210  ..:"./^.0.....B.
 402177a0 00022f5b 56b0f70c 0046deff 022f5ccc  ../[V....F.../\.
 402177b0 4042a06f 46010042 100042c4 6f102120  @B.oF..B..B.o.! 
 402177c0 1c837921 05fbfc29 b1dd0216 a2f63125  ..y!...)......1%
 402177d0 b81c8442 520a2203 9d32039d 302290f0  ...BR."..2..0"..
 402177e0 22a022c2 7885e4ff 08015821 22500052  ".".x.....X!"P.R
 402177f0 50014b20 2901cc75 62211262 160d6250  P.K )..ub!.b..bP
 40217800 02311fff 2b222901 39a145ba ff290138  .1..+").9.E..).8
 40217810 a1c26115 05bdffcd 02022112 32a0c008  ..a.......!.2...
 40217820 20290130 001066d0 1a3d0e85 61fe2901   ).0..f..=..a.).
 40217830 3d0e0575 fe022112 cd020820 290122a0  =..u..!.... ).".
 40217840 c0200010 22a0c027 9013c02c 20e03e20  . .."..'..., .> 
 40217850 c560fe29 013d0e85 74fecd02 2901322f  .`.).=..t...).2/
 40217860 5c39919c 634d032d 0c2b3342 1400014d  \9..cM.-.+3B...M
 40217870 b2c00000 58915215 00cac5c9 0108b168  ....X.R........h
 40217880 1002100a 281638b1 2a20202c c022530b  ....(.8.*  ,."S.
 40217890 c2211581 cdb552a0 07922d08 222f0472  .!....R...-."/.r
 402178a0 0906a2a0 8fa07710 72490648 8d62a0f0  ......w.rI.H.b..
 402178b0 320404e0 22c06033 10503320 3244040c  2...".`3.P3 2D..
 402178c0 19202993 988dc020 00322112 72a0fd20  . ).... .2!.r.. 
 402178d0 60048228 80a20900 b2a0feb0 aa10a249  `..(...........I
 402178e0 00588d89 49420500 f0661170 44106044  .X..IB...f.pD.`D
 402178f0 20424500 32130d08 8d1613e6 b800b0b7   BE.2...........
 40217900 04569be5 05e6fb29 6d088dc6 94ff0c15  .V.....)m.......
 40217910 1c104221 12615aff 1c888252 0a626111  ..B!.aZ....R.ba.
 40217920 287f4224 1e620680 48046005 83277207  (.B$.b..H.`..'r.
 40217930 7764042c 09900020 a2a0c0a7 4405b2a4  wd.,... ....D...
 40217940 80b7c40a 288fe762 0532a400 30002028  ....(..b.2..0. (
 40217950 01322112 2b420252 0032130e 49013252  .2!.+B.R.2..I.2R
 40217960 014b2229 0166cc10 3221120c 64010db2  .K").f..2!..d...
 40217970 c0000028 016b2229 01522111 31fcb742  ...(.k").R!.1..B
 40217980 152e5215 2d004411 50442085 a9ff2261  ..R.-.D.PD ..."a
 40217990 0031bbfe 32610a85 a1ff0221 114d0202  .1..2a.....!.M..
 402179a0 007f2901 26400526 50026670 24022f5e  ..).&@.&P.fp$./^
 402179b0 49719cc0 28714200 032b3039 512b4401  Iq..(qB..+09Q+D.
 402179c0 f9b1c000 00285138 71220201 3a222b22  .....(Q8q"..:"+"
 402179d0 290138a1 c2611505 a1ff2901 422111cd  ).8..a....).B!..
 402179e0 0242d403 42c47f3b 44321401 42140000  .B..B..;D2..B...
 402179f0 33114033 20377310 68ee52a0 c0670508  3.@3 7s.h.R..g..
 40217a00 3d0e0544 fecd0229 01022111 02007f26  =..D...)..!....&
 40217a10 20052630 02666020 022f5d9c a02d0c42   .&0.f` ./]..-.B
 40217a20 00032b30 39612b44 01dfb1c0 00000861  ..+09a+D.......a
 40217a30 020001ca c02bccc9 01322111 32d30332  .....+...2!.2..2
 40217a40 c37f3b33 22130132 13000022 11302220  ..;3"..2...".0" 
 40217a50 c7721258 ee42a0c0 57040a2d 0c3d0e05  .r.X.B..W..-.=..
 40217a60 40fecd02 2901622f 5b69819c 462d0c2b  @...).b/[i..F-.+
 40217a70 36421600 01ccb1c0 00005881 521500ca  6B........X.R...
 40217a80 c5c901d9 b1681d02 1d0a867d ff0c0670  .....h.....}...p
 40217a90 00f42620 02663007 b22e110c 18b06893  ..& .f0.......h.
 40217aa0 0c18cce6 e6300a66 1005d20a 7e262d01  .....0.f....~&-.
 40217ab0 0c088c86 700031cc 301cc346 00001c83  ....p.1.0..F....
 40217ac0 8c967020 31cc4242 a0888600 0042a006  ..p 1.BB.....B..
 40217ad0 10212089 41693179 21c5c9fc 0d02dd02  .! .Ai1y!.......
 40217ae0 1652c538 3148210c 161c8758 4172520a  .R.81H!....XArR.
 40217af0 28015056 93425201 52520040 40314252  (.PV.BR.RR.@@1BR
 40217b00 02166309 02611456 0409322e 1142a080  ..c..a.V..2..B..
 40217b10 81ddfedd 00825203 8b2201a2 b1c00000  ......R.."......
 40217b20 2d0e3d0d a81db2a0 88981ab2 5d0b92c9  -.=.........]...
 40217b30 1c991a05 b8fc321d 0b481d22 61130814  ......2..H."a...
 40217b40 21d2fe02 c0e80914 094d01d2 b0c00000  !........M......
 40217b50 42211308 8d165407 385f2214 0068000c  B!....T.8_"..h..
 40217b60 17605054 60664170 6620a066 11605520  .`PT`fApf .f.`U 
 40217b70 5900e793 0572a080 70222052 a0f02240  Y....r..p" R.."@
 40217b80 0c322426 22000d38 03502210 30303430  .2$&"..8.P".0040
 40217b90 22202240 0dc26115 063dffc2 61150c64  " "@..a..=..a..d
 40217ba0 42500b46 3aff9039 20102120 72610285  BP.F:..9 .! ra..
 40217bb0 bcfcdd02 1612bac2 61150c25 68217801  ........a..%h!x.
 40217bc0 1c888252 0a625700 52520b46 30ff2200  ...R.bW.RR.F0.".
 40217bd0 0d32a0f0 302210c6 edff0000 2202188c  .2..0"......"...
 40217be0 32661205 8c230c12 0df00c02 0df00000  2f...#..........
 40217bf0 80080000 12c1d0e9 71392109 41c951d9  ........q9!.A.Q.
 40217c00 61f981dd 02f2a084 c1c9b001 a0b0620c  a.............b.
 40217c10 8052205b 0b666060 74606690 0066a0fa  .R [.f``t`f..f..
 40217c20 f6f2622f cc350c02 86000022 150032a0  ..b/.5....."..2.
 40217c30 18626101 52ccfb42 05037205 02804411  .ba.R..B..r...D.
 40217c40 70442080 44117205 01520500 70442080  pD .D.r..R..pD .
 40217c50 44115044 20204480 52a0902d 015a4485  D.PD  D.R..-.ZD.
 40217c60 b1fced02 cc320c0e 86450032 a0001c85  .....2...E.2....
 40217c70 0c845252 0a280101 4eb1c000 00680172  ..RR.(..N....h.r
 40217c80 a0642d0f 725604ab 66690145 9aff52cc  .d-.rV..fi.E..R.
 40217c90 fb420503 62050280 44116044 20620501  .B..b...D.`D b..
 40217ca0 80441152 05006044 20804411 50442058  .D.R..`D .D.PD X
 40217cb0 0131c6b8 2255002b 25290185 76ff2901  .1.."U.+%)..v.).
 40217cc0 31f0fd39 31856eff cd025811 61c9ff52  1..91.n...X.a..R
 40217cd0 25212901 6745250c 3aa24200 88010c17  %!).gE%.:.B.....
 40217ce0 1b989901 72480168 012d0f1b 66690105  ....rH.h.-..fi..
 40217cf0 7bfcf801 224f00c8 011bccc9 012d0c38  {..."O.......-.8
 40217d00 31456eff 2901022d 2dcd029c c0086032  1En.)..--.....`2
 40217d10 20149c53 42201501 23b1c000 00c22d2d   ..SB ..#.....--
 40217d20 c86cf801 c22c15fa ccc901f2 2d2ff80f  .l...,......-/..
 40217d30 0821f0f0 259cbf26 101938ed 22a0c037  .!..%..&..8."..7
 40217d40 02112d0c 3d0dc50f fe3d0d29 014523fe  ..-.=....=.).E#.
 40217d50 cd022901 d14eb0d2 2d5b9c2d 2d0c2b3d  ..)..N..-[.--.+=
 40217d60 421d0001 10b1c000 00f21d00 cacfc901  B...............
 40217d70 081e1c82 0810225e 0a000cc0 02c0e802  ......"^........
 40217d80 5e0b0841 c851d861 2d0ef881 e87112c1  ^..A.Q.a-....q..
 40217d90 300df000 6d0312c1 d0c9713d 04d98109  0...m.....q=....
 40217da0 61dd0269 41080209 5185e4ff cd02ec22  a..iA...Q......"
 40217db0 0c12c604 000c0232 cc1c4134 b00c0652  .......2..A4...R
 40217dc0 2475697c c9053264 75c871d8 81086112  $ui|..2du.q...a.
 40217dd0 c1300df0 72a08002 120bb212 0aa8120a  .0..r...........
 40217de0 bbc02000 620a0360 60647066 20c02000  .. .b..``dpf . .
 40217df0 624a034c 0452a0bf c0200032 0a035033  bJ.L.R... .2..P3
 40217e00 10403320 c0200032 4a0322a0 dfc02000  .@3 . .2J."... .
 40217e10 020a0320 0010c020 00024a03 b0b0b401  ... ... ..J.....
 40217e20 90e840bb 11c02000 921a0100 9911c020  ..@... ........ 
 40217e30 00221a00 20992000 9910b099 20c02000  .".. . ..... . .
 40217e40 925a0090 90f5c020 0078412d 0d3d0c5c  .Z..... .xA-.=.\
 40217e50 041c0588 51925a01 82c82b6d 088901c5  ....Q.Z...+m....
 40217e60 ecfe022d 1e488c72 a08f5804 62040650  ...-.H.r..X.b..P
 40217e70 30547066 10505641 624406a8 8c1c0660  0Tpf.PVAbD.....`
 40217e80 5520a055 11503320 3904920a 04b2a0f0  U .U.P3 9.......
 40217e90 b099100c 7bb09920 924a0481 4bb40c26  ....{.. .J..K..&
 40217ea0 988cc020 00822880 a20900b2 a0feb0aa  ... ..(.........
 40217eb0 10a24900 588c8949 42050072 a0fd7044  ..I.X..IB..r..pD
 40217ec0 10604420 42450038 8c38030c 0877e304  .`D BE.8.8...w..
 40217ed0 02100dcc 30896c06 02000020 748588fb  ....0.l.... t...
 40217ee0 226c0685 270216b2 ec2d0c85 bcfac6b5  "l..'....-......
 40217ef0 ff000000 12c1d0f9 71c941e9 61d95109  ........q.A.a.Q.
 40217f00 31291102 a0842d04 dd04ed05 cd03f106  1)....-.........
 40217f10 b00c03f9 8151ddaf f20faf3c 040bfff0  .....Q.....<....
 40217f20 f074f0ff 9050ffa0 0a0f0991 026e2f01  .t...P.......n/.
 40217f30 a0b0c000 002d0c0c 030c8401 9db0c000  .....-..........
 40217f40 0001fbaf 28910210 7f025c04 056eff01  ....(.....\..n..
 40217f50 cfaf0c05 ab4c491d 524c0c38 70225c05  .....LI.RL.8p"\.
 40217f60 b7f32f68 81eb2c72 16168216 15007711  ../h..,r......w.
 40217f70 80772072 4c0d4216 16721615 00441162  .w rL.B..r...D.b
 40217f80 06b17044 20661612 0c030189 b0c00000  ..pD f..........
 40217f90 0604000d 0c524c0d 86060031 0cb80181  .....RL....1....
 40217fa0 b0c00000 22210802 12162212 15000011  ...."!....".....
 40217fb0 200020c0 008022c0 0e3131fd 3921053f   . ..."..11.9!.?
 40217fc0 ffcd0241 0bff322f 21290147 43150c36  ...A..2/!).GC..6
 40217fd0 0c188242 01624200 2891454c fc98013b  ...B.bB.(.EL...;
 40217fe0 c9224902 52a0c0a2 2e2cc93d 661a200c  ."I.R....,.=f. .
 40217ff0 1b0c040c 230c420c 50024c00 224c0132  ....#.B.P.L."L.2
 40218000 4c03424c 02424c04 424c05b2 5d0c6bcc  L.BL.BL.BL..].k.
 40218010 022f21c9 5d574005 62a48067 c00b2d0c  ./!.]W@.b..g..-.
 40218020 c97d319a afc542ff cd02c02c 20322102  .}1...B...., 2!.
 40218030 453bfffd 02022e2d cd029c80 08603220  E;.....-.....`2 
 40218040 149c1342 20150157 b0c00000 c22e2dc8  ...B ..W......-.
 40218050 6cc22c15 faccf22e 2ff80ff0 f0258cef  l.,...../....%..
 40218060 2d0c3d0e c5ddfd3d 0e298d85 f1fdcd02  -.=....=.)......
 40218070 e861f871 2811485d 3812404c c0381342  .a.q(.H]8.@L.8.B
 40218080 5d0d0212 0ad8513a 00000cc0 c8410252  ].....Q:.....A.R
 40218090 0b083112 c1300df0 f888fe3f 417caf30  ..1..0.....?A|.0
 402180a0 a32012c1 d0d26109 32a01809 715802c9  . ....a.2...qX..
 402180b0 81a95142 24a6cd02 596122c1 1052a096  ..QB$...Ya"..R..
 402180c0 5a44456b fcdd02cc 320c0dc6 42004851  ZDEk....2...B.HQ
 402180d0 5d0c3841 1c866252 0a85e1ff 42a08002  ].8A..bR....B...
 402180e0 1d0bb21d 0aa81d0a bbc02000 720a0370  .......... .r..p
 402180f0 70644077 20c02000 724a034c 0562a0bf  pd@w . .rJ.L.b..
 40218100 c0200032 0a036033 10503320 c0200032  . .2..`3.P3 . .2
 40218110 4a0322a0 dfc02000 020a0320 0010c020  J."... .... ... 
 40218120 00024a03 b0b0b401 cee740bb 11c02000  ..J.......@... .
 40218130 921a0100 9911c020 00221a00 20992000  ....... .".. . .
 40218140 9910b099 20c02000 925a0090 90f5c020  .... . ..Z..... 
 40218150 002d0c3d 0d1c0571 d0ff925a 01886192  .-.=...q...Z..a.
 40218160 2c20926c 1e82c82b 6d088901 c5bbfe68  , .l...+m......h
 40218170 8d520606 72a08f70 55105246 06288d0c  .R..r..pU.RF.(..
 40218180 73020204 42a0f040 00103000 20024204  s...B..@..0. .B.
 40218190 c18eb31c 06088dc0 20000c07 0c2ac22c  ........ ....*.,
 402181a0 80220000 32a0fe30 22102240 00988dc9  ."..2..0"."@....
 402181b0 40820900 b2a0fdb0 8810a088 20824900  @........... .I.
 402181c0 488d796d 58046244 0e503054 50564160  H.ymX.bD.P0TPVA`
 402181d0 5520a055 11503320 39040871 2d0dc881  U .U.P3 9..q-...
 402181e0 d89112c1 300df000 1483fe3f 21ffff0d  ....0......?!...
 402181f0 f0000000 e883fe3f 280232a0 c037420a  .......?(.2..7B.
 40218200 42a48047 420421fb ff0df021 f7ff0df0  B..GB.!....!....
 40218210 12c1f0c9 110901cd 02850300 0cc30c30  ...............0
 40218220 0c45211a af0b4c0c 06c81162 427d6242  .E!...L....bB}bB
 40218230 7e52427f 40039302 427c0801 12c1100d  ~RB.@...B|......
 40218240 f0000000 2111af22 22cb0c13 0b222023  ....!..""...." #
 40218250 930df000 41e5ff51 e7ff0b62 60549361  ....A..Q...b`T.a
 40218260 0baf3205 0032462c 9c830c02 6a42c032  ..2..2F,....jB.2
 40218270 113a351b 2232031e 32442d72 062c2020  .:5."2..2D-r.,  
 40218280 747732e7 0df00000 12c1f009 212a0402  tw2.........!*..
 40218290 00047d03 c000110a 02386022 0014cc33  ..}......8`"...3
 402182a0 0c020614 007911ac 52661246 e0231132  .....y..Rf.F.#.2
 402182b0 a3e801d3 a3c00000 3d022811 3022b022  ........=.(.0"."
 402182c0 c21501cf a3c00000 2c400002 a0860800  ........,@......
 402182d0 ac952200 1c42a060 ac124901 281142a3  .."..B.`..I.(.B.
 402182e0 e8d02211 40228201 c6a3c000 0008012a  ..".@".........*
 402182f0 00ab0000 20f40821 12c1100d f022a0c0  .... ..!....."..
 40218300 290186f5 ff000000 0c0681b7 ffc07611  ).............v.
 40218310 7a784207 1e279409 2d068207 1d824300  zxB..'..-.....C.
 40218320 0df01b66 60607466 a6e222a0 ff0df000  ...f``tf..".....
 40218330 0c030c44 12c1f0c9 110901cd 02019caf  ...D............
 40218340 c000000c a0091cc8 11080112 c1100df0  ................
 40218350 0df00000 2613ff3f 0c1a6212 0d81fdff  ....&..?..b.....
 40218360 60702460 63a48a66 52068000 07405040  `p$`c..fR....@P@
 40218370 b1404004 4023c020 2a939c52 7cfb0017  .@@.@#. *..R|...
 40218380 40009aa1 508920b0 99309095 10308983  @...P. ..0...0..
 40218390 8246800d f0000000 20622012 c1f0c261  .F...... b ....a
 402183a0 01026100 22223102 2630cd03 27201b32  ..a.""1.&0..' .2
 402183b0 2632280c 1b333266 3245ae07 2d0c0c13  &2(..32f2E..-...
 402183c0 01a2efc0 00000c12 060b001b 400c0752  ............@..R
 402183d0 26352226 341b55cc 42326633 46000039  &5"&4.U.B2f3F..9
 402183e0 72797cc2 66344266 30526635 6614062d  ry|.f4Bf0Rf5f..-
 402183f0 060c1345 f6ff0c02 c8110801 12c1100d  ...E............
 40218400 f0000000 12c1e0f9 410901e9 31d921c9  ........A...1.!.
 40218410 11dd03c2 2233ed02 cc1c4622 00f22c07  ...."3....F"..,.
 40218420 561d0285 d3018c62 2d0c8568 fa461400  V......b-..h.F..
 40218430 62cc1c71 96ae0c09 82277599 7cc90862  b..q.....'u.|..b
 40218440 6775060f 00661d14 222c0045 a507c02c  gu...f..",.E...,
 40218450 2032a001 017defc0 00000609 00b22c08   2...}........,.
 40218460 b22b04c0 2000a1d8 b2a22a80 b0aac0d7  .+.. .....*.....
 40218470 3a39222c 0085a207 2d0c0c13 0173efc0  :9",....-....s..
 40218480 0000f26e 33cd0f02 2e35322e 300b000b  ...n3....52.0...
 40218490 33326e30 026e358c 1c06e0ff 0c02226e  32n0.n5......."n
 402184a0 34226e33 226e350c 03326e30 c811d821  4"n3"n5..2n0...!
 402184b0 e831f841 080112c1 200df000 12c1f009  .1.A.... .......
 402184c0 11290108 228c831c 03303020 39224606  .).."....00 9"F.
 402184d0 000c036c f4404010 4922c5e7 ff080152  ...l.@@.I".....R
 402184e0 20308c55 0c032d00 85f1ff08 1112c110   0.U..-.........
 402184f0 0df00000 546f2140 32a00241 7ca762a0  ....To!@2..A|.b.
 40218500 01205220 12c1f009 0121faff 08756935  . R .....!...ui5
 40218510 40002009 75056cfa 080112c1 100df000  @. .u.l.........
 40218520 62a40058 7242abff 40451060 55203054  b..XrB..@E.`U 0T
 40218530 8359720d f0000000 2086fe3f 820200b6  .Yr..... ..?....
 40218540 781e91fd ff0c0aa6 18160c05 68092a75  x...........h.*u
 40218550 72070170 70647716 0b772604 1b558795  r..ppdw..w&..U..
 40218560 ec0c020d f04b991b aa667ada 0c120df0  .....K...fz.....
 40218570 4086fe3f 12c1f009 01020200 bcf00c09  @..?............
 40218580 b2a08081 fbffc0a3 11aa8872 0800cc94  ...........r....
 40218590 9a320203 01000064 0243019c 570c009a  .2.....d.C..W...
 402185a0 a2320a01 0a585205 011b0037 9517b063  .2...XR....7...c
 402185b0 20624a01 a202001b 99909074 a739ce08   bJ........t.9..
 402185c0 0112c110 0df00000 740797d7 06f9ff00  ........t.......
 402185d0 0c0412c1 f00901c5 f9ff0801 12c1100d  ................
 402185e0 f0000000 0c1412c1 f0090185 f8ff0801  ................
 402185f0 12c1100d f0000000 0df00000 0df00000  ................
 40218600 20322012 c1f05261 01026102 2120ae49   2 ...Ra..a.! .I
 40218610 0128420c 6432621e 22c23001 e2aec000  .(B.d2b.".0.....
 40218620 00381101 1aae8cb3 0c2342a0 b02d0085  .8.......#B..-..
 40218630 da008604 0032a003 00202062 21002c05  .....2...  b!.,.
 40218640 0c046045 9305d900 082112c1 100df000  ..`E.....!......
 40218650 3c17ff3f 8c8c2140 5817ff3f 7c8c2140  <..?..!@X..?|.!@
 40218660 42a0ff32 a16852a0 7812c1f0 c9110901  B..2.hR.x.......
 40218670 cd0221f7 ff291c59 d259e239 f242429b  ..!..).Y.Y.9.BB.
 40218680 31f5ff0c 048b2201 c7a2c000 0021f2ff  1....."......!..
 40218690 31f3ff0c 0401c3a2 c0000008 010c0672  1..............r
 402186a0 a1d07a7c 626c7472 6c75c811 12c1100d  ..z|bltrlu......
 402186b0 f0000000 51e7ff12 c1f00901 22252932  ....Q......."%)2
 402186c0 05a84225 2b52252c 85010008 0112c110  ..B%+R%,........
 402186d0 0df00000 f417ff3f b4862140 a0892140  .......?..!@..!@
 402186e0 e85f1040 12c1e042 61040901 e931d921  ._.@...Ba....1.!
 402186f0 c911dd03 cd02ed05 21f7ff01 aca2c000  ........!.......
 40218700 0021f4ff 31f5ff0c 0401a6a2 c00000c5  .!..1...........
 40218710 b3f916a2 03c5b1f9 fc120c12 05cff921  ...............!
 40218720 edff01a2 a2c00000 21ebff0c a341c8ff  ........!....A..
 40218730 5841c264 29d244a8 52642be2 642c0c15  XA.d).D.Rd+.d,..
 40218740 0c040199 a2c00000 7cf2861c 0045b1f9  ........|....E..
 40218750 21cfad28 424b2201 95a2c000 00052000  !..(BK"....... .
 40218760 2d0d1c05 41feb7c0 20003224 9b503320  -...A... .2$.P3 
 40218770 c0200032 649b31d9 ff0c0401 d9ffc000  . .2d.1.........
 40218780 002632c3 0c1671b2 ff8841e2 6712c917  .&2...q...A.g...
 40218790 82671162 474dc7ec 120c0bd2 a100ad07  .g.bGM..........
 402187a0 920a9bd0 dc10d09b 93924a4c c1b8ad85  ..........JL....
 402187b0 7700e80c e80e176e 040c0205 4d000c02  w......n....M...
 402187c0 c811d821 e8310801 12c1200d f0000000  ...!.1.... .....
 402187d0 12c1f009 01053f00 8c42c501 00860100  ......?..B......
 402187e0 0c020c03 851b0008 0112c110 0df00000  ................
 402187f0 40882140 88882140 12c1f009 010194ff  @.!@..!@........
 40218800 6d022810 51a2ade7 e2105845 48e058b5  m.(.Q.....XEH.X.
 40218810 38d052c5 fb503483 86000032 200f6026  8.R..P4....2 .`&
 40218820 2041f3ff 51f4ff72 004d82a0 08807720   A..Q..r.M....w 
 40218830 72404dc5 7d010801 12c1100d f0000000  r@M.}...........
 40218840 0c2452a0 f76182ff 12c1f009 0132064d  .$R..a.......2.M
 40218850 08165033 1032464d 40332032 464de7e0  ..P3.2FM@3 2FM..
 40218860 12780297 e70d008d 040c0992 469a8246  .x..........F..F
 40218870 9a852c00 080112c1 100df000 4417ff3f  ..,.........D..?
 40218880 9413ff3f 7c601040 12c1f0c2 6102c170  ...?|`.@....a..p
 40218890 ff026101 020c4dd2 61030023 04164209  ..a...M.a..#..B.
 402188a0 22a0f720 0010024c 4d276009 0c020c03  ".. ...LM'`.....
 402188b0 c50e00c6 1c0021f1 ff16d301 013ca2c0  ......!......<..
 402188c0 000042a0 fb320c4d 22a00040 3310324c  ..B..2.M"..@3.2L
 402188d0 4d32a001 850c00c6 1300081c c16cad87  M2...........l..
 402188e0 605e0132 a2c00000 01e7ffc0 0000215a  `^.2..........!Z
 402188f0 ff1ce30c 040c1501 2ca2c000 000c0d51  ........,......Q
 40218900 e0ff5901 222c749c f2687262 6c74cc36  ..Y.",t..hrblt.6
 40218910 7801726c 75d972c5 19fa86f9 ff000000  x.rlu.r.........
 40218920 0c020c03 10112085 0700c821 d8310811  ...... ....!.1..
 40218930 12c1100d f0008104 16d8f622 a0fd46d8  ..........."..F.
 40218940 ff97e005 011aa2c0 0000980c 98090769  ...............i
 40218950 ce01ccff c00000c6 f3ff0000 44601040  ............D`.@
 40218960 12c1f009 01013aff 22004d07 621c0c03  ......:.".M.b...
 40218970 32404d01 faffc000 002137ff 010ca2c0  2@M......!7.....
 40218980 000021be ff0109a2 c0000008 0112c110  ..!.............
 40218990 0df00000 20c12240 44a52140 2c601040  .... ."@D.!@,`.@
 402189a0 21fdff12 c1e03261 00026101 d26103e9  !.....2a..a..a..
 402189b0 41c921e1 27ffc135 add22e11 c84c0135  A.!.'..5.....L.5
 402189c0 adc00000 6cf32165 b7c02000 02229b30  ....l.!e.. ..".0
 402189d0 0010c020 0002629b 01abffc0 000001ef  ... ..b.........
 402189e0 ffc00000 21a6ff62 a0fa520e 4d0c0449  ....!..b..R.M..I
 402189f0 1e605510 524e4d01 eda1c000 000c0878  .`U.RNM........x
 40218a00 bc826e11 66571141 21ad0c22 48040c03  ..n.fW.A!.."H...
 40218a10 4224d4c5 2afb8602 0022a000 32a0000c  B$..*...."..2...
 40218a20 04c529fb 169d0422 2e123801 c00d00d1  ..)...."..8.....
 40218a30 17ad454f 00084d02 00b82610 02663030  ..EO..M...&..f00
 40218a40 32210056 a302d2cc 042d0d01 d8a1c000  2!.V.....-......
 40218a50 00484ccc b42d0d31 d0ff0c04 01d2a1c0  .HL..-.1........
 40218a60 00002d0d 32a0640c 040c1501 cfa1c000  ..-.2.d.........
 40218a70 00c598ec 66321601 27b7c000 0005a2fb  ....f2..'.......
 40218a80 7179b372 079d7712 040c0285 aeed88bc  qy.r..w.........
 40218a90 8c68857b f98c1245 81f9c821 d831e841  .h.{...E...!.1.A
 40218aa0 081112c1 200df000 d817ff3f 0c643d02  .... ......?.d=.
 40218ab0 12c1f021 fdff0901 01bbadc0 000021e4  ...!..........!.
 40218ac0 fe0c1002 42a20801 12c1100d f0000000  ....B...........
 40218ad0 31e0fe0c 022243a2 0df00000 31ddfe22  1...."C.....1.."
 40218ae0 43a30df0 12c1f009 01c911d9 21cd02dd  C...........!...
 40218af0 05f63221 01d7fe66 15165d00 2022b050  ..2!...f..]. ".P
 40218b00 22a04262 1422c254 01a7adc0 000001d0  ".Bb.".T........
 40218b10 fe0a6cd2 4698c811 d8210801 12c1100d  ..l.F....!......
 40218b20 f0000000 f632120c 0351c9fe 2042b050  .....2...Q.. B.P
 40218b30 44a05a52 32459832 64140df0 61d4ac12  D.ZR2E.2d...a...
 40218b40 c1e00941 c951c1c2 fe684602 0c9a6806  ...A.Q...hF...h.
 40218b50 f62016ca 70720798 8c370c13 4603001b  . ..pr...7..F...
 40218b60 00000074 024c9a66 20e832a0 0016e304  ...t.L.f .2.....
 40218b70 c0308032 03985151 ec662315 5045200c  .0.2..QQ.f#.PE .
 40218b80 0232c62b 0c070c16 69010c06 458ffe06  .2.+....i...E...
 40218b90 09006613 210070b0 c077a002 27141650  ..f.!.p..w..'..P
 40218ba0 01504520 22a00032 c62b0c18 62c75489  .PE "..2.+..b.T.
 40218bb0 01007074 c58cfe92 0c9a1b99 924c9ac8  ..pt.........L..
 40218bc0 51084112 c1200df0 0cd20c03 82a08471  Q.A.. .........q
 40218bd0 afac52a0 ff619efe 12c1f0e9 31c911d9  ..R..a......1...
 40218be0 21090142 069b0206 4c40d490 5044c070  !..B....L@..PD.p
 40218bf0 dda08add 40d38307 3239b227 530ce921  ....@...29.'S..!
 40218c00 5cb3c158 c4e816a1 6dd0c0ce 10a0ae10  \..X....m.......
 40218c10 20ee1000 20907022 a0522221 8a220765   ... .p".R"!.".e
 40218c20 07176504 9cbab792 191b0000 00740246  ..e..........t.F
 40218c30 4c9790de 0c02c811 d821e831 080112c1  L........!.1....
 40218c40 100df08c 1cd792e0 8c1e97e5 db1b3032  ..............02
 40218c50 464c06f8 ff000000 0c04718c ac7cd60c  FL........q..|..
 40218c60 e51b8440 34907033 a0222321 80407460  ...@4.p3."#!.@t`
 40218c70 22102263 215794e8 0df00000 12c1f009  "."c!W..........
 40218c80 01c5b4ff 080112c1 100df000 12c1f051  ...............Q
 40218c90 70fe0901 02054d8b 25076027 0ca30703  p.....M.%.`'....
 40218ca0 0e0c030c 040c1501 40a1c000 00c60400  ........@.......
 40218cb0 48159764 0b38c50c 040c1501 3ba1c000  H..d.8......;...
 40218cc0 00c5b0ff 080112c1 100df000 4161fe0b  ............Aa..
 40218cd0 3232449b 0df00000 215efe28 120df000  22D.....!^.(....
 40218ce0 416bac38 742103f3 e7630420 23102974  Ak.8t!...c. #.)t
 40218cf0 0df00000 e88bfe3f 12c1f009 1108020c  .......?........
 40218d00 12090101 1be3c000 004160ac 5151d908  .........A`.QQ..
 40218d10 74dcd231 f8f221f7 ff303010 397401c3  t..1..!..00.9t..
 40218d20 a0c00000 28010c33 0c040c05 459bff06  ....(..3....E...
 40218d30 01005050 20597408 1112c110 0df00000  ..PP Yt.........
 40218d40 6202010c 059c165a 32320302 1b558c23  b......Z22...U.#
 40218d50 0c020df0 50507457 96ec0c12 0df00000  ....PPtW........
 40218d60 d513ff3f 30c12240 4514ff3f 12c1e009  ...?0."@E..?....
 40218d70 610146ac c9714840 cd0338e4 6cf55033  a.F..qH@..8.l.P3
 40218d80 1039e402 00182941 02c0fe16 b00c288c  .9....)A......(.
 40218d90 c5faff01 f3fffcf2 0921388c 52c0e342  .........!8.R..B
 40218da0 05036205 02804411 60442080 44116205  ..b...D.`D .D.b.
 40218db0 01520500 60442062 03018044 11504420  .R..`D b...D.PD 
 40218dc0 6794102b 332d0022 c2e70115 b2c00000  g..+3-."........
 40218dd0 08218c32 0c028620 00320080 66131c02  .!.2... .2..f...
 40218de0 610216e3 fe21e3b2 32210442 a00632c3  a....!..2!.B..2.
 40218df0 10010bb2 c0000008 215672fd 421c0132  ........!Vr.B..2
 40218e00 a0f017e4 ce2112fe 0c088240 0c82400b  .....!.....@..@.
 40218e10 82400a72 02b48240 09707034 c0871180  .@.r...@.pp4....
 40218e20 77207242 b40c1882 40088240 0758dc89  w rB....@..@.X..
 40218e30 51bc05a1 16aca84a 2d0c98ea 1c0bb099  Q......J-.......
 40218e40 2099ea05 b1fd2102 fe0202b4 32a0f030   .....!.....2..0
 40218e50 00103851 30002002 42b40c12 c8710861  ..8Q0. .B....q.a
 40218e60 12c1200d f0522c0c 16d50171 08ac7227  .. ..R,....q..r'
 40218e70 042d0c68 e71c0880 662069e7 c59bfd21  .-.h....f i....!
 40218e80 f4fd0c28 8951c6ef ff921c01 02610247  ...(.Q.......a.G
 40218e90 6933c12b acc02c20 01b8b2c0 0000c261  i3.+.., .......a
 40218ea0 0329013d 012d0cc5 c90ccd02 dcc221ad  .).=.-........!.
 40218eb0 ff383101 f8abc000 00b1f4ab b84b0c2a  .81..........K.*
 40218ec0 a24bba46 c3ff3007 1086e2ff 08016650  .K.F..0.......fP
 40218ed0 490c7028 21024209 1c0321a3 ff291101  I.p(!.B...!..)..
 40218ee0 19acc000 0028113d 0c480101 aeacc000  .....(.=.H......
 40218ef0 002d0c01 b4a5c000 0061e4ab 0c336846  .-.......a...3hF
 40218f00 21d4fd58 e61c0770 552059e6 0202b442  !..X...pU Y....B
 40218f10 a0f04000 10300020 c6ceff0c d77790b7  ..@..0. .....w..
 40218f20 0c8046eb ff000000 12c1f009 01d921c9  ..F...........!.
 40218f30 11c1d6ab d196ac22 2c609c12 0802026c  .......",`.....l
 40218f40 60cc10d2 6c61019f a5c00000 c6f9ffc8  `...la..........
 40218f50 11d82108 0112c110 0df00000 12c1f009  ..!.............
 40218f60 01d921d1 caabc911 d22d60cd 029c6d3d  ..!......-`...m=
 40218f70 0c4b2d0c 6401aab1 c00000cc 320c1286  .K-.d.......2...
 40218f80 0100d80d 567dfe0c 02c811d8 21080112  ....V}......!...
 40218f90 c1100df0 12c1b002 6110d261 12c26111  ........a..a..a.
 40218fa0 e26113cd 03ed02dd 043c4201 7facc000  .a.......<B.....
 40218fb0 00ab3e0c 64ed024b 22017aac c0000028  ..>.d..K".z....(
 40218fc0 8cc5d7ff 3d020c12 66130522 4e308605  ....=...f.."N0..
 40218fd0 0052a000 524e3042 2c0822ce 0a2b3442  .R..RN0B,."..+4B
 40218fe0 0401018c b9c00000 620c0062 4e2ad24e  ........b..bN*.N
 40218ff0 2b28cc0c 0d8cf232 02014d01 2b3305b0  +(.....2..M.+3..
 40219000 10d80108 31860000 02a00022 2c0d1612  ....1......",...
 40219010 01320201 42c1202b 3345ae10 488108b1  .2..B. +3E..H...
 40219020 d0d420bc 80262036 0c0c0113 dec00000  .. ..& 6........
 40219030 c90e6187 fd7195ab 52165b82 27611b55  ..a..q..R.[.'a.U
 40219040 e908e267 6152565b 010ddec0 0000c221  ...gaRV[.......!
 40219050 11d22112 e2211302 211012c1 500df08c  ..!..!..!...P...
 40219060 ed261d17 262d1966 3dbd0c40 09be86ed  .&..&-.f=..@....
 40219070 ff921c01 47690e0c 10c6fbff 0c2086fa  ....Gi....... ..
 40219080 ff0c3046 f9ff0c00 06f8ff00 12c1a042  ..0F...........B
 40219090 61100261 11d26113 c26112e2 6114f261  a..a..a..a..a..a
 402190a0 1520e220 f16bfd30 c320d222 083842d8  . . .k.0. .".8B.
 402190b0 2d320300 020fa380 33013038 31326116  -2......3.0812a.
 402190c0 ccc0088c 22000132 00021602 1216d311  ...."..2........
 402190d0 2d0dc53c fb420c00 522f1147 12047cf2  -..<.B..R/.G..|.
 402190e0 064300e8 1ee81e16 a507022f 12164007  .C........./..@.
 402190f0 ab2e29d1 45e6ff56 a206220f 4d076264  ..).E..V..".M.bd
 40219100 016afe62 0f9922c0 dc0b3656 631f420f  .j.b.."...6Vc.B.
 40219110 a20b4456 f421488c 2b344204 010191b3  ..DV.!H.+4B.....
 40219120 c00000fc e22160fe 38d10c64 013db1c0  .....!`.8..d.=..
 40219130 0000ecf2 2d0e3d0c 42211652 1d0242c4  ....-.=.B!.R..B.
 40219140 a0804401 404831c5 e4ffc605 00e02e20  ..D.@H1........ 
 40219150 c03c2042 2116521d 0242c4a0 80440140  .< B!.R..B...D.@
 40219160 483105e3 ff5109ac 0149ab52 05646220  H1...Q...I.R.db 
 40219170 7d261579 16760482 2c081618 0422ce10  }&.y.v..,...."..
 40219180 29e1c592 01226117 56320808 8c913fab  )...."a.V2....?.
 40219190 42000192 297d4799 0d21f4b1 2b300120  B...)}G..!..+0. 
 402191a0 b1c00000 167206a1 eefea20a 808cea21  .....r.........!
 402191b0 f1b138e1 0c64011a b1c00000 16f2040c  ..8..d..........
 402191c0 0ee02eb0 f022a042 2214bc64 088cbc20  .....".B"..d... 
 402191d0 32000137 942d22c2 542b3001 11b1c000  2..7.-".T+0.....
 402191e0 00dcf242 0d080c45 50442042 4d080c02  ...B...EPD BM...
 402191f0 c22112d2 2113e221 14f22115 02211112  .!..!..!..!..!..
 40219200 c1600df0 1beee0e0 74662eb4 86f7ffe0  .`......tf......
 40219210 2e203d0c 42211045 b5ff1662 0d488c2d  . =.B!.E...b.H.-
 40219220 012b3442 040101fb b8c00000 5221170c  .+4B........R!..
 40219230 06788c02 21167207 0102c0a0 09c11a77  .x..!.r........w
 40219240 62470056 550528e1 457b0129 f132a110  bG.VU.(.E{.).2..
 40219250 013dabc0 00000c83 220d080c 24302220  .=......"...$0" 
 40219260 224d0828 f138c1d2 621ec5b6 0128f10c  "M.(.8..b....(..
 40219270 a30c04c5 be0128f1 0c530c04 c5c4014d  ......(..S.....M
 40219280 0e28f13d 0c85c601 3d0ce8f1 4221102d  .(.=....=...B!.-
 40219290 0e45c901 2d0e058e 01c60f00 502520d2  .E..-.......P% .
 402192a0 651e0c24 3d0005b3 01222117 0c630c14  e..$=...."!..c..
 402192b0 c5ba0122 21170c53 0c0405c1 01085c8c  ..."!..S......\.
 402192c0 d0522117 62000262 45254200 03424524  .R!.b..bE%B..BE$
 402192d0 222117c0 3c204221 10c5c401 722f0170  "!..< B!....r/.p
 402192e0 7a041697 ed820f4d 92a00490 8820824f  z......M..... .O
 402192f0 4d86b2ff a2211716 4aec2d0a 45970106  M....!..J.-.E...
 40219300 afff0000 00b20fa2 0bbb56fb e321e6fd  ..........V..!..
 40219310 38d10c64 01c3b0c0 00005672 e42d0e3d  8..d......Vr.-.=
 40219320 0c422116 521d0242 c4a08044 01404831  .B!.R..B...D.@H1
 40219330 05c6ff86 8bff6616 cb488c2b 34420401  ......f..H.+4B..
 40219340 0109b3c0 000056b2 e12d0e3d 0c422116  ......V..-.=.B!.
 40219350 521d0242 c4a08044 01404831 45c3ff86  R..B...D.@H1E...
 40219360 80ff0000 12c1f009 018ca326 4308e693  ...........&C...
 40219370 02e66302 66b30a32 a0b00c14 101120c5  ..c.f..2...... .
 40219380 30fe0801 12c1100d f0000000 9c90fe3f  0..............?
 40219390 0c0831fe ff61bdaa 38035846 8c938245  ..1..a..8.XF...E
 402193a0 b9484622 44ba4605 007205b8 a205b926  .HF"D.F..r.....&
 402193b0 17137712 108245b9 78460c14 4247ba88  ..w...E.xF..BG..
 402193c0 462248b8 0df01baa a245b958 469205b9  F"H......E.XF...
 402193d0 4d056639 e986f2ff 81adaa12 c1b00261  M.f9...........a
 402193e0 0de26110 c2610ed9 f1c842dd 04e80241  ..a..a....B....A
 402193f0 e7ffe22e d478bc39 bc16d305 66230286  .....x.9....f#..
 40219400 26002633 2f665341 f6473e29 c1b62739  &.&3/fSA.G>)..'9
 40219410 22cdf00c 100c043d 0e204083 2d0c85df  "......=. @.-...
 40219420 0138c132 d3023203 1832c3fd 16431a05  .8.2..2..2...C..
 40219430 c3100605 00f64705 b6270246 8c0042c7  ......G..'.F..B.
 40219440 fb16c421 52c7f916 65210c02 c8e1d8f1  ...!R...e!......
 40219450 e2211008 d112c150 0df062c7 fe16b617  .!.....P..b.....
 40219460 92c7fd16 69192657 026677dd d0a074a2  ....i.&W.fw...t.
 40219470 caff16aa 0ed1c5ff 22cc04b2 a008b241  ........"......A
 40219480 2b014a9f c0000022 cc180148 9fc00000  +.J...."...H....
 40219490 2d0c32a0 a00c8445 1ffe0637 00f6270f  -.2....E...7..'.
 402194a0 2d0c32a0 b00c1445 1efe06e7 ff000000  -.2....E........
 402194b0 32a0b022 a0c0f647 05b62702 863e0066  2.."...G..'..>.f
 402194c0 578742a0 a0d00074 47100e72 61113050  W.B....tG..ra.0P
 402194d0 c016751b 271002c6 dbff22a0 0205ebff  ..u.'.....".....
 402194e0 22cc1801 329fc000 0022cc04 29b1012f  "...2...."..)../
 402194f0 9fc00000 45a2ec66 121b28b1 3127fd0c  ....E..f..(.1'..
 40219500 0401289f c0000028 b132a3e8 0c040c15  ..(....(.2......
 40219510 01269fc0 00003d0e 2d0cc5bb 01619bff  .&....=.-....a..
 40219520 68061646 f232cc30 22c1250c 64d07821  h..F.2.0".%.d.x!
 40219530 0c188901 72412b01 1babc000 00310bb1  ....rA+......1..
 40219540 4b212c04 0118abc0 00002150 aa018fff  K!,.......!P....
 40219550 22227d22 41240800 2d01c000 0046baff  ""}"A$..-....F..
 40219560 22a00432 a0c83241 2b45e2ff c02c2032  "..2..2A+E..., 2
 40219570 a0a00c44 4511fed1 85ff3d0e 2d0c85b5  ...DE.....=.-...
 40219580 01480d16 34ece1f9 b032cc30 22c1250c  .H..4....2.0".%.
 40219590 640c1559 010103ab c000003d 0e4b212c  d..Y.......=.K!,
 402195a0 040100ab c0000021 39aa080d 22227d22  .......!9...""}"
 402195b0 41242d01 c00000c6 a3ffd000 743040c0  A$-.........t0@.
 402195c0 16b40b20 50c05605 e82d0cd0 382145d9  ... P.V..-..8!E.
 402195d0 ff469dff 0c16624e 18469bff 78487207  .F....bN.F..xHr.
 402195e0 b8262704 0c4285da ff4b2c01 f09ec000  .&'..B...K,.....
 402195f0 0022cc18 01ee9ec0 00000693 ffc02c20  ."............, 
 40219600 40d42032 a0c00c34 0508fe9c 6e4b2c01  @. 2...4....nK,.
 40219610 e79ec000 0022cc18 01e59ec0 00003d0e  ....."........=.
 40219620 2d0c45ab 01880d16 f8e132cc 3022c125  -.E.......2.0".%
 40219630 0c640c39 0c1aa901 92412b01 daaac000  .d.9.....A+.....
 40219640 0031cab0 4b212c04 01d7aac0 0000210f  .1..K!,.......!.
 40219650 aa080d22 227d2241 242d01c0 0000067a  ...""}"A$-.....z
 40219660 ffc02c20 32a02042 a0000502 fe4676ff  .., 2. B.....Fv.
 40219670 c02c2032 a00042a0 000501fe 8672ff2d  ., 2..B......r.-
 40219680 0c0c2485 00fe0670 ff000000 70d720c0  ..$....p....p. .
 40219690 2c2032a0 b042a002 05fffdd9 bc466aff  , 2..B.......Fj.
 402196a0 61bbaa12 c1c0e981 f9910951 c961d971  a..........Q.a.q
 402196b0 620664dd 02cd0308 4c3d0442 00012d05  b.d.....L=.B..-.
 402196c0 404641cc 74021001 0000b486 03005210  @FA.t.........R.
 402196d0 03421002 00051140 00200008 41661602  .B.....@. ..Af..
 402196e0 06240016 dd08f22d 1e0090f4 f6b902c6  .$.....-........
 402196f0 2700081c 08104200 00e2a0ff 40701456  '.....B.....@p.V
 40219700 57093931 2921a200 01b2a0f0 0ccee0e4  W.91)!..........
 40219710 10b0b410 a0a014ac 5fb9a1a9 b121ccfb  ........_....!..
 40219720 99c12202 4d091107 e2153d0f 0c64ab20  ..".M.....=..d. 
 40219730 01bcafc0 00000811 98c1a8b1 b8a1fc52  ...............R
 40219740 52a08c62 a0884c04 3821324d a827ee50  R..b..L.8!2M.'.P
 40219750 72000407 e74a8200 00508810 6088c056  r....J...P..`..V
 40219760 c8092200 01202014 22c2fd56 620e2200  .."..  ."..Vb.".
 40219770 1ec63800 e201008c 6c2d0c01 6aacc000  ..8.....l-..j...
 40219780 002d0ec8 61d871e8 81f89108 5112c140  .-..a.q.....Q..@
 40219790 0df0e2a0 ff86f7ff c6f6ffd0 22908252  ............"..R
 402197a0 241c841c e2320000 72000150 33107070  $....2..r..P3.pp
 402197b0 1472c7fd 70249367 93012b22 225c0a20  .r..p$.g..+""\. 
 402197c0 49c042c4 fc425c0b 162e0626 4ea8668e  I.B..B\....&N.f.
 402197d0 a5522d1e 16f5f927 299c662a 99026101  .R-....').f*..a.
 402197e0 92610c62 00012261 04676671 2d0d3d0c  .a.b.."a.gfq-.=.
 402197f0 484105f1 fa081198 c1560207 c6ddff1c  HA.......V......
 40219800 0282100b 38ed162f 04782f40 77107033  ....8../.x/@w.p3
 40219810 2039ed67 e3843200 01d02290 37e302c6   9.g..2...".7...
 40219820 deff4212 248044c0 16b4f4c6 dbff565a  ..B.$.D.......VZ
 40219830 f452a017 97350206 cfffb04b 20d02d20  .R...5.....K .- 
 40219840 3d0c5831 68210523 0086caff 72afbf70  =.X1h!.#....r..p
 40219850 3310c6ee ff220018 20203486 e8ffa22c  3...."..  4....,
 40219860 01226104 881a20b0 f4ba8889 1a4d092d  ."a... ......M.-
 40219870 0c58413d 00c59afc 3d02cd02 1672ef08  .XA=....=....r..
 40219880 12422d1e 21f8ec48 24081007 e427420f  .B-.!..H$....'B.
